
build/MOP-Lab4-2.elf:     file format elf32-littleriscv


Disassembly of section .text:

20000000 <_start>:
20000000:	2001c137          	lui	sp,0x2001c
20000004:	385010ef          	jal	20001b88 <_crt_init>
20000008:	00001297          	auipc	t0,0x1
2000000c:	84028293          	addi	t0,t0,-1984 # 20000848 <main>
20000010:	00000097          	auipc	ra,0x0
20000014:	01c08093          	addi	ra,ra,28 # 2000002c <exit>
20000018:	34129073          	csrw	mepc,t0
2000001c:	00004337          	lui	t1,0x4
20000020:	88030313          	addi	t1,t1,-1920 # 3880 <_start-0x1fffc780>
20000024:	30031073          	csrw	mstatus,t1
20000028:	30200073          	mret

2000002c <exit>:
2000002c:	5a5010ef          	jal	20001dd0 <_crt_deinit>
20000030:	0000006f          	j	20000030 <exit+0x4>

20000034 <systick_handler>:
Point applePos;
volatile uint8_t lost = 0;


__attribute__((interrupt("machine")))
void systick_handler() {
20000034:	e7010113          	addi	sp,sp,-400 # 2001be70 <__stack_top+0x15304>
20000038:	18112623          	sw	ra,396(sp)
2000003c:	18512423          	sw	t0,392(sp)
20000040:	003022f3          	frcsr	t0
20000044:	18512223          	sw	t0,388(sp)
20000048:	18612023          	sw	t1,384(sp)
2000004c:	16712e23          	sw	t2,380(sp)
20000050:	16812c23          	sw	s0,376(sp)
20000054:	16a12a23          	sw	a0,372(sp)
20000058:	16b12823          	sw	a1,368(sp)
2000005c:	16c12623          	sw	a2,364(sp)
20000060:	16d12423          	sw	a3,360(sp)
20000064:	16e12223          	sw	a4,356(sp)
20000068:	16f12023          	sw	a5,352(sp)
2000006c:	15012e23          	sw	a6,348(sp)
20000070:	15112c23          	sw	a7,344(sp)
20000074:	15c12a23          	sw	t3,340(sp)
20000078:	15d12823          	sw	t4,336(sp)
2000007c:	15e12623          	sw	t5,332(sp)
20000080:	15f12423          	sw	t6,328(sp)
20000084:	12012627          	fsw	ft0,300(sp)
20000088:	12112427          	fsw	ft1,296(sp)
2000008c:	12212227          	fsw	ft2,292(sp)
20000090:	12312027          	fsw	ft3,288(sp)
20000094:	10412e27          	fsw	ft4,284(sp)
20000098:	10512c27          	fsw	ft5,280(sp)
2000009c:	10612a27          	fsw	ft6,276(sp)
200000a0:	10712827          	fsw	ft7,272(sp)
200000a4:	10a12627          	fsw	fa0,268(sp)
200000a8:	10b12427          	fsw	fa1,264(sp)
200000ac:	10c12227          	fsw	fa2,260(sp)
200000b0:	10d12027          	fsw	fa3,256(sp)
200000b4:	0ee12e27          	fsw	fa4,252(sp)
200000b8:	0ef12c27          	fsw	fa5,248(sp)
200000bc:	0f012a27          	fsw	fa6,244(sp)
200000c0:	0f112827          	fsw	fa7,240(sp)
200000c4:	0fc12627          	fsw	ft8,236(sp)
200000c8:	0fd12427          	fsw	ft9,232(sp)
200000cc:	0fe12227          	fsw	ft10,228(sp)
200000d0:	0ff12027          	fsw	ft11,224(sp)
200000d4:	19010413          	addi	s0,sp,400
    input = get_keyboard_button();
200000d8:	7c1000ef          	jal	20001098 <get_keyboard_button>
200000dc:	00050793          	mv	a5,a0
200000e0:	0ff7f713          	zext.b	a4,a5
200000e4:	200067b7          	lui	a5,0x20006
200000e8:	f4e78823          	sb	a4,-176(a5) # 20005f50 <input>
    Point prev_positions[50];

    for (int i = 0; i < wormLength; i++) {
200000ec:	f4042623          	sw	zero,-180(s0)
200000f0:	0480006f          	j	20000138 <systick_handler+0x104>
        prev_positions[i] = worm[i].position;
200000f4:	f4c42703          	lw	a4,-180(s0)
200000f8:	e7c40793          	addi	a5,s0,-388
200000fc:	00271713          	slli	a4,a4,0x2
20000100:	00f706b3          	add	a3,a4,a5
20000104:	200057b7          	lui	a5,0x20005
20000108:	64478613          	addi	a2,a5,1604 # 20005644 <worm>
2000010c:	f4c42703          	lw	a4,-180(s0)
20000110:	00070793          	mv	a5,a4
20000114:	00179793          	slli	a5,a5,0x1
20000118:	00e787b3          	add	a5,a5,a4
2000011c:	00279793          	slli	a5,a5,0x2
20000120:	00f607b3          	add	a5,a2,a5
20000124:	0047a783          	lw	a5,4(a5)
20000128:	00f6a023          	sw	a5,0(a3)
    for (int i = 0; i < wormLength; i++) {
2000012c:	f4c42783          	lw	a5,-180(s0)
20000130:	00178793          	addi	a5,a5,1
20000134:	f4f42623          	sw	a5,-180(s0)
20000138:	200067b7          	lui	a5,0x20006
2000013c:	9407a783          	lw	a5,-1728(a5) # 20005940 <wormLength>
20000140:	f4c42703          	lw	a4,-180(s0)
20000144:	faf748e3          	blt	a4,a5,200000f4 <systick_handler+0xc0>
    }

    // move head
    tft_rect(worm[0].position.x, worm[0].position.y, worm[0].size, worm[0].size, COLOR_BLACK, 1);
20000148:	200067b7          	lui	a5,0x20006
2000014c:	8b87a803          	lw	a6,-1864(a5) # 200058b8 <tft_rect>
20000150:	200057b7          	lui	a5,0x20005
20000154:	64478793          	addi	a5,a5,1604 # 20005644 <worm>
20000158:	00479783          	lh	a5,4(a5)
2000015c:	00078513          	mv	a0,a5
20000160:	200057b7          	lui	a5,0x20005
20000164:	64478793          	addi	a5,a5,1604 # 20005644 <worm>
20000168:	00679783          	lh	a5,6(a5)
2000016c:	00078593          	mv	a1,a5
20000170:	200057b7          	lui	a5,0x20005
20000174:	64478793          	addi	a5,a5,1604 # 20005644 <worm>
20000178:	0007a783          	lw	a5,0(a5)
2000017c:	00078613          	mv	a2,a5
20000180:	200057b7          	lui	a5,0x20005
20000184:	64478793          	addi	a5,a5,1604 # 20005644 <worm>
20000188:	0007a783          	lw	a5,0(a5)
2000018c:	00078693          	mv	a3,a5
20000190:	00100793          	li	a5,1
20000194:	00000713          	li	a4,0
20000198:	000800e7          	jalr	a6
    worm[0].position.x += worm[0].speed.x;
2000019c:	200057b7          	lui	a5,0x20005
200001a0:	64478793          	addi	a5,a5,1604 # 20005644 <worm>
200001a4:	00479783          	lh	a5,4(a5)
200001a8:	01079713          	slli	a4,a5,0x10
200001ac:	01075713          	srli	a4,a4,0x10
200001b0:	200057b7          	lui	a5,0x20005
200001b4:	64478793          	addi	a5,a5,1604 # 20005644 <worm>
200001b8:	00879783          	lh	a5,8(a5)
200001bc:	01079793          	slli	a5,a5,0x10
200001c0:	0107d793          	srli	a5,a5,0x10
200001c4:	00f707b3          	add	a5,a4,a5
200001c8:	01079793          	slli	a5,a5,0x10
200001cc:	0107d793          	srli	a5,a5,0x10
200001d0:	01079713          	slli	a4,a5,0x10
200001d4:	41075713          	srai	a4,a4,0x10
200001d8:	200057b7          	lui	a5,0x20005
200001dc:	64478793          	addi	a5,a5,1604 # 20005644 <worm>
200001e0:	00e79223          	sh	a4,4(a5)
    worm[0].position.y += worm[0].speed.y;
200001e4:	200057b7          	lui	a5,0x20005
200001e8:	64478793          	addi	a5,a5,1604 # 20005644 <worm>
200001ec:	00679783          	lh	a5,6(a5)
200001f0:	01079713          	slli	a4,a5,0x10
200001f4:	01075713          	srli	a4,a4,0x10
200001f8:	200057b7          	lui	a5,0x20005
200001fc:	64478793          	addi	a5,a5,1604 # 20005644 <worm>
20000200:	00a79783          	lh	a5,10(a5)
20000204:	01079793          	slli	a5,a5,0x10
20000208:	0107d793          	srli	a5,a5,0x10
2000020c:	00f707b3          	add	a5,a4,a5
20000210:	01079793          	slli	a5,a5,0x10
20000214:	0107d793          	srli	a5,a5,0x10
20000218:	01079713          	slli	a4,a5,0x10
2000021c:	41075713          	srai	a4,a4,0x10
20000220:	200057b7          	lui	a5,0x20005
20000224:	64478793          	addi	a5,a5,1604 # 20005644 <worm>
20000228:	00e79323          	sh	a4,6(a5)
    tft_rect(worm[0].position.x, worm[0].position.y, worm[0].size, worm[0].size, COLOR_WHITE, 1);
2000022c:	200067b7          	lui	a5,0x20006
20000230:	8b87a803          	lw	a6,-1864(a5) # 200058b8 <tft_rect>
20000234:	200057b7          	lui	a5,0x20005
20000238:	64478793          	addi	a5,a5,1604 # 20005644 <worm>
2000023c:	00479783          	lh	a5,4(a5)
20000240:	00078513          	mv	a0,a5
20000244:	200057b7          	lui	a5,0x20005
20000248:	64478793          	addi	a5,a5,1604 # 20005644 <worm>
2000024c:	00679783          	lh	a5,6(a5)
20000250:	00078593          	mv	a1,a5
20000254:	200057b7          	lui	a5,0x20005
20000258:	64478793          	addi	a5,a5,1604 # 20005644 <worm>
2000025c:	0007a783          	lw	a5,0(a5)
20000260:	00078613          	mv	a2,a5
20000264:	200057b7          	lui	a5,0x20005
20000268:	64478793          	addi	a5,a5,1604 # 20005644 <worm>
2000026c:	0007a783          	lw	a5,0(a5)
20000270:	00078693          	mv	a3,a5
20000274:	00100793          	li	a5,1
20000278:	00010737          	lui	a4,0x10
2000027c:	fff70713          	addi	a4,a4,-1 # ffff <_start-0x1fff0001>
20000280:	000800e7          	jalr	a6

    // move body
    for (int i = 1; i < wormLength; i++) {
20000284:	00100793          	li	a5,1
20000288:	f4f42423          	sw	a5,-184(s0)
2000028c:	1b80006f          	j	20000444 <systick_handler+0x410>
        tft_rect(worm[i].position.x, worm[i].position.y, worm[i].size, worm[i].size, COLOR_BLACK, 1);
20000290:	200067b7          	lui	a5,0x20006
20000294:	8b87a803          	lw	a6,-1864(a5) # 200058b8 <tft_rect>
20000298:	200057b7          	lui	a5,0x20005
2000029c:	64478693          	addi	a3,a5,1604 # 20005644 <worm>
200002a0:	f4842703          	lw	a4,-184(s0)
200002a4:	00070793          	mv	a5,a4
200002a8:	00179793          	slli	a5,a5,0x1
200002ac:	00e787b3          	add	a5,a5,a4
200002b0:	00279793          	slli	a5,a5,0x2
200002b4:	00f687b3          	add	a5,a3,a5
200002b8:	00479783          	lh	a5,4(a5)
200002bc:	00078513          	mv	a0,a5
200002c0:	200057b7          	lui	a5,0x20005
200002c4:	64478693          	addi	a3,a5,1604 # 20005644 <worm>
200002c8:	f4842703          	lw	a4,-184(s0)
200002cc:	00070793          	mv	a5,a4
200002d0:	00179793          	slli	a5,a5,0x1
200002d4:	00e787b3          	add	a5,a5,a4
200002d8:	00279793          	slli	a5,a5,0x2
200002dc:	00f687b3          	add	a5,a3,a5
200002e0:	00679783          	lh	a5,6(a5)
200002e4:	00078593          	mv	a1,a5
200002e8:	200057b7          	lui	a5,0x20005
200002ec:	64478693          	addi	a3,a5,1604 # 20005644 <worm>
200002f0:	f4842703          	lw	a4,-184(s0)
200002f4:	00070793          	mv	a5,a4
200002f8:	00179793          	slli	a5,a5,0x1
200002fc:	00e787b3          	add	a5,a5,a4
20000300:	00279793          	slli	a5,a5,0x2
20000304:	00f687b3          	add	a5,a3,a5
20000308:	0007a783          	lw	a5,0(a5)
2000030c:	00078613          	mv	a2,a5
20000310:	200057b7          	lui	a5,0x20005
20000314:	64478693          	addi	a3,a5,1604 # 20005644 <worm>
20000318:	f4842703          	lw	a4,-184(s0)
2000031c:	00070793          	mv	a5,a4
20000320:	00179793          	slli	a5,a5,0x1
20000324:	00e787b3          	add	a5,a5,a4
20000328:	00279793          	slli	a5,a5,0x2
2000032c:	00f687b3          	add	a5,a3,a5
20000330:	0007a783          	lw	a5,0(a5)
20000334:	00078693          	mv	a3,a5
20000338:	00100793          	li	a5,1
2000033c:	00000713          	li	a4,0
20000340:	000800e7          	jalr	a6
        worm[i].position = prev_positions[i - 1];
20000344:	f4842783          	lw	a5,-184(s0)
20000348:	fff78693          	addi	a3,a5,-1
2000034c:	200057b7          	lui	a5,0x20005
20000350:	64478613          	addi	a2,a5,1604 # 20005644 <worm>
20000354:	f4842703          	lw	a4,-184(s0)
20000358:	00070793          	mv	a5,a4
2000035c:	00179793          	slli	a5,a5,0x1
20000360:	00e787b3          	add	a5,a5,a4
20000364:	00279793          	slli	a5,a5,0x2
20000368:	00f607b3          	add	a5,a2,a5
2000036c:	e7c40713          	addi	a4,s0,-388
20000370:	00269693          	slli	a3,a3,0x2
20000374:	00e68733          	add	a4,a3,a4
20000378:	00072703          	lw	a4,0(a4)
2000037c:	00e7a223          	sw	a4,4(a5)
        tft_rect(worm[i].position.x, worm[i].position.y, worm[i].size, worm[i].size, COLOR_WHITE, 1);
20000380:	200067b7          	lui	a5,0x20006
20000384:	8b87a803          	lw	a6,-1864(a5) # 200058b8 <tft_rect>
20000388:	200057b7          	lui	a5,0x20005
2000038c:	64478693          	addi	a3,a5,1604 # 20005644 <worm>
20000390:	f4842703          	lw	a4,-184(s0)
20000394:	00070793          	mv	a5,a4
20000398:	00179793          	slli	a5,a5,0x1
2000039c:	00e787b3          	add	a5,a5,a4
200003a0:	00279793          	slli	a5,a5,0x2
200003a4:	00f687b3          	add	a5,a3,a5
200003a8:	00479783          	lh	a5,4(a5)
200003ac:	00078513          	mv	a0,a5
200003b0:	200057b7          	lui	a5,0x20005
200003b4:	64478693          	addi	a3,a5,1604 # 20005644 <worm>
200003b8:	f4842703          	lw	a4,-184(s0)
200003bc:	00070793          	mv	a5,a4
200003c0:	00179793          	slli	a5,a5,0x1
200003c4:	00e787b3          	add	a5,a5,a4
200003c8:	00279793          	slli	a5,a5,0x2
200003cc:	00f687b3          	add	a5,a3,a5
200003d0:	00679783          	lh	a5,6(a5)
200003d4:	00078593          	mv	a1,a5
200003d8:	200057b7          	lui	a5,0x20005
200003dc:	64478693          	addi	a3,a5,1604 # 20005644 <worm>
200003e0:	f4842703          	lw	a4,-184(s0)
200003e4:	00070793          	mv	a5,a4
200003e8:	00179793          	slli	a5,a5,0x1
200003ec:	00e787b3          	add	a5,a5,a4
200003f0:	00279793          	slli	a5,a5,0x2
200003f4:	00f687b3          	add	a5,a3,a5
200003f8:	0007a783          	lw	a5,0(a5)
200003fc:	00078613          	mv	a2,a5
20000400:	200057b7          	lui	a5,0x20005
20000404:	64478693          	addi	a3,a5,1604 # 20005644 <worm>
20000408:	f4842703          	lw	a4,-184(s0)
2000040c:	00070793          	mv	a5,a4
20000410:	00179793          	slli	a5,a5,0x1
20000414:	00e787b3          	add	a5,a5,a4
20000418:	00279793          	slli	a5,a5,0x2
2000041c:	00f687b3          	add	a5,a3,a5
20000420:	0007a783          	lw	a5,0(a5)
20000424:	00078693          	mv	a3,a5
20000428:	00100793          	li	a5,1
2000042c:	00010737          	lui	a4,0x10
20000430:	fff70713          	addi	a4,a4,-1 # ffff <_start-0x1fff0001>
20000434:	000800e7          	jalr	a6
    for (int i = 1; i < wormLength; i++) {
20000438:	f4842783          	lw	a5,-184(s0)
2000043c:	00178793          	addi	a5,a5,1
20000440:	f4f42423          	sw	a5,-184(s0)
20000444:	200067b7          	lui	a5,0x20006
20000448:	9407a783          	lw	a5,-1728(a5) # 20005940 <wormLength>
2000044c:	f4842703          	lw	a4,-184(s0)
20000450:	e4f740e3          	blt	a4,a5,20000290 <systick_handler+0x25c>
    }
    if (worm[0].position.x == applePos.x && worm[0].position.y == applePos.y) {
20000454:	200057b7          	lui	a5,0x20005
20000458:	64478793          	addi	a5,a5,1604 # 20005644 <worm>
2000045c:	00479703          	lh	a4,4(a5)
20000460:	200067b7          	lui	a5,0x20006
20000464:	f5479783          	lh	a5,-172(a5) # 20005f54 <applePos>
20000468:	0cf71a63          	bne	a4,a5,2000053c <systick_handler+0x508>
2000046c:	200057b7          	lui	a5,0x20005
20000470:	64478793          	addi	a5,a5,1604 # 20005644 <worm>
20000474:	00679703          	lh	a4,6(a5)
20000478:	200067b7          	lui	a5,0x20006
2000047c:	f5478793          	addi	a5,a5,-172 # 20005f54 <applePos>
20000480:	00279783          	lh	a5,2(a5)
20000484:	0af71c63          	bne	a4,a5,2000053c <systick_handler+0x508>
        spawnNewApple = 1;
20000488:	200067b7          	lui	a5,0x20006
2000048c:	00100713          	li	a4,1
20000490:	f4e788a3          	sb	a4,-175(a5) # 20005f51 <spawnNewApple>
        Square newSegment;
        newSegment.position = prev_positions[wormLength - 1];
20000494:	200067b7          	lui	a5,0x20006
20000498:	9407a783          	lw	a5,-1728(a5) # 20005940 <wormLength>
2000049c:	fff78713          	addi	a4,a5,-1
200004a0:	e7c40793          	addi	a5,s0,-388
200004a4:	00271713          	slli	a4,a4,0x2
200004a8:	00f707b3          	add	a5,a4,a5
200004ac:	0007a783          	lw	a5,0(a5)
200004b0:	e6f42a23          	sw	a5,-396(s0)
        newSegment.speed = worm[wormLength - 1].speed;
200004b4:	200067b7          	lui	a5,0x20006
200004b8:	9407a783          	lw	a5,-1728(a5) # 20005940 <wormLength>
200004bc:	fff78713          	addi	a4,a5,-1
200004c0:	200057b7          	lui	a5,0x20005
200004c4:	64478693          	addi	a3,a5,1604 # 20005644 <worm>
200004c8:	00070793          	mv	a5,a4
200004cc:	00179793          	slli	a5,a5,0x1
200004d0:	00e787b3          	add	a5,a5,a4
200004d4:	00279793          	slli	a5,a5,0x2
200004d8:	00f687b3          	add	a5,a3,a5
200004dc:	0087a783          	lw	a5,8(a5)
200004e0:	e6f42c23          	sw	a5,-392(s0)
        newSegment.size = 20;
200004e4:	01400793          	li	a5,20
200004e8:	e6f42823          	sw	a5,-400(s0)

        worm[wormLength] = newSegment;
200004ec:	200067b7          	lui	a5,0x20006
200004f0:	9407a703          	lw	a4,-1728(a5) # 20005940 <wormLength>
200004f4:	200057b7          	lui	a5,0x20005
200004f8:	64478693          	addi	a3,a5,1604 # 20005644 <worm>
200004fc:	00070793          	mv	a5,a4
20000500:	00179793          	slli	a5,a5,0x1
20000504:	00e787b3          	add	a5,a5,a4
20000508:	00279793          	slli	a5,a5,0x2
2000050c:	00f687b3          	add	a5,a3,a5
20000510:	e7042703          	lw	a4,-400(s0)
20000514:	00e7a023          	sw	a4,0(a5)
20000518:	e7442703          	lw	a4,-396(s0)
2000051c:	00e7a223          	sw	a4,4(a5)
20000520:	e7842703          	lw	a4,-392(s0)
20000524:	00e7a423          	sw	a4,8(a5)
        wormLength++;
20000528:	200067b7          	lui	a5,0x20006
2000052c:	9407a783          	lw	a5,-1728(a5) # 20005940 <wormLength>
20000530:	00178713          	addi	a4,a5,1
20000534:	200067b7          	lui	a5,0x20006
20000538:	94e7a023          	sw	a4,-1728(a5) # 20005940 <wormLength>
    }
    for (int n = 1; n < wormLength; n++) {
2000053c:	00100793          	li	a5,1
20000540:	f4f42223          	sw	a5,-188(s0)
20000544:	0a00006f          	j	200005e4 <systick_handler+0x5b0>
        if (worm[0].position.x == worm[n].position.x &&
20000548:	200057b7          	lui	a5,0x20005
2000054c:	64478793          	addi	a5,a5,1604 # 20005644 <worm>
20000550:	00479683          	lh	a3,4(a5)
20000554:	200057b7          	lui	a5,0x20005
20000558:	64478613          	addi	a2,a5,1604 # 20005644 <worm>
2000055c:	f4442703          	lw	a4,-188(s0)
20000560:	00070793          	mv	a5,a4
20000564:	00179793          	slli	a5,a5,0x1
20000568:	00e787b3          	add	a5,a5,a4
2000056c:	00279793          	slli	a5,a5,0x2
20000570:	00f607b3          	add	a5,a2,a5
20000574:	00479783          	lh	a5,4(a5)
20000578:	06f69063          	bne	a3,a5,200005d8 <systick_handler+0x5a4>
            worm[0].position.y == worm[n].position.y) {
2000057c:	200057b7          	lui	a5,0x20005
20000580:	64478793          	addi	a5,a5,1604 # 20005644 <worm>
20000584:	00679683          	lh	a3,6(a5)
20000588:	200057b7          	lui	a5,0x20005
2000058c:	64478613          	addi	a2,a5,1604 # 20005644 <worm>
20000590:	f4442703          	lw	a4,-188(s0)
20000594:	00070793          	mv	a5,a4
20000598:	00179793          	slli	a5,a5,0x1
2000059c:	00e787b3          	add	a5,a5,a4
200005a0:	00279793          	slli	a5,a5,0x2
200005a4:	00f607b3          	add	a5,a2,a5
200005a8:	00679783          	lh	a5,6(a5)
        if (worm[0].position.x == worm[n].position.x &&
200005ac:	02f69663          	bne	a3,a5,200005d8 <systick_handler+0x5a4>
            printf("You lose! Score : %d \n", wormLength - 2);
200005b0:	200067b7          	lui	a5,0x20006
200005b4:	9407a783          	lw	a5,-1728(a5) # 20005940 <wormLength>
200005b8:	ffe78793          	addi	a5,a5,-2
200005bc:	00078593          	mv	a1,a5
200005c0:	200057b7          	lui	a5,0x20005
200005c4:	1a078513          	addi	a0,a5,416 # 200051a0 <_malloc_usable_size_r+0x1c>
200005c8:	474020ef          	jal	20002a3c <iprintf>
            lost = 1;
200005cc:	200067b7          	lui	a5,0x20006
200005d0:	00100713          	li	a4,1
200005d4:	f4e78c23          	sb	a4,-168(a5) # 20005f58 <lost>
    for (int n = 1; n < wormLength; n++) {
200005d8:	f4442783          	lw	a5,-188(s0)
200005dc:	00178793          	addi	a5,a5,1
200005e0:	f4f42223          	sw	a5,-188(s0)
200005e4:	200067b7          	lui	a5,0x20006
200005e8:	9407a783          	lw	a5,-1728(a5) # 20005940 <wormLength>
200005ec:	f4442703          	lw	a4,-188(s0)
200005f0:	f4f74ce3          	blt	a4,a5,20000548 <systick_handler+0x514>
        }
    }
    if (worm[0].position.x > 480 || worm[0].position.x < 0 || worm[0].position.y > 320 || worm[0].position.y < 0) {
200005f4:	200057b7          	lui	a5,0x20005
200005f8:	64478793          	addi	a5,a5,1604 # 20005644 <worm>
200005fc:	00479703          	lh	a4,4(a5)
20000600:	1e000793          	li	a5,480
20000604:	02e7cc63          	blt	a5,a4,2000063c <systick_handler+0x608>
20000608:	200057b7          	lui	a5,0x20005
2000060c:	64478793          	addi	a5,a5,1604 # 20005644 <worm>
20000610:	00479783          	lh	a5,4(a5)
20000614:	0207c463          	bltz	a5,2000063c <systick_handler+0x608>
20000618:	200057b7          	lui	a5,0x20005
2000061c:	64478793          	addi	a5,a5,1604 # 20005644 <worm>
20000620:	00679703          	lh	a4,6(a5)
20000624:	14000793          	li	a5,320
20000628:	00e7ca63          	blt	a5,a4,2000063c <systick_handler+0x608>
2000062c:	200057b7          	lui	a5,0x20005
20000630:	64478793          	addi	a5,a5,1604 # 20005644 <worm>
20000634:	00679783          	lh	a5,6(a5)
20000638:	0207d663          	bgez	a5,20000664 <systick_handler+0x630>
        printf("You lose! Score : %d \n", wormLength - 2);
2000063c:	200067b7          	lui	a5,0x20006
20000640:	9407a783          	lw	a5,-1728(a5) # 20005940 <wormLength>
20000644:	ffe78793          	addi	a5,a5,-2
20000648:	00078593          	mv	a1,a5
2000064c:	200057b7          	lui	a5,0x20005
20000650:	1a078513          	addi	a0,a5,416 # 200051a0 <_malloc_usable_size_r+0x1c>
20000654:	3e8020ef          	jal	20002a3c <iprintf>
        lost = 1;
20000658:	200067b7          	lui	a5,0x20006
2000065c:	00100713          	li	a4,1
20000660:	f4e78c23          	sb	a4,-168(a5) # 20005f58 <lost>
    }
    STK->SR = 1;
20000664:	e000f7b7          	lui	a5,0xe000f
20000668:	00100713          	li	a4,1
2000066c:	00e7a223          	sw	a4,4(a5) # e000f004 <__stack_top+0xc0008498>

}
20000670:	00000013          	nop
20000674:	18c12083          	lw	ra,396(sp)
20000678:	18412283          	lw	t0,388(sp)
2000067c:	00329073          	fscsr	t0
20000680:	18812283          	lw	t0,392(sp)
20000684:	18012303          	lw	t1,384(sp)
20000688:	17c12383          	lw	t2,380(sp)
2000068c:	17812403          	lw	s0,376(sp)
20000690:	17412503          	lw	a0,372(sp)
20000694:	17012583          	lw	a1,368(sp)
20000698:	16c12603          	lw	a2,364(sp)
2000069c:	16812683          	lw	a3,360(sp)
200006a0:	16412703          	lw	a4,356(sp)
200006a4:	16012783          	lw	a5,352(sp)
200006a8:	15c12803          	lw	a6,348(sp)
200006ac:	15812883          	lw	a7,344(sp)
200006b0:	15412e03          	lw	t3,340(sp)
200006b4:	15012e83          	lw	t4,336(sp)
200006b8:	14c12f03          	lw	t5,332(sp)
200006bc:	14812f83          	lw	t6,328(sp)
200006c0:	12c12007          	flw	ft0,300(sp)
200006c4:	12812087          	flw	ft1,296(sp)
200006c8:	12412107          	flw	ft2,292(sp)
200006cc:	12012187          	flw	ft3,288(sp)
200006d0:	11c12207          	flw	ft4,284(sp)
200006d4:	11812287          	flw	ft5,280(sp)
200006d8:	11412307          	flw	ft6,276(sp)
200006dc:	11012387          	flw	ft7,272(sp)
200006e0:	10c12507          	flw	fa0,268(sp)
200006e4:	10812587          	flw	fa1,264(sp)
200006e8:	10412607          	flw	fa2,260(sp)
200006ec:	10012687          	flw	fa3,256(sp)
200006f0:	0fc12707          	flw	fa4,252(sp)
200006f4:	0f812787          	flw	fa5,248(sp)
200006f8:	0f412807          	flw	fa6,244(sp)
200006fc:	0f012887          	flw	fa7,240(sp)
20000700:	0ec12e07          	flw	ft8,236(sp)
20000704:	0e812e87          	flw	ft9,232(sp)
20000708:	0e412f07          	flw	ft10,228(sp)
2000070c:	0e012f87          	flw	ft11,224(sp)
20000710:	19010113          	addi	sp,sp,400
20000714:	30200073          	mret

20000718 <exti_handler>:

__attribute__((interrupt("machine")))
void exti_handler() {
20000718:	fe010113          	addi	sp,sp,-32
2000071c:	00112e23          	sw	ra,28(sp)
20000720:	00512c23          	sw	t0,24(sp)
20000724:	00812a23          	sw	s0,20(sp)
20000728:	00e12823          	sw	a4,16(sp)
2000072c:	00f12623          	sw	a5,12(sp)
20000730:	02010413          	addi	s0,sp,32
    //WASD-esque layout for comfortable inputs
    if (input == 1) {
20000734:	200067b7          	lui	a5,0x20006
20000738:	f507c703          	lbu	a4,-176(a5) # 20005f50 <input>
2000073c:	00100793          	li	a5,1
20000740:	02f71263          	bne	a4,a5,20000764 <exti_handler+0x4c>
        //up
        worm[0].speed.y = -20;
20000744:	200057b7          	lui	a5,0x20005
20000748:	64478793          	addi	a5,a5,1604 # 20005644 <worm>
2000074c:	fec00713          	li	a4,-20
20000750:	00e79523          	sh	a4,10(a5)
        worm[0].speed.x = 0;
20000754:	200057b7          	lui	a5,0x20005
20000758:	64478793          	addi	a5,a5,1604 # 20005644 <worm>
2000075c:	00079423          	sh	zero,8(a5)
20000760:	0900006f          	j	200007f0 <exti_handler+0xd8>
    }
    else if (input == 4) {
20000764:	200067b7          	lui	a5,0x20006
20000768:	f507c703          	lbu	a4,-176(a5) # 20005f50 <input>
2000076c:	00400793          	li	a5,4
20000770:	02f71263          	bne	a4,a5,20000794 <exti_handler+0x7c>
        //left
        worm[0].speed.x = -20;
20000774:	200057b7          	lui	a5,0x20005
20000778:	64478793          	addi	a5,a5,1604 # 20005644 <worm>
2000077c:	fec00713          	li	a4,-20
20000780:	00e79423          	sh	a4,8(a5)
        worm[0].speed.y = 0;
20000784:	200057b7          	lui	a5,0x20005
20000788:	64478793          	addi	a5,a5,1604 # 20005644 <worm>
2000078c:	00079523          	sh	zero,10(a5)
20000790:	0600006f          	j	200007f0 <exti_handler+0xd8>
    }
    else if (input == 5) {
20000794:	200067b7          	lui	a5,0x20006
20000798:	f507c703          	lbu	a4,-176(a5) # 20005f50 <input>
2000079c:	00500793          	li	a5,5
200007a0:	02f71263          	bne	a4,a5,200007c4 <exti_handler+0xac>
        //down
        worm[0].speed.y = 20;
200007a4:	200057b7          	lui	a5,0x20005
200007a8:	64478793          	addi	a5,a5,1604 # 20005644 <worm>
200007ac:	01400713          	li	a4,20
200007b0:	00e79523          	sh	a4,10(a5)
        worm[0].speed.x = 0;
200007b4:	200057b7          	lui	a5,0x20005
200007b8:	64478793          	addi	a5,a5,1604 # 20005644 <worm>
200007bc:	00079423          	sh	zero,8(a5)
200007c0:	0300006f          	j	200007f0 <exti_handler+0xd8>
    }
    else if (input == 6) {
200007c4:	200067b7          	lui	a5,0x20006
200007c8:	f507c703          	lbu	a4,-176(a5) # 20005f50 <input>
200007cc:	00600793          	li	a5,6
200007d0:	04f71c63          	bne	a4,a5,20000828 <exti_handler+0x110>
        //right
        worm[0].speed.x = 20;
200007d4:	200057b7          	lui	a5,0x20005
200007d8:	64478793          	addi	a5,a5,1604 # 20005644 <worm>
200007dc:	01400713          	li	a4,20
200007e0:	00e79423          	sh	a4,8(a5)
        worm[0].speed.y = 0;
200007e4:	200057b7          	lui	a5,0x20005
200007e8:	64478793          	addi	a5,a5,1604 # 20005644 <worm>
200007ec:	00079523          	sh	zero,10(a5)
    }
    else {
        return;
    }
    num_points += 1;
200007f0:	200067b7          	lui	a5,0x20006
200007f4:	f4c7a783          	lw	a5,-180(a5) # 20005f4c <num_points>
200007f8:	00178713          	addi	a4,a5,1
200007fc:	200067b7          	lui	a5,0x20006
20000800:	f4e7a623          	sw	a4,-180(a5) # 20005f4c <num_points>
    *EXTI_INTFR = (1<<(input%4));
20000804:	200067b7          	lui	a5,0x20006
20000808:	f507c783          	lbu	a5,-176(a5) # 20005f50 <input>
2000080c:	0037f793          	andi	a5,a5,3
20000810:	00100713          	li	a4,1
20000814:	00f71733          	sll	a4,a4,a5
20000818:	400107b7          	lui	a5,0x40010
2000081c:	41478793          	addi	a5,a5,1044 # 40010414 <__stack_top+0x200098a8>
20000820:	00e7a023          	sw	a4,0(a5)
20000824:	0080006f          	j	2000082c <exti_handler+0x114>
        return;
20000828:	00000013          	nop
}
2000082c:	01c12083          	lw	ra,28(sp)
20000830:	01812283          	lw	t0,24(sp)
20000834:	01412403          	lw	s0,20(sp)
20000838:	01012703          	lw	a4,16(sp)
2000083c:	00c12783          	lw	a5,12(sp)
20000840:	02010113          	addi	sp,sp,32
20000844:	30200073          	mret

20000848 <main>:

int main(void)
{
20000848:	fe010113          	addi	sp,sp,-32
2000084c:	00112e23          	sw	ra,28(sp)
20000850:	00812c23          	sw	s0,24(sp)
20000854:	02010413          	addi	s0,sp,32
    init_systick();
20000858:	3c4000ef          	jal	20000c1c <init_systick>
    init_keyboard();
2000085c:	7b8000ef          	jal	20001014 <init_keyboard>
    init_vector_table();
20000860:	2f1000ef          	jal	20001350 <init_vector_table>
    init_interrupts();
20000864:	171000ef          	jal	200011d4 <init_interrupts>
    tft_init();
20000868:	305000ef          	jal	2000136c <tft_init>
    tft_rect(0, 0, 479, 319, COLOR_BLACK, 1);
2000086c:	200067b7          	lui	a5,0x20006
20000870:	8b87a803          	lw	a6,-1864(a5) # 200058b8 <tft_rect>
20000874:	00100793          	li	a5,1
20000878:	00000713          	li	a4,0
2000087c:	13f00693          	li	a3,319
20000880:	1df00613          	li	a2,479
20000884:	00000593          	li	a1,0
20000888:	00000513          	li	a0,0
2000088c:	000800e7          	jalr	a6
    *EXTI_INTFR = 0b1111;
20000890:	400107b7          	lui	a5,0x40010
20000894:	41478793          	addi	a5,a5,1044 # 40010414 <__stack_top+0x200098a8>
20000898:	00f00713          	li	a4,15
2000089c:	00e7a023          	sw	a4,0(a5)
    uint8_t deleted = 0;
200008a0:	fe0407a3          	sb	zero,-17(s0)
    applePos.x = (rand() % 24)*20;
200008a4:	078020ef          	jal	2000291c <rand>
200008a8:	00050713          	mv	a4,a0
200008ac:	2aaab7b7          	lui	a5,0x2aaab
200008b0:	aab78793          	addi	a5,a5,-1365 # 2aaaaaab <__stack_top+0xaaa3f3f>
200008b4:	02f717b3          	mulh	a5,a4,a5
200008b8:	4027d693          	srai	a3,a5,0x2
200008bc:	41f75793          	srai	a5,a4,0x1f
200008c0:	40f686b3          	sub	a3,a3,a5
200008c4:	00068793          	mv	a5,a3
200008c8:	00179793          	slli	a5,a5,0x1
200008cc:	00d787b3          	add	a5,a5,a3
200008d0:	00379793          	slli	a5,a5,0x3
200008d4:	40f706b3          	sub	a3,a4,a5
200008d8:	01069793          	slli	a5,a3,0x10
200008dc:	0107d793          	srli	a5,a5,0x10
200008e0:	00078713          	mv	a4,a5
200008e4:	00070793          	mv	a5,a4
200008e8:	00279793          	slli	a5,a5,0x2
200008ec:	00e787b3          	add	a5,a5,a4
200008f0:	00279793          	slli	a5,a5,0x2
200008f4:	01079793          	slli	a5,a5,0x10
200008f8:	0107d793          	srli	a5,a5,0x10
200008fc:	01079713          	slli	a4,a5,0x10
20000900:	41075713          	srai	a4,a4,0x10
20000904:	200067b7          	lui	a5,0x20006
20000908:	f4e79a23          	sh	a4,-172(a5) # 20005f54 <applePos>
    applePos.y = (rand() % 16)*20;
2000090c:	010020ef          	jal	2000291c <rand>
20000910:	00050713          	mv	a4,a0
20000914:	41f75793          	srai	a5,a4,0x1f
20000918:	01c7d793          	srli	a5,a5,0x1c
2000091c:	00f70733          	add	a4,a4,a5
20000920:	00f77713          	andi	a4,a4,15
20000924:	40f707b3          	sub	a5,a4,a5
20000928:	01079793          	slli	a5,a5,0x10
2000092c:	0107d793          	srli	a5,a5,0x10
20000930:	00078713          	mv	a4,a5
20000934:	00070793          	mv	a5,a4
20000938:	00279793          	slli	a5,a5,0x2
2000093c:	00e787b3          	add	a5,a5,a4
20000940:	00279793          	slli	a5,a5,0x2
20000944:	01079793          	slli	a5,a5,0x10
20000948:	0107d793          	srli	a5,a5,0x10
2000094c:	01079713          	slli	a4,a5,0x10
20000950:	41075713          	srai	a4,a4,0x10
20000954:	200067b7          	lui	a5,0x20006
20000958:	f5478793          	addi	a5,a5,-172 # 20005f54 <applePos>
2000095c:	00e79123          	sh	a4,2(a5)
    tft_rect(applePos.x, applePos.y, 10, 10, COLOR_RED, 1);
20000960:	200067b7          	lui	a5,0x20006
20000964:	8b87a803          	lw	a6,-1864(a5) # 200058b8 <tft_rect>
20000968:	200067b7          	lui	a5,0x20006
2000096c:	f5479783          	lh	a5,-172(a5) # 20005f54 <applePos>
20000970:	00078513          	mv	a0,a5
20000974:	200067b7          	lui	a5,0x20006
20000978:	f5478793          	addi	a5,a5,-172 # 20005f54 <applePos>
2000097c:	00279783          	lh	a5,2(a5)
20000980:	00078593          	mv	a1,a5
20000984:	00100793          	li	a5,1
20000988:	00010737          	lui	a4,0x10
2000098c:	80070713          	addi	a4,a4,-2048 # f800 <_start-0x1fff0800>
20000990:	00a00693          	li	a3,10
20000994:	00a00613          	li	a2,10
20000998:	000800e7          	jalr	a6

    spawnNewApple = 0;
2000099c:	200067b7          	lui	a5,0x20006
200009a0:	f40788a3          	sb	zero,-175(a5) # 20005f51 <spawnNewApple>
    
    
    systick_start();
200009a4:	2cc000ef          	jal	20000c70 <systick_start>
    while(1) {

        if (spawnNewApple) {
200009a8:	200067b7          	lui	a5,0x20006
200009ac:	f517c783          	lbu	a5,-175(a5) # 20005f51 <spawnNewApple>
200009b0:	0ff7f793          	zext.b	a5,a5
200009b4:	10078263          	beqz	a5,20000ab8 <main+0x270>
            applePos.x = (rand() % 24)*20;
200009b8:	765010ef          	jal	2000291c <rand>
200009bc:	00050713          	mv	a4,a0
200009c0:	2aaab7b7          	lui	a5,0x2aaab
200009c4:	aab78793          	addi	a5,a5,-1365 # 2aaaaaab <__stack_top+0xaaa3f3f>
200009c8:	02f717b3          	mulh	a5,a4,a5
200009cc:	4027d693          	srai	a3,a5,0x2
200009d0:	41f75793          	srai	a5,a4,0x1f
200009d4:	40f686b3          	sub	a3,a3,a5
200009d8:	00068793          	mv	a5,a3
200009dc:	00179793          	slli	a5,a5,0x1
200009e0:	00d787b3          	add	a5,a5,a3
200009e4:	00379793          	slli	a5,a5,0x3
200009e8:	40f706b3          	sub	a3,a4,a5
200009ec:	01069793          	slli	a5,a3,0x10
200009f0:	0107d793          	srli	a5,a5,0x10
200009f4:	00078713          	mv	a4,a5
200009f8:	00070793          	mv	a5,a4
200009fc:	00279793          	slli	a5,a5,0x2
20000a00:	00e787b3          	add	a5,a5,a4
20000a04:	00279793          	slli	a5,a5,0x2
20000a08:	01079793          	slli	a5,a5,0x10
20000a0c:	0107d793          	srli	a5,a5,0x10
20000a10:	01079713          	slli	a4,a5,0x10
20000a14:	41075713          	srai	a4,a4,0x10
20000a18:	200067b7          	lui	a5,0x20006
20000a1c:	f4e79a23          	sh	a4,-172(a5) # 20005f54 <applePos>
            applePos.y = (rand() % 16)*20;
20000a20:	6fd010ef          	jal	2000291c <rand>
20000a24:	00050713          	mv	a4,a0
20000a28:	41f75793          	srai	a5,a4,0x1f
20000a2c:	01c7d793          	srli	a5,a5,0x1c
20000a30:	00f70733          	add	a4,a4,a5
20000a34:	00f77713          	andi	a4,a4,15
20000a38:	40f707b3          	sub	a5,a4,a5
20000a3c:	01079793          	slli	a5,a5,0x10
20000a40:	0107d793          	srli	a5,a5,0x10
20000a44:	00078713          	mv	a4,a5
20000a48:	00070793          	mv	a5,a4
20000a4c:	00279793          	slli	a5,a5,0x2
20000a50:	00e787b3          	add	a5,a5,a4
20000a54:	00279793          	slli	a5,a5,0x2
20000a58:	01079793          	slli	a5,a5,0x10
20000a5c:	0107d793          	srli	a5,a5,0x10
20000a60:	01079713          	slli	a4,a5,0x10
20000a64:	41075713          	srai	a4,a4,0x10
20000a68:	200067b7          	lui	a5,0x20006
20000a6c:	f5478793          	addi	a5,a5,-172 # 20005f54 <applePos>
20000a70:	00e79123          	sh	a4,2(a5)
            tft_rect(applePos.x, applePos.y, 10, 10, COLOR_RED, 1);
20000a74:	200067b7          	lui	a5,0x20006
20000a78:	8b87a803          	lw	a6,-1864(a5) # 200058b8 <tft_rect>
20000a7c:	200067b7          	lui	a5,0x20006
20000a80:	f5479783          	lh	a5,-172(a5) # 20005f54 <applePos>
20000a84:	00078513          	mv	a0,a5
20000a88:	200067b7          	lui	a5,0x20006
20000a8c:	f5478793          	addi	a5,a5,-172 # 20005f54 <applePos>
20000a90:	00279783          	lh	a5,2(a5)
20000a94:	00078593          	mv	a1,a5
20000a98:	00100793          	li	a5,1
20000a9c:	00010737          	lui	a4,0x10
20000aa0:	80070713          	addi	a4,a4,-2048 # f800 <_start-0x1fff0800>
20000aa4:	00a00693          	li	a3,10
20000aa8:	00a00613          	li	a2,10
20000aac:	000800e7          	jalr	a6
            spawnNewApple = 0;
20000ab0:	200067b7          	lui	a5,0x20006
20000ab4:	f40788a3          	sb	zero,-175(a5) # 20005f51 <spawnNewApple>
        }
        
        if (lost) {
20000ab8:	200067b7          	lui	a5,0x20006
20000abc:	f587c783          	lbu	a5,-168(a5) # 20005f58 <lost>
20000ac0:	0ff7f793          	zext.b	a5,a5
20000ac4:	ee0782e3          	beqz	a5,200009a8 <main+0x160>
            STK -> CTLR &= ~1;
20000ac8:	e000f7b7          	lui	a5,0xe000f
20000acc:	0007a703          	lw	a4,0(a5) # e000f000 <__stack_top+0xc0008494>
20000ad0:	e000f7b7          	lui	a5,0xe000f
20000ad4:	ffe77713          	andi	a4,a4,-2
20000ad8:	00e7a023          	sw	a4,0(a5) # e000f000 <__stack_top+0xc0008494>
            break;
20000adc:	00000013          	nop
20000ae0:	00000793          	li	a5,0
        }


    }

20000ae4:	00078513          	mv	a0,a5
20000ae8:	01c12083          	lw	ra,28(sp)
20000aec:	01812403          	lw	s0,24(sp)
20000af0:	02010113          	addi	sp,sp,32
20000af4:	00008067          	ret

20000af8 <keypad>:
#include "gpio.h"
#include "keypad.h"

uint8_t keypad() {
20000af8:	fe010113          	addi	sp,sp,-32
20000afc:	00112e23          	sw	ra,28(sp)
20000b00:	00812c23          	sw	s0,24(sp)
20000b04:	02010413          	addi	s0,sp,32
  int row;
  int col;
  uint16_t idr;
  // Deactivate all rows
  GPIOD->BSR = 0xF << 4;
20000b08:	400117b7          	lui	a5,0x40011
20000b0c:	40078793          	addi	a5,a5,1024 # 40011400 <__stack_top+0x2000a894>
20000b10:	0f000713          	li	a4,240
20000b14:	00e79823          	sh	a4,16(a5)
  // For each row:
  for (row = 0; row < 4; row++) {
20000b18:	fe042623          	sw	zero,-20(s0)
20000b1c:	0cc0006f          	j	20000be8 <keypad+0xf0>
    // Activate row
    GPIOD->BCR = 1 << (row + 4);
20000b20:	fec42783          	lw	a5,-20(s0)
20000b24:	00478793          	addi	a5,a5,4
20000b28:	00100713          	li	a4,1
20000b2c:	00f71733          	sll	a4,a4,a5
20000b30:	400117b7          	lui	a5,0x40011
20000b34:	40078793          	addi	a5,a5,1024 # 40011400 <__stack_top+0x2000a894>
20000b38:	01071713          	slli	a4,a4,0x10
20000b3c:	01075713          	srli	a4,a4,0x10
20000b40:	00e79a23          	sh	a4,20(a5)
    // pin update speed set to 2 MHz
    // => need to wait for 500 ns before reading columns
    // but can't overwrite systick, so we'll waste time with an empty loop
    for (int i = 0; i < 100; i++) {
20000b44:	fe042223          	sw	zero,-28(s0)
20000b48:	0100006f          	j	20000b58 <keypad+0x60>
20000b4c:	fe442783          	lw	a5,-28(s0)
20000b50:	00178793          	addi	a5,a5,1
20000b54:	fef42223          	sw	a5,-28(s0)
20000b58:	fe442703          	lw	a4,-28(s0)
20000b5c:	06300793          	li	a5,99
20000b60:	fee7d6e3          	bge	a5,a4,20000b4c <keypad+0x54>
    }
    // For each column:
    // if column is active, activate all rows and return key index
    idr = GPIOD->IDR;
20000b64:	400117b7          	lui	a5,0x40011
20000b68:	40078793          	addi	a5,a5,1024 # 40011400 <__stack_top+0x2000a894>
20000b6c:	0087d783          	lhu	a5,8(a5)
20000b70:	fef41123          	sh	a5,-30(s0)
    for (col = 0; col < 4; col++) {
20000b74:	fe042423          	sw	zero,-24(s0)
20000b78:	0580006f          	j	20000bd0 <keypad+0xd8>
      if ((idr & (1 << col)) == 0) {
20000b7c:	fe245703          	lhu	a4,-30(s0)
20000b80:	fe842783          	lw	a5,-24(s0)
20000b84:	40f757b3          	sra	a5,a4,a5
20000b88:	0017f793          	andi	a5,a5,1
20000b8c:	02079c63          	bnez	a5,20000bc4 <keypad+0xcc>
        GPIOD->BCR = 0xF << 4;
20000b90:	400117b7          	lui	a5,0x40011
20000b94:	40078793          	addi	a5,a5,1024 # 40011400 <__stack_top+0x2000a894>
20000b98:	0f000713          	li	a4,240
20000b9c:	00e79a23          	sh	a4,20(a5)
        return 4 * row + col;
20000ba0:	fec42783          	lw	a5,-20(s0)
20000ba4:	0ff7f793          	zext.b	a5,a5
20000ba8:	00279793          	slli	a5,a5,0x2
20000bac:	0ff7f713          	zext.b	a4,a5
20000bb0:	fe842783          	lw	a5,-24(s0)
20000bb4:	0ff7f793          	zext.b	a5,a5
20000bb8:	00f707b3          	add	a5,a4,a5
20000bbc:	0ff7f793          	zext.b	a5,a5
20000bc0:	0480006f          	j	20000c08 <keypad+0x110>
    for (col = 0; col < 4; col++) {
20000bc4:	fe842783          	lw	a5,-24(s0)
20000bc8:	00178793          	addi	a5,a5,1
20000bcc:	fef42423          	sw	a5,-24(s0)
20000bd0:	fe842703          	lw	a4,-24(s0)
20000bd4:	00300793          	li	a5,3
20000bd8:	fae7d2e3          	bge	a5,a4,20000b7c <keypad+0x84>
  for (row = 0; row < 4; row++) {
20000bdc:	fec42783          	lw	a5,-20(s0)
20000be0:	00178793          	addi	a5,a5,1
20000be4:	fef42623          	sw	a5,-20(s0)
20000be8:	fec42703          	lw	a4,-20(s0)
20000bec:	00300793          	li	a5,3
20000bf0:	f2e7d8e3          	bge	a5,a4,20000b20 <keypad+0x28>
      }
    }
  }
  // No key pressed. Activate all rows and return error code
  GPIOD->BCR = 0xF << 4;
20000bf4:	400117b7          	lui	a5,0x40011
20000bf8:	40078793          	addi	a5,a5,1024 # 40011400 <__stack_top+0x2000a894>
20000bfc:	0f000713          	li	a4,240
20000c00:	00e79a23          	sh	a4,20(a5)
  return 0xFF;
20000c04:	0ff00793          	li	a5,255
}
20000c08:	00078513          	mv	a0,a5
20000c0c:	01c12083          	lw	ra,28(sp)
20000c10:	01812403          	lw	s0,24(sp)
20000c14:	02010113          	addi	sp,sp,32
20000c18:	00008067          	ret

20000c1c <init_systick>:
#include <stdlib.h>
#include "systick.h"



void init_systick() {
20000c1c:	ff010113          	addi	sp,sp,-16
20000c20:	00112623          	sw	ra,12(sp)
20000c24:	00812423          	sw	s0,8(sp)
20000c28:	01010413          	addi	s0,sp,16
    STK->SR = 1;
20000c2c:	e000f7b7          	lui	a5,0xe000f
20000c30:	00100713          	li	a4,1
20000c34:	00e7a223          	sw	a4,4(a5) # e000f004 <__stack_top+0xc0008498>
    STK->CMPLR = 144000000/3;
20000c38:	e000f7b7          	lui	a5,0xe000f
20000c3c:	02dc7737          	lui	a4,0x2dc7
20000c40:	c0070713          	addi	a4,a4,-1024 # 2dc6c00 <_start-0x1d239400>
20000c44:	00e7a823          	sw	a4,16(a5) # e000f010 <__stack_top+0xc00084a4>
    STK->CMPHR = 0;
20000c48:	e000f7b7          	lui	a5,0xe000f
20000c4c:	0007aa23          	sw	zero,20(a5) # e000f014 <__stack_top+0xc00084a8>
    STK->CTLR = 0b101110;
20000c50:	e000f7b7          	lui	a5,0xe000f
20000c54:	02e00713          	li	a4,46
20000c58:	00e7a023          	sw	a4,0(a5) # e000f000 <__stack_top+0xc0008494>

}
20000c5c:	00000013          	nop
20000c60:	00c12083          	lw	ra,12(sp)
20000c64:	00812403          	lw	s0,8(sp)
20000c68:	01010113          	addi	sp,sp,16
20000c6c:	00008067          	ret

20000c70 <systick_start>:

void systick_start() {
20000c70:	ff010113          	addi	sp,sp,-16
20000c74:	00112623          	sw	ra,12(sp)
20000c78:	00812423          	sw	s0,8(sp)
20000c7c:	01010413          	addi	s0,sp,16
    STK->CTLR |= 1;
20000c80:	e000f7b7          	lui	a5,0xe000f
20000c84:	0007a703          	lw	a4,0(a5) # e000f000 <__stack_top+0xc0008494>
20000c88:	e000f7b7          	lui	a5,0xe000f
20000c8c:	00176713          	ori	a4,a4,1
20000c90:	00e7a023          	sw	a4,0(a5) # e000f000 <__stack_top+0xc0008494>
20000c94:	00000013          	nop
20000c98:	00c12083          	lw	ra,12(sp)
20000c9c:	00812403          	lw	s0,8(sp)
20000ca0:	01010113          	addi	sp,sp,16
20000ca4:	00008067          	ret

20000ca8 <assignment_1>:
///////////////////////////////////////////////////////////////////////////////

// TODO: Macro definitions here

void assignment_1(void)
{
20000ca8:	ff010113          	addi	sp,sp,-16
20000cac:	00112623          	sw	ra,12(sp)
20000cb0:	00812423          	sw	s0,8(sp)
20000cb4:	01010413          	addi	s0,sp,16
    *GPIO_D_CFGHR &= ~(0xF000);
20000cb8:	400117b7          	lui	a5,0x40011
20000cbc:	40478793          	addi	a5,a5,1028 # 40011404 <__stack_top+0x2000a898>
20000cc0:	0007a683          	lw	a3,0(a5)
20000cc4:	400117b7          	lui	a5,0x40011
20000cc8:	40478793          	addi	a5,a5,1028 # 40011404 <__stack_top+0x2000a898>
20000ccc:	ffff1737          	lui	a4,0xffff1
20000cd0:	fff70713          	addi	a4,a4,-1 # ffff0fff <__stack_top+0xdffea493>
20000cd4:	00e6f733          	and	a4,a3,a4
20000cd8:	00e7a023          	sw	a4,0(a5)
    *GPIO_D_CFGHR |= (0x8000);
20000cdc:	400117b7          	lui	a5,0x40011
20000ce0:	40478793          	addi	a5,a5,1028 # 40011404 <__stack_top+0x2000a898>
20000ce4:	0007a683          	lw	a3,0(a5)
20000ce8:	400117b7          	lui	a5,0x40011
20000cec:	40478793          	addi	a5,a5,1028 # 40011404 <__stack_top+0x2000a898>
20000cf0:	00008737          	lui	a4,0x8
20000cf4:	00e6e733          	or	a4,a3,a4
20000cf8:	00e7a023          	sw	a4,0(a5)
    *GPIO_D_OUTDR &= ~(1<<11);
20000cfc:	400117b7          	lui	a5,0x40011
20000d00:	40c78793          	addi	a5,a5,1036 # 4001140c <__stack_top+0x2000a8a0>
20000d04:	0007a683          	lw	a3,0(a5)
20000d08:	400117b7          	lui	a5,0x40011
20000d0c:	40c78793          	addi	a5,a5,1036 # 4001140c <__stack_top+0x2000a8a0>
20000d10:	fffff737          	lui	a4,0xfffff
20000d14:	7ff70713          	addi	a4,a4,2047 # fffff7ff <__stack_top+0xdfff8c93>
20000d18:	00e6f733          	and	a4,a3,a4
20000d1c:	00e7a023          	sw	a4,0(a5)
}
20000d20:	00000013          	nop
20000d24:	00c12083          	lw	ra,12(sp)
20000d28:	00812403          	lw	s0,8(sp)
20000d2c:	01010113          	addi	sp,sp,16
20000d30:	00008067          	ret

20000d34 <gpio_d_set_pin_input>:

void gpio_d_set_pin_input( 
    int pin,    // The pin to configure (0-15)
    int mode    // 0 = PULLDOWN, 1 = PULLUP, 2 = FLOATING 
    )
{   
20000d34:	fd010113          	addi	sp,sp,-48
20000d38:	02112623          	sw	ra,44(sp)
20000d3c:	02812423          	sw	s0,40(sp)
20000d40:	03010413          	addi	s0,sp,48
20000d44:	fca42e23          	sw	a0,-36(s0)
20000d48:	fcb42c23          	sw	a1,-40(s0)
    int altpin;
    volatile uint32_t * cfg;
    if (pin>=8) {
20000d4c:	fdc42703          	lw	a4,-36(s0)
20000d50:	00700793          	li	a5,7
20000d54:	02e7d063          	bge	a5,a4,20000d74 <gpio_d_set_pin_input+0x40>
        altpin = pin - 8;
20000d58:	fdc42783          	lw	a5,-36(s0)
20000d5c:	ff878793          	addi	a5,a5,-8
20000d60:	fef42623          	sw	a5,-20(s0)
        cfg = GPIO_D_CFGHR;
20000d64:	400117b7          	lui	a5,0x40011
20000d68:	40478793          	addi	a5,a5,1028 # 40011404 <__stack_top+0x2000a898>
20000d6c:	fef42423          	sw	a5,-24(s0)
20000d70:	0180006f          	j	20000d88 <gpio_d_set_pin_input+0x54>
    }
    else {
        altpin = pin;
20000d74:	fdc42783          	lw	a5,-36(s0)
20000d78:	fef42623          	sw	a5,-20(s0)
        cfg = GPIO_D_CFGLR;
20000d7c:	400117b7          	lui	a5,0x40011
20000d80:	40078793          	addi	a5,a5,1024 # 40011400 <__stack_top+0x2000a894>
20000d84:	fef42423          	sw	a5,-24(s0)
    }
    *cfg &= ~(0xF << (altpin*4));
20000d88:	fe842783          	lw	a5,-24(s0)
20000d8c:	0007a783          	lw	a5,0(a5)
20000d90:	fec42703          	lw	a4,-20(s0)
20000d94:	00271713          	slli	a4,a4,0x2
20000d98:	00f00693          	li	a3,15
20000d9c:	00e69733          	sll	a4,a3,a4
20000da0:	fff74713          	not	a4,a4
20000da4:	00e7f733          	and	a4,a5,a4
20000da8:	fe842783          	lw	a5,-24(s0)
20000dac:	00e7a023          	sw	a4,0(a5)
    if (mode == 2) {
20000db0:	fd842703          	lw	a4,-40(s0)
20000db4:	00200793          	li	a5,2
20000db8:	02f71663          	bne	a4,a5,20000de4 <gpio_d_set_pin_input+0xb0>
        *cfg |= (0x4 << (altpin * 4));
20000dbc:	fe842783          	lw	a5,-24(s0)
20000dc0:	0007a783          	lw	a5,0(a5)
20000dc4:	fec42703          	lw	a4,-20(s0)
20000dc8:	00271713          	slli	a4,a4,0x2
20000dcc:	00400693          	li	a3,4
20000dd0:	00e69733          	sll	a4,a3,a4
20000dd4:	00e7e733          	or	a4,a5,a4
20000dd8:	fe842783          	lw	a5,-24(s0)
20000ddc:	00e7a023          	sw	a4,0(a5)
        else {
            *GPIO_D_OUTDR |= (1<<pin);
        }

    }
}
20000de0:	0900006f          	j	20000e70 <gpio_d_set_pin_input+0x13c>
        *cfg |= (0x8 << (altpin * 4));
20000de4:	fe842783          	lw	a5,-24(s0)
20000de8:	0007a783          	lw	a5,0(a5)
20000dec:	fec42703          	lw	a4,-20(s0)
20000df0:	00271713          	slli	a4,a4,0x2
20000df4:	00800693          	li	a3,8
20000df8:	00e69733          	sll	a4,a3,a4
20000dfc:	00e7e733          	or	a4,a5,a4
20000e00:	fe842783          	lw	a5,-24(s0)
20000e04:	00e7a023          	sw	a4,0(a5)
        if (mode == 0) {
20000e08:	fd842783          	lw	a5,-40(s0)
20000e0c:	02079c63          	bnez	a5,20000e44 <gpio_d_set_pin_input+0x110>
            *GPIO_D_OUTDR &= ~(1<<pin);
20000e10:	400117b7          	lui	a5,0x40011
20000e14:	40c78793          	addi	a5,a5,1036 # 4001140c <__stack_top+0x2000a8a0>
20000e18:	0007a703          	lw	a4,0(a5)
20000e1c:	fdc42783          	lw	a5,-36(s0)
20000e20:	00100693          	li	a3,1
20000e24:	00f697b3          	sll	a5,a3,a5
20000e28:	fff7c793          	not	a5,a5
20000e2c:	00078693          	mv	a3,a5
20000e30:	400117b7          	lui	a5,0x40011
20000e34:	40c78793          	addi	a5,a5,1036 # 4001140c <__stack_top+0x2000a8a0>
20000e38:	00d77733          	and	a4,a4,a3
20000e3c:	00e7a023          	sw	a4,0(a5)
}
20000e40:	0300006f          	j	20000e70 <gpio_d_set_pin_input+0x13c>
            *GPIO_D_OUTDR |= (1<<pin);
20000e44:	400117b7          	lui	a5,0x40011
20000e48:	40c78793          	addi	a5,a5,1036 # 4001140c <__stack_top+0x2000a8a0>
20000e4c:	0007a703          	lw	a4,0(a5)
20000e50:	fdc42783          	lw	a5,-36(s0)
20000e54:	00100693          	li	a3,1
20000e58:	00f697b3          	sll	a5,a3,a5
20000e5c:	00078693          	mv	a3,a5
20000e60:	400117b7          	lui	a5,0x40011
20000e64:	40c78793          	addi	a5,a5,1036 # 4001140c <__stack_top+0x2000a8a0>
20000e68:	00d76733          	or	a4,a4,a3
20000e6c:	00e7a023          	sw	a4,0(a5)
}
20000e70:	00000013          	nop
20000e74:	02c12083          	lw	ra,44(sp)
20000e78:	02812403          	lw	s0,40(sp)
20000e7c:	03010113          	addi	sp,sp,48
20000e80:	00008067          	ret

20000e84 <gpio_d_set_pin_output>:
///////////////////////////////////////////////////////////////////////////////
void gpio_d_set_pin_output( 
    int pin,    // The pin to configure
    int mode    // 0 = PUSHPULL, 1 = OPENDRAIN
    )
{
20000e84:	fd010113          	addi	sp,sp,-48
20000e88:	02112623          	sw	ra,44(sp)
20000e8c:	02812423          	sw	s0,40(sp)
20000e90:	03010413          	addi	s0,sp,48
20000e94:	fca42e23          	sw	a0,-36(s0)
20000e98:	fcb42c23          	sw	a1,-40(s0)
    int altpin;
    volatile uint32_t * cfg;
    if (pin>=8) {
20000e9c:	fdc42703          	lw	a4,-36(s0)
20000ea0:	00700793          	li	a5,7
20000ea4:	02e7d063          	bge	a5,a4,20000ec4 <gpio_d_set_pin_output+0x40>
        altpin = pin - 8;
20000ea8:	fdc42783          	lw	a5,-36(s0)
20000eac:	ff878793          	addi	a5,a5,-8
20000eb0:	fef42623          	sw	a5,-20(s0)
        cfg = GPIO_D_CFGHR;
20000eb4:	400117b7          	lui	a5,0x40011
20000eb8:	40478793          	addi	a5,a5,1028 # 40011404 <__stack_top+0x2000a898>
20000ebc:	fef42423          	sw	a5,-24(s0)
20000ec0:	0180006f          	j	20000ed8 <gpio_d_set_pin_output+0x54>
    }
    else {
        altpin = pin;
20000ec4:	fdc42783          	lw	a5,-36(s0)
20000ec8:	fef42623          	sw	a5,-20(s0)
        cfg = GPIO_D_CFGLR;
20000ecc:	400117b7          	lui	a5,0x40011
20000ed0:	40078793          	addi	a5,a5,1024 # 40011400 <__stack_top+0x2000a894>
20000ed4:	fef42423          	sw	a5,-24(s0)
    }
    *cfg &= ~(0xF << (altpin*4));
20000ed8:	fe842783          	lw	a5,-24(s0)
20000edc:	0007a783          	lw	a5,0(a5)
20000ee0:	fec42703          	lw	a4,-20(s0)
20000ee4:	00271713          	slli	a4,a4,0x2
20000ee8:	00f00693          	li	a3,15
20000eec:	00e69733          	sll	a4,a3,a4
20000ef0:	fff74713          	not	a4,a4
20000ef4:	00e7f733          	and	a4,a5,a4
20000ef8:	fe842783          	lw	a5,-24(s0)
20000efc:	00e7a023          	sw	a4,0(a5)
    if (mode == 0) {
20000f00:	fd842783          	lw	a5,-40(s0)
20000f04:	02079663          	bnez	a5,20000f30 <gpio_d_set_pin_output+0xac>
        *cfg |= (0x2 << (altpin * 4));
20000f08:	fe842783          	lw	a5,-24(s0)
20000f0c:	0007a783          	lw	a5,0(a5)
20000f10:	fec42703          	lw	a4,-20(s0)
20000f14:	00271713          	slli	a4,a4,0x2
20000f18:	00200693          	li	a3,2
20000f1c:	00e69733          	sll	a4,a3,a4
20000f20:	00e7e733          	or	a4,a5,a4
20000f24:	fe842783          	lw	a5,-24(s0)
20000f28:	00e7a023          	sw	a4,0(a5)
    }
    else {
        *cfg |= (0x6 << (altpin * 4));
    }
}
20000f2c:	0280006f          	j	20000f54 <gpio_d_set_pin_output+0xd0>
        *cfg |= (0x6 << (altpin * 4));
20000f30:	fe842783          	lw	a5,-24(s0)
20000f34:	0007a783          	lw	a5,0(a5)
20000f38:	fec42703          	lw	a4,-20(s0)
20000f3c:	00271713          	slli	a4,a4,0x2
20000f40:	00600693          	li	a3,6
20000f44:	00e69733          	sll	a4,a3,a4
20000f48:	00e7e733          	or	a4,a5,a4
20000f4c:	fe842783          	lw	a5,-24(s0)
20000f50:	00e7a023          	sw	a4,0(a5)
}
20000f54:	00000013          	nop
20000f58:	02c12083          	lw	ra,44(sp)
20000f5c:	02812403          	lw	s0,40(sp)
20000f60:	03010113          	addi	sp,sp,48
20000f64:	00008067          	ret

20000f68 <gpio_d_set_pin_high>:
//       that means the BSHR register does not work properly. 
//       Use the OUTDR instead, but make sure you do not overwrite
//       any other pin.
///////////////////////////////////////////////////////////////////////////////
void gpio_d_set_pin_high(int pin)
{
20000f68:	fe010113          	addi	sp,sp,-32
20000f6c:	00112e23          	sw	ra,28(sp)
20000f70:	00812c23          	sw	s0,24(sp)
20000f74:	02010413          	addi	s0,sp,32
20000f78:	fea42623          	sw	a0,-20(s0)
    *GPIO_D_OUTDR |= (1<<pin);
20000f7c:	400117b7          	lui	a5,0x40011
20000f80:	40c78793          	addi	a5,a5,1036 # 4001140c <__stack_top+0x2000a8a0>
20000f84:	0007a703          	lw	a4,0(a5)
20000f88:	fec42783          	lw	a5,-20(s0)
20000f8c:	00100693          	li	a3,1
20000f90:	00f697b3          	sll	a5,a3,a5
20000f94:	00078693          	mv	a3,a5
20000f98:	400117b7          	lui	a5,0x40011
20000f9c:	40c78793          	addi	a5,a5,1036 # 4001140c <__stack_top+0x2000a8a0>
20000fa0:	00d76733          	or	a4,a4,a3
20000fa4:	00e7a023          	sw	a4,0(a5)
}
20000fa8:	00000013          	nop
20000fac:	01c12083          	lw	ra,28(sp)
20000fb0:	01812403          	lw	s0,24(sp)
20000fb4:	02010113          	addi	sp,sp,32
20000fb8:	00008067          	ret

20000fbc <gpio_d_set_pin_low>:
//       that means the BSHR register does not work properly. 
//       Use the OUTDR instead, but make sure you do not overwrite
//       any other pin.
///////////////////////////////////////////////////////////////////////////////
void gpio_d_set_pin_low(int pin)
{   
20000fbc:	fe010113          	addi	sp,sp,-32
20000fc0:	00112e23          	sw	ra,28(sp)
20000fc4:	00812c23          	sw	s0,24(sp)
20000fc8:	02010413          	addi	s0,sp,32
20000fcc:	fea42623          	sw	a0,-20(s0)
    *GPIO_D_OUTDR &= ~(1<<pin);  
20000fd0:	400117b7          	lui	a5,0x40011
20000fd4:	40c78793          	addi	a5,a5,1036 # 4001140c <__stack_top+0x2000a8a0>
20000fd8:	0007a703          	lw	a4,0(a5)
20000fdc:	fec42783          	lw	a5,-20(s0)
20000fe0:	00100693          	li	a3,1
20000fe4:	00f697b3          	sll	a5,a3,a5
20000fe8:	fff7c793          	not	a5,a5
20000fec:	00078693          	mv	a3,a5
20000ff0:	400117b7          	lui	a5,0x40011
20000ff4:	40c78793          	addi	a5,a5,1036 # 4001140c <__stack_top+0x2000a8a0>
20000ff8:	00d77733          	and	a4,a4,a3
20000ffc:	00e7a023          	sw	a4,0(a5)
}    
20001000:	00000013          	nop
20001004:	01c12083          	lw	ra,28(sp)
20001008:	01812403          	lw	s0,24(sp)
2000100c:	02010113          	addi	sp,sp,32
20001010:	00008067          	ret

20001014 <init_keyboard>:
// \-------------------/
// 
// Follow the instructions in comments
// You can use the functions you have written above
///////////////////////////////////////////////////////////////////////////////
void init_keyboard() {
20001014:	ff010113          	addi	sp,sp,-16
20001018:	00112623          	sw	ra,12(sp)
2000101c:	00812423          	sw	s0,8(sp)
20001020:	01010413          	addi	s0,sp,16
    gpio_d_set_pin_output(4, 1);
20001024:	00100593          	li	a1,1
20001028:	00400513          	li	a0,4
2000102c:	e59ff0ef          	jal	20000e84 <gpio_d_set_pin_output>
    gpio_d_set_pin_output(5, 1);
20001030:	00100593          	li	a1,1
20001034:	00500513          	li	a0,5
20001038:	e4dff0ef          	jal	20000e84 <gpio_d_set_pin_output>
    gpio_d_set_pin_output(6, 1);
2000103c:	00100593          	li	a1,1
20001040:	00600513          	li	a0,6
20001044:	e41ff0ef          	jal	20000e84 <gpio_d_set_pin_output>
    gpio_d_set_pin_output(7, 1);
20001048:	00100593          	li	a1,1
2000104c:	00700513          	li	a0,7
20001050:	e35ff0ef          	jal	20000e84 <gpio_d_set_pin_output>

    // Configure the row-read pins (pins 0-3) as input with pull-up resistors

    gpio_d_set_pin_input(0,1);
20001054:	00100593          	li	a1,1
20001058:	00000513          	li	a0,0
2000105c:	cd9ff0ef          	jal	20000d34 <gpio_d_set_pin_input>
    gpio_d_set_pin_input(1,1);
20001060:	00100593          	li	a1,1
20001064:	00100513          	li	a0,1
20001068:	ccdff0ef          	jal	20000d34 <gpio_d_set_pin_input>
    gpio_d_set_pin_input(2,1);
2000106c:	00100593          	li	a1,1
20001070:	00200513          	li	a0,2
20001074:	cc1ff0ef          	jal	20000d34 <gpio_d_set_pin_input>
    gpio_d_set_pin_input(3,1);
20001078:	00100593          	li	a1,1
2000107c:	00300513          	li	a0,3
20001080:	cb5ff0ef          	jal	20000d34 <gpio_d_set_pin_input>
}
20001084:	00000013          	nop
20001088:	00c12083          	lw	ra,12(sp)
2000108c:	00812403          	lw	s0,8(sp)
20001090:	01010113          	addi	sp,sp,16
20001094:	00008067          	ret

20001098 <get_keyboard_button>:

int get_keyboard_button(void)
{
20001098:	fe010113          	addi	sp,sp,-32
2000109c:	00112e23          	sw	ra,28(sp)
200010a0:	00812c23          	sw	s0,24(sp)
200010a4:	02010413          	addi	s0,sp,32
    // Deactivate all rows by setting pins the row selection pins  4-7 high
    // (remember that they are active low, so 0 selects a row)

    gpio_d_set_pin_high(4);
200010a8:	00400513          	li	a0,4
200010ac:	ebdff0ef          	jal	20000f68 <gpio_d_set_pin_high>
    gpio_d_set_pin_high(5);
200010b0:	00500513          	li	a0,5
200010b4:	eb5ff0ef          	jal	20000f68 <gpio_d_set_pin_high>
    gpio_d_set_pin_high(6);
200010b8:	00600513          	li	a0,6
200010bc:	eadff0ef          	jal	20000f68 <gpio_d_set_pin_high>
    gpio_d_set_pin_high(7);
200010c0:	00700513          	li	a0,7
200010c4:	ea5ff0ef          	jal	20000f68 <gpio_d_set_pin_high>

    for(int row = 0; row < 4; row++) {
200010c8:	fe042623          	sw	zero,-20(s0)
200010cc:	0e40006f          	j	200011b0 <get_keyboard_button+0x118>
        // Activate the current row by setting the corresponding pin low

        gpio_d_set_pin_low(row+4);
200010d0:	fec42783          	lw	a5,-20(s0)
200010d4:	00478793          	addi	a5,a5,4
200010d8:	00078513          	mv	a0,a5
200010dc:	ee1ff0ef          	jal	20000fbc <gpio_d_set_pin_low>

        // Read the row (buttons 0-3, 4-7, 8-11, or 12-15) as the lower 4 bits of INDR 
        if (((*GPIO_D_INDR) & 0xF) != 0xF) {
200010e0:	400117b7          	lui	a5,0x40011
200010e4:	40878793          	addi	a5,a5,1032 # 40011408 <__stack_top+0x2000a89c>
200010e8:	0007a783          	lw	a5,0(a5)
200010ec:	00f7f713          	andi	a4,a5,15
200010f0:	00f00793          	li	a5,15
200010f4:	0af70063          	beq	a4,a5,20001194 <get_keyboard_button+0xfc>
            if (((*GPIO_D_INDR) & 0xF) == 0b1110) {
200010f8:	400117b7          	lui	a5,0x40011
200010fc:	40878793          	addi	a5,a5,1032 # 40011408 <__stack_top+0x2000a89c>
20001100:	0007a783          	lw	a5,0(a5)
20001104:	00f7f713          	andi	a4,a5,15
20001108:	00e00793          	li	a5,14
2000110c:	00f71863          	bne	a4,a5,2000111c <get_keyboard_button+0x84>
                return 4*row;
20001110:	fec42783          	lw	a5,-20(s0)
20001114:	00279793          	slli	a5,a5,0x2
20001118:	0a80006f          	j	200011c0 <get_keyboard_button+0x128>
            }
            else if (((*GPIO_D_INDR) & 0xF) == 0b1101) {
2000111c:	400117b7          	lui	a5,0x40011
20001120:	40878793          	addi	a5,a5,1032 # 40011408 <__stack_top+0x2000a89c>
20001124:	0007a783          	lw	a5,0(a5)
20001128:	00f7f713          	andi	a4,a5,15
2000112c:	00d00793          	li	a5,13
20001130:	00f71a63          	bne	a4,a5,20001144 <get_keyboard_button+0xac>
                return 4*row + 1;
20001134:	fec42783          	lw	a5,-20(s0)
20001138:	00279793          	slli	a5,a5,0x2
2000113c:	00178793          	addi	a5,a5,1
20001140:	0800006f          	j	200011c0 <get_keyboard_button+0x128>
            }
            else if (((*GPIO_D_INDR) & 0xF) == 0b1011) {
20001144:	400117b7          	lui	a5,0x40011
20001148:	40878793          	addi	a5,a5,1032 # 40011408 <__stack_top+0x2000a89c>
2000114c:	0007a783          	lw	a5,0(a5)
20001150:	00f7f713          	andi	a4,a5,15
20001154:	00b00793          	li	a5,11
20001158:	00f71a63          	bne	a4,a5,2000116c <get_keyboard_button+0xd4>
                return 4*row + 2;
2000115c:	fec42783          	lw	a5,-20(s0)
20001160:	00279793          	slli	a5,a5,0x2
20001164:	00278793          	addi	a5,a5,2
20001168:	0580006f          	j	200011c0 <get_keyboard_button+0x128>
            }
            else if (((*GPIO_D_INDR) & 0xF) == 0b0111) {
2000116c:	400117b7          	lui	a5,0x40011
20001170:	40878793          	addi	a5,a5,1032 # 40011408 <__stack_top+0x2000a89c>
20001174:	0007a783          	lw	a5,0(a5)
20001178:	00f7f713          	andi	a4,a5,15
2000117c:	00700793          	li	a5,7
20001180:	00f71a63          	bne	a4,a5,20001194 <get_keyboard_button+0xfc>
                return 4*row + 3;
20001184:	fec42783          	lw	a5,-20(s0)
20001188:	00279793          	slli	a5,a5,0x2
2000118c:	00378793          	addi	a5,a5,3
20001190:	0300006f          	j	200011c0 <get_keyboard_button+0x128>
            }
        }

        gpio_d_set_pin_high(row+4);
20001194:	fec42783          	lw	a5,-20(s0)
20001198:	00478793          	addi	a5,a5,4
2000119c:	00078513          	mv	a0,a5
200011a0:	dc9ff0ef          	jal	20000f68 <gpio_d_set_pin_high>
    for(int row = 0; row < 4; row++) {
200011a4:	fec42783          	lw	a5,-20(s0)
200011a8:	00178793          	addi	a5,a5,1
200011ac:	fef42623          	sw	a5,-20(s0)
200011b0:	fec42703          	lw	a4,-20(s0)
200011b4:	00300793          	li	a5,3
200011b8:	f0e7dce3          	bge	a5,a4,200010d0 <get_keyboard_button+0x38>

        //   and, if so, return the number of the button

        // Deactivate the current row by setting the corresponding pin high
    }
    return -1; // No button pressed    return -1;  
200011bc:	fff00793          	li	a5,-1
200011c0:	00078513          	mv	a0,a5
200011c4:	01c12083          	lw	ra,28(sp)
200011c8:	01812403          	lw	s0,24(sp)
200011cc:	02010113          	addi	sp,sp,32
200011d0:	00008067          	ret

200011d4 <init_interrupts>:
#include "afio.h"
#include "exti.h"
#include "pfic.h"

void init_interrupts() {
200011d4:	ff010113          	addi	sp,sp,-16
200011d8:	00112623          	sw	ra,12(sp)
200011dc:	00812423          	sw	s0,8(sp)
200011e0:	01010413          	addi	s0,sp,16
  // Enable systick interrupts
  IENR_SET(12);
200011e4:	e000e7b7          	lui	a5,0xe000e
200011e8:	10078793          	addi	a5,a5,256 # e000e100 <__stack_top+0xc0007594>
200011ec:	0007a683          	lw	a3,0(a5)
200011f0:	e000e7b7          	lui	a5,0xe000e
200011f4:	10078793          	addi	a5,a5,256 # e000e100 <__stack_top+0xc0007594>
200011f8:	00001737          	lui	a4,0x1
200011fc:	00e6e733          	or	a4,a3,a4
20001200:	00e7a023          	sw	a4,0(a5)
  // Enable EXTI{0,1,2,3}
  IENR_SET(22);
20001204:	e000e7b7          	lui	a5,0xe000e
20001208:	10078793          	addi	a5,a5,256 # e000e100 <__stack_top+0xc0007594>
2000120c:	0007a683          	lw	a3,0(a5)
20001210:	e000e7b7          	lui	a5,0xe000e
20001214:	10078793          	addi	a5,a5,256 # e000e100 <__stack_top+0xc0007594>
20001218:	00400737          	lui	a4,0x400
2000121c:	00e6e733          	or	a4,a3,a4
20001220:	00e7a023          	sw	a4,0(a5)
  IENR_SET(23);
20001224:	e000e7b7          	lui	a5,0xe000e
20001228:	10078793          	addi	a5,a5,256 # e000e100 <__stack_top+0xc0007594>
2000122c:	0007a683          	lw	a3,0(a5)
20001230:	e000e7b7          	lui	a5,0xe000e
20001234:	10078793          	addi	a5,a5,256 # e000e100 <__stack_top+0xc0007594>
20001238:	00800737          	lui	a4,0x800
2000123c:	00e6e733          	or	a4,a3,a4
20001240:	00e7a023          	sw	a4,0(a5)
  IENR_SET(24);
20001244:	e000e7b7          	lui	a5,0xe000e
20001248:	10078793          	addi	a5,a5,256 # e000e100 <__stack_top+0xc0007594>
2000124c:	0007a683          	lw	a3,0(a5)
20001250:	e000e7b7          	lui	a5,0xe000e
20001254:	10078793          	addi	a5,a5,256 # e000e100 <__stack_top+0xc0007594>
20001258:	01000737          	lui	a4,0x1000
2000125c:	00e6e733          	or	a4,a3,a4
20001260:	00e7a023          	sw	a4,0(a5)
  IENR_SET(25);
20001264:	e000e7b7          	lui	a5,0xe000e
20001268:	10078793          	addi	a5,a5,256 # e000e100 <__stack_top+0xc0007594>
2000126c:	0007a683          	lw	a3,0(a5)
20001270:	e000e7b7          	lui	a5,0xe000e
20001274:	10078793          	addi	a5,a5,256 # e000e100 <__stack_top+0xc0007594>
20001278:	02000737          	lui	a4,0x2000
2000127c:	00e6e733          	or	a4,a3,a4
20001280:	00e7a023          	sw	a4,0(a5)
  // Connect EXTI{0,1,2,3} to port D
  AFIO->EXTICR1 = 0x3333;
20001284:	400107b7          	lui	a5,0x40010
20001288:	00003737          	lui	a4,0x3
2000128c:	33370713          	addi	a4,a4,819 # 3333 <_start-0x1fffcccd>
20001290:	00e79423          	sh	a4,8(a5) # 40010008 <__stack_top+0x2000949c>
  // Use rising and falling triggers on lines {0,1,2,3}
  EXTI->FTENR |= 0xF << 0;
20001294:	400107b7          	lui	a5,0x40010
20001298:	40078793          	addi	a5,a5,1024 # 40010400 <__stack_top+0x20009894>
2000129c:	00c7a703          	lw	a4,12(a5)
200012a0:	400107b7          	lui	a5,0x40010
200012a4:	40078793          	addi	a5,a5,1024 # 40010400 <__stack_top+0x20009894>
200012a8:	00f76713          	ori	a4,a4,15
200012ac:	00e7a623          	sw	a4,12(a5)
  // Enable interrupts on lines {0,1,2,3}
  EXTI->INTENR |= 0xF << 0;
200012b0:	400107b7          	lui	a5,0x40010
200012b4:	40078793          	addi	a5,a5,1024 # 40010400 <__stack_top+0x20009894>
200012b8:	0007a703          	lw	a4,0(a5)
200012bc:	400107b7          	lui	a5,0x40010
200012c0:	40078793          	addi	a5,a5,1024 # 40010400 <__stack_top+0x20009894>
200012c4:	00f76713          	ori	a4,a4,15
200012c8:	00e7a023          	sw	a4,0(a5)
200012cc:	00000013          	nop
200012d0:	00c12083          	lw	ra,12(sp)
200012d4:	00812403          	lw	s0,8(sp)
200012d8:	01010113          	addi	sp,sp,16
200012dc:	00008067          	ret

200012e0 <vector_table>:
	...
# - EXTI2   (IRQ no. 24)
# - EXTI3   (IRQ no. 25)
.align 2
vector_table:
  .org vector_table + 12 * 4
  j systick_handler
20001310:	d25fe06f          	j	20000034 <systick_handler>
	...
  .org vector_table + 22 * 4
  j exti_handler
20001338:	be0ff06f          	j	20000718 <exti_handler>
  .org vector_table + 23 * 4
  j exti_handler
2000133c:	bdcff06f          	j	20000718 <exti_handler>
  .org vector_table + 24 * 4
  j exti_handler
20001340:	bd8ff06f          	j	20000718 <exti_handler>
  .org vector_table + 25 * 4
  j exti_handler
20001344:	bd4ff06f          	j	20000718 <exti_handler>
20001348:	00000013          	nop
2000134c:	00000013          	nop

20001350 <init_vector_table>:

.align 4
init_vector_table:
  la t0, vector_table
20001350:	00000297          	auipc	t0,0x0
20001354:	f9028293          	addi	t0,t0,-112 # 200012e0 <vector_table>
  # Use vectored mode (two least significant bits set to 01)
  ori t0, t0, 1
20001358:	0012e293          	ori	t0,t0,1
  csrw mtvec, t0
2000135c:	30529073          	csrw	mtvec,t0
  ret
20001360:	00008067          	ret
20001364:	00000013          	nop
20001368:	00000013          	nop

2000136c <tft_init>:
# void tft_init(void)
#   Wires all tft_* function pointers to the simulator (ecall) implementations,
#   then tail-calls sim_tft_init(1) which installs the ecall vector and returns.
.global tft_init
tft_init:
    la t0, tft_ellipse;  la t1, sim_tft_ellipse;  sw t1, 0(t0)
2000136c:	00004297          	auipc	t0,0x4
20001370:	54828293          	addi	t0,t0,1352 # 200058b4 <tft_ellipse>
20001374:	00000317          	auipc	t1,0x0
20001378:	12430313          	addi	t1,t1,292 # 20001498 <sim_tft_ellipse>
2000137c:	0062a023          	sw	t1,0(t0)
    la t0, tft_rect;     la t1, sim_tft_rect;      sw t1, 0(t0)
20001380:	00004297          	auipc	t0,0x4
20001384:	53828293          	addi	t0,t0,1336 # 200058b8 <tft_rect>
20001388:	00000317          	auipc	t1,0x0
2000138c:	0e030313          	addi	t1,t1,224 # 20001468 <sim_tft_rect>
20001390:	0062a023          	sw	t1,0(t0)
    la t0, tft_line;     la t1, sim_tft_line;      sw t1, 0(t0)
20001394:	00004297          	auipc	t0,0x4
20001398:	52828293          	addi	t0,t0,1320 # 200058bc <tft_line>
2000139c:	00000317          	auipc	t1,0x0
200013a0:	0a030313          	addi	t1,t1,160 # 2000143c <sim_tft_line>
200013a4:	0062a023          	sw	t1,0(t0)
    la t0, tft_pixel;    la t1, sim_tft_pixel;     sw t1, 0(t0)
200013a8:	00004297          	auipc	t0,0x4
200013ac:	51828293          	addi	t0,t0,1304 # 200058c0 <tft_pixel>
200013b0:	00000317          	auipc	t1,0x0
200013b4:	05c30313          	addi	t1,t1,92 # 2000140c <sim_tft_pixel>
200013b8:	0062a023          	sw	t1,0(t0)
    la t0, tft_sprite;   la t1, sim_tft_sprite;    sw t1, 0(t0)
200013bc:	00004297          	auipc	t0,0x4
200013c0:	50828293          	addi	t0,t0,1288 # 200058c4 <tft_sprite>
200013c4:	00000317          	auipc	t1,0x0
200013c8:	10430313          	addi	t1,t1,260 # 200014c8 <sim_tft_sprite>
200013cc:	0062a023          	sw	t1,0(t0)
    li a0, 1
200013d0:	00100513          	li	a0,1
    j  sim_tft_init         # tail-call; sim_tft_init will ret to our caller
200013d4:	0040006f          	j	200013d8 <sim_tft_init>

200013d8 <sim_tft_init>:
# int sim_tft_init(int option)
#   a0 = option; returns int in a0
#   Also installs the ecall exception vector at 0x2001C014.
.global sim_tft_init
sim_tft_init:
    la  t1, tft_init_call           # address of the C ecall ISR
200013d8:	00004317          	auipc	t1,0x4
200013dc:	4f030313          	addi	t1,t1,1264 # 200058c8 <tft_init_call>
    li  t2, 0x2001C014      # exception vector slot
200013e0:	2001c3b7          	lui	t2,0x2001c
200013e4:	01438393          	addi	t2,t2,20 # 2001c014 <__stack_top+0x154a8>
    sw  t1, 0(t2)           # install handler
200013e8:	0063a023          	sw	t1,0(t2)
    la  a7, tft_init_call
200013ec:	00004897          	auipc	a7,0x4
200013f0:	4dc88893          	addi	a7,a7,1244 # 200058c8 <tft_init_call>
    la  t0, frame
200013f4:	00004297          	auipc	t0,0x4
200013f8:	4a828293          	addi	t0,t0,1192 # 2000589c <frame>
    sw  a0, 0(t0)           # option
200013fc:	00a2a023          	sw	a0,0(t0)
    ecall
20001400:	00000073          	ecall
    lw  a0, 0(t0)           # return value from _tft_init (t0 survives ecall)
20001404:	0002a503          	lw	a0,0(t0)
    ret
20001408:	00008067          	ret

2000140c <sim_tft_pixel>:

.global sim_tft_pixel
sim_tft_pixel:
    la a7, tft_line_call
2000140c:	00004897          	auipc	a7,0x4
20001410:	4c488893          	addi	a7,a7,1220 # 200058d0 <tft_line_call>
    la t0, frame
20001414:	00004297          	auipc	t0,0x4
20001418:	48828293          	addi	t0,t0,1160 # 2000589c <frame>
    sw a0, 0(t0) # x
2000141c:	00a2a023          	sw	a0,0(t0)
    sw a1, 4(t0) # y
20001420:	00b2a223          	sw	a1,4(t0)
    sw a0, 8(t0) # x2
20001424:	00a2a423          	sw	a0,8(t0)
    addi a1, a1, 1
20001428:	00158593          	addi	a1,a1,1
    sw a1, 12(t0) # y2
2000142c:	00b2a623          	sw	a1,12(t0)
    sw a2, 16(t0) # colour
20001430:	00c2a823          	sw	a2,16(t0)
    ecall
20001434:	00000073          	ecall
    ret
20001438:	00008067          	ret

2000143c <sim_tft_line>:

# void tft_line(int x1, int y1, int x2, int y2, int colour)
#   a0=x1, a1=y1, a2=x2, a3=y2, a4=colour
.global sim_tft_line
sim_tft_line:
    la  a7, tft_line_call
2000143c:	00004897          	auipc	a7,0x4
20001440:	49488893          	addi	a7,a7,1172 # 200058d0 <tft_line_call>
    la  t0, frame
20001444:	00004297          	auipc	t0,0x4
20001448:	45828293          	addi	t0,t0,1112 # 2000589c <frame>
    sw  a0,  0(t0)  # x1
2000144c:	00a2a023          	sw	a0,0(t0)
    sw  a1,  4(t0)  # y1
20001450:	00b2a223          	sw	a1,4(t0)
    sw  a2,  8(t0)  # x2
20001454:	00c2a423          	sw	a2,8(t0)
    sw  a3, 12(t0)  # y2
20001458:	00d2a623          	sw	a3,12(t0)
    sw  a4, 16(t0)  # colour
2000145c:	00e2a823          	sw	a4,16(t0)
    ecall
20001460:	00000073          	ecall
    ret
20001464:	00008067          	ret

20001468 <sim_tft_rect>:

# void tft_rect(int x1, int y1, int x2, int y2, int colour, int fill)
#   a0=x1, a1=y1, a2=x2, a3=y2, a4=colour, a5=fill
.global sim_tft_rect
sim_tft_rect:
    la  a7, tft_rect_call
20001468:	00004897          	auipc	a7,0x4
2000146c:	47088893          	addi	a7,a7,1136 # 200058d8 <tft_rect_call>
    la  t0, frame
20001470:	00004297          	auipc	t0,0x4
20001474:	42c28293          	addi	t0,t0,1068 # 2000589c <frame>
    sw  a0,  0(t0)  # x1
20001478:	00a2a023          	sw	a0,0(t0)
    sw  a1,  4(t0)  # y1
2000147c:	00b2a223          	sw	a1,4(t0)
    sw  a2,  8(t0)  # x2
20001480:	00c2a423          	sw	a2,8(t0)
    sw  a3, 12(t0)  # y2
20001484:	00d2a623          	sw	a3,12(t0)
    sw  a4, 16(t0)  # colour
20001488:	00e2a823          	sw	a4,16(t0)
    sw  a5, 20(t0)  # fill
2000148c:	00f2aa23          	sw	a5,20(t0)
    ecall
20001490:	00000073          	ecall
    ret
20001494:	00008067          	ret

20001498 <sim_tft_ellipse>:

# void tft_ellipse(int xc, int yc, int xw, int yw, int colour, int fill)
#   a0=xc, a1=yc, a2=xw, a3=yw, a4=colour, a5=fill
.global sim_tft_ellipse
sim_tft_ellipse:
    la  a7, tft_ellipse_call
20001498:	00004897          	auipc	a7,0x4
2000149c:	44888893          	addi	a7,a7,1096 # 200058e0 <tft_ellipse_call>
    la  t0, frame
200014a0:	00004297          	auipc	t0,0x4
200014a4:	3fc28293          	addi	t0,t0,1020 # 2000589c <frame>
    sw  a0,  0(t0)  # xc
200014a8:	00a2a023          	sw	a0,0(t0)
    sw  a1,  4(t0)  # yc
200014ac:	00b2a223          	sw	a1,4(t0)
    sw  a2,  8(t0)  # xw
200014b0:	00c2a423          	sw	a2,8(t0)
    sw  a3, 12(t0)  # yw
200014b4:	00d2a623          	sw	a3,12(t0)
    sw  a4, 16(t0)  # colour
200014b8:	00e2a823          	sw	a4,16(t0)
    sw  a5, 20(t0)  # fill
200014bc:	00f2aa23          	sw	a5,20(t0)
    ecall
200014c0:	00000073          	ecall
    ret
200014c4:	00008067          	ret

200014c8 <sim_tft_sprite>:
#   a2 = data pointer (row-major uint16_t pixels)
#   a3 = w
#   a4 = h
.global sim_tft_sprite
sim_tft_sprite:
    la  a7, tft_line_call
200014c8:	00004897          	auipc	a7,0x4
200014cc:	40888893          	addi	a7,a7,1032 # 200058d0 <tft_line_call>
    la  t3, frame
200014d0:	00004e17          	auipc	t3,0x4
200014d4:	3cce0e13          	addi	t3,t3,972 # 2000589c <frame>
    li  t0, 0               # row = 0
200014d8:	00000293          	li	t0,0
.Lrow:
    bge t0, a4, .Ldone
200014dc:	04e2d463          	bge	t0,a4,20001524 <sim_tft_sprite+0x5c>
    li  t1, 0               # col = 0
200014e0:	00000313          	li	t1,0
.Lcol:
    bge t1, a3, .Lnext_row
200014e4:	02d35c63          	bge	t1,a3,2000151c <sim_tft_sprite+0x54>
    add t4, a0, t1          # screen_x = x + col
200014e8:	00650eb3          	add	t4,a0,t1
    add t5, a1, t0          # screen_y = y + row
200014ec:	00558f33          	add	t5,a1,t0
    lhu t6, 0(a2)           # colour = *data
200014f0:	00065f83          	lhu	t6,0(a2)
    sw  t4,  0(t3)          # x1
200014f4:	01de2023          	sw	t4,0(t3)
    sw  t5,  4(t3)          # y1
200014f8:	01ee2223          	sw	t5,4(t3)
    sw  t4,  8(t3)          # x2 (same column)
200014fc:	01de2423          	sw	t4,8(t3)
    addi t2, t5, 1
20001500:	001f0393          	addi	t2,t5,1
    sw  t2, 12(t3)          # y2 = screen_y + 1
20001504:	007e2623          	sw	t2,12(t3)
    sw  t6, 16(t3)          # colour
20001508:	01fe2823          	sw	t6,16(t3)
    ecall
2000150c:	00000073          	ecall
    addi a2, a2, 2          # data++
20001510:	00260613          	addi	a2,a2,2
    addi t1, t1, 1          # col++
20001514:	00130313          	addi	t1,t1,1
    j   .Lcol
20001518:	fcdff06f          	j	200014e4 <sim_tft_sprite+0x1c>
.Lnext_row:
    addi t0, t0, 1          # row++
2000151c:	00128293          	addi	t0,t0,1
    j   .Lrow
20001520:	fbdff06f          	j	200014dc <sim_tft_sprite+0x14>
.Ldone:
    ret
20001524:	00008067          	ret

20001528 <_pll_init_144>:
20001528:	fe010113          	addi	sp,sp,-32
2000152c:	00112e23          	sw	ra,28(sp)
20001530:	00812c23          	sw	s0,24(sp)
20001534:	02010413          	addi	s0,sp,32
20001538:	fe042623          	sw	zero,-20(s0)
2000153c:	fe042423          	sw	zero,-24(s0)
20001540:	400217b7          	lui	a5,0x40021
20001544:	0007a703          	lw	a4,0(a5) # 40021000 <__stack_top+0x2001a494>
20001548:	400217b7          	lui	a5,0x40021
2000154c:	00176713          	ori	a4,a4,1
20001550:	00e7a023          	sw	a4,0(a5) # 40021000 <__stack_top+0x2001a494>
20001554:	400217b7          	lui	a5,0x40021
20001558:	00478793          	addi	a5,a5,4 # 40021004 <__stack_top+0x2001a498>
2000155c:	0007a683          	lw	a3,0(a5)
20001560:	400217b7          	lui	a5,0x40021
20001564:	00478793          	addi	a5,a5,4 # 40021004 <__stack_top+0x2001a498>
20001568:	f8ff0737          	lui	a4,0xf8ff0
2000156c:	00e6f733          	and	a4,a3,a4
20001570:	00e7a023          	sw	a4,0(a5)
20001574:	400217b7          	lui	a5,0x40021
20001578:	0007a683          	lw	a3,0(a5) # 40021000 <__stack_top+0x2001a494>
2000157c:	400217b7          	lui	a5,0x40021
20001580:	fef70737          	lui	a4,0xfef70
20001584:	fff70713          	addi	a4,a4,-1 # fef6ffff <__stack_top+0xdef69493>
20001588:	00e6f733          	and	a4,a3,a4
2000158c:	00e7a023          	sw	a4,0(a5) # 40021000 <__stack_top+0x2001a494>
20001590:	400217b7          	lui	a5,0x40021
20001594:	0007a683          	lw	a3,0(a5) # 40021000 <__stack_top+0x2001a494>
20001598:	400217b7          	lui	a5,0x40021
2000159c:	fffc0737          	lui	a4,0xfffc0
200015a0:	fff70713          	addi	a4,a4,-1 # fffbffff <__stack_top+0xdffb9493>
200015a4:	00e6f733          	and	a4,a3,a4
200015a8:	00e7a023          	sw	a4,0(a5) # 40021000 <__stack_top+0x2001a494>
200015ac:	400217b7          	lui	a5,0x40021
200015b0:	00478793          	addi	a5,a5,4 # 40021004 <__stack_top+0x2001a498>
200015b4:	0007a683          	lw	a3,0(a5)
200015b8:	400217b7          	lui	a5,0x40021
200015bc:	00478793          	addi	a5,a5,4 # 40021004 <__stack_top+0x2001a498>
200015c0:	ff810737          	lui	a4,0xff810
200015c4:	fff70713          	addi	a4,a4,-1 # ff80ffff <__stack_top+0xdf809493>
200015c8:	00e6f733          	and	a4,a3,a4
200015cc:	00e7a023          	sw	a4,0(a5)
200015d0:	400217b7          	lui	a5,0x40021
200015d4:	0007a683          	lw	a3,0(a5) # 40021000 <__stack_top+0x2001a494>
200015d8:	400217b7          	lui	a5,0x40021
200015dc:	ec000737          	lui	a4,0xec000
200015e0:	fff70713          	addi	a4,a4,-1 # ebffffff <__stack_top+0xcbff9493>
200015e4:	00e6f733          	and	a4,a3,a4
200015e8:	00e7a023          	sw	a4,0(a5) # 40021000 <__stack_top+0x2001a494>
200015ec:	400217b7          	lui	a5,0x40021
200015f0:	00878793          	addi	a5,a5,8 # 40021008 <__stack_top+0x2001a49c>
200015f4:	00ff0737          	lui	a4,0xff0
200015f8:	00e7a023          	sw	a4,0(a5)
200015fc:	400217b7          	lui	a5,0x40021
20001600:	02c78793          	addi	a5,a5,44 # 4002102c <__stack_top+0x2001a4c0>
20001604:	0007a023          	sw	zero,0(a5)
20001608:	400217b7          	lui	a5,0x40021
2000160c:	0007a683          	lw	a3,0(a5) # 40021000 <__stack_top+0x2001a494>
20001610:	400217b7          	lui	a5,0x40021
20001614:	00010737          	lui	a4,0x10
20001618:	00e6e733          	or	a4,a3,a4
2000161c:	00e7a023          	sw	a4,0(a5) # 40021000 <__stack_top+0x2001a494>
20001620:	400217b7          	lui	a5,0x40021
20001624:	0007a703          	lw	a4,0(a5) # 40021000 <__stack_top+0x2001a494>
20001628:	000207b7          	lui	a5,0x20
2000162c:	00f777b3          	and	a5,a4,a5
20001630:	fef42423          	sw	a5,-24(s0)
20001634:	fec42783          	lw	a5,-20(s0)
20001638:	00178793          	addi	a5,a5,1 # 20001 <_start-0x1ffdffff>
2000163c:	fef42623          	sw	a5,-20(s0)
20001640:	fe842783          	lw	a5,-24(s0)
20001644:	00079863          	bnez	a5,20001654 <_pll_init_144+0x12c>
20001648:	fec42703          	lw	a4,-20(s0)
2000164c:	1f400793          	li	a5,500
20001650:	fcf718e3          	bne	a4,a5,20001620 <_pll_init_144+0xf8>
20001654:	400217b7          	lui	a5,0x40021
20001658:	0007a703          	lw	a4,0(a5) # 40021000 <__stack_top+0x2001a494>
2000165c:	000207b7          	lui	a5,0x20
20001660:	00f777b3          	and	a5,a4,a5
20001664:	00079663          	bnez	a5,20001670 <_pll_init_144+0x148>
20001668:	00100793          	li	a5,1
2000166c:	11c0006f          	j	20001788 <_pll_init_144+0x260>
20001670:	400217b7          	lui	a5,0x40021
20001674:	00478713          	addi	a4,a5,4 # 40021004 <__stack_top+0x2001a498>
20001678:	400217b7          	lui	a5,0x40021
2000167c:	00478793          	addi	a5,a5,4 # 40021004 <__stack_top+0x2001a498>
20001680:	00072703          	lw	a4,0(a4) # 10000 <_start-0x1fff0000>
20001684:	00e7a023          	sw	a4,0(a5)
20001688:	400217b7          	lui	a5,0x40021
2000168c:	00478713          	addi	a4,a5,4 # 40021004 <__stack_top+0x2001a498>
20001690:	400217b7          	lui	a5,0x40021
20001694:	00478793          	addi	a5,a5,4 # 40021004 <__stack_top+0x2001a498>
20001698:	00072703          	lw	a4,0(a4)
2000169c:	00e7a023          	sw	a4,0(a5)
200016a0:	400217b7          	lui	a5,0x40021
200016a4:	02c78793          	addi	a5,a5,44 # 4002102c <__stack_top+0x2001a4c0>
200016a8:	0007a703          	lw	a4,0(a5)
200016ac:	400217b7          	lui	a5,0x40021
200016b0:	02c78793          	addi	a5,a5,44 # 4002102c <__stack_top+0x2001a4c0>
200016b4:	40076713          	ori	a4,a4,1024
200016b8:	00e7a023          	sw	a4,0(a5)
200016bc:	400217b7          	lui	a5,0x40021
200016c0:	00478793          	addi	a5,a5,4 # 40021004 <__stack_top+0x2001a498>
200016c4:	0007a683          	lw	a3,0(a5)
200016c8:	400217b7          	lui	a5,0x40021
200016cc:	00478793          	addi	a5,a5,4 # 40021004 <__stack_top+0x2001a498>
200016d0:	ffc10737          	lui	a4,0xffc10
200016d4:	fff70713          	addi	a4,a4,-1 # ffc0ffff <__stack_top+0xdfc09493>
200016d8:	00e6f733          	and	a4,a3,a4
200016dc:	00e7a023          	sw	a4,0(a5)
200016e0:	400217b7          	lui	a5,0x40021
200016e4:	00478793          	addi	a5,a5,4 # 40021004 <__stack_top+0x2001a498>
200016e8:	0007a683          	lw	a3,0(a5)
200016ec:	400217b7          	lui	a5,0x40021
200016f0:	00478793          	addi	a5,a5,4 # 40021004 <__stack_top+0x2001a498>
200016f4:	00010737          	lui	a4,0x10
200016f8:	00e6e733          	or	a4,a3,a4
200016fc:	00e7a023          	sw	a4,0(a5)
20001700:	400217b7          	lui	a5,0x40021
20001704:	0007a683          	lw	a3,0(a5) # 40021000 <__stack_top+0x2001a494>
20001708:	400217b7          	lui	a5,0x40021
2000170c:	01000737          	lui	a4,0x1000
20001710:	00e6e733          	or	a4,a3,a4
20001714:	00e7a023          	sw	a4,0(a5) # 40021000 <__stack_top+0x2001a494>
20001718:	00000013          	nop
2000171c:	400217b7          	lui	a5,0x40021
20001720:	0007a703          	lw	a4,0(a5) # 40021000 <__stack_top+0x2001a494>
20001724:	020007b7          	lui	a5,0x2000
20001728:	00f777b3          	and	a5,a4,a5
2000172c:	fe0788e3          	beqz	a5,2000171c <_pll_init_144+0x1f4>
20001730:	400217b7          	lui	a5,0x40021
20001734:	00478793          	addi	a5,a5,4 # 40021004 <__stack_top+0x2001a498>
20001738:	0007a703          	lw	a4,0(a5)
2000173c:	400217b7          	lui	a5,0x40021
20001740:	00478793          	addi	a5,a5,4 # 40021004 <__stack_top+0x2001a498>
20001744:	ffc77713          	andi	a4,a4,-4
20001748:	00e7a023          	sw	a4,0(a5)
2000174c:	400217b7          	lui	a5,0x40021
20001750:	00478793          	addi	a5,a5,4 # 40021004 <__stack_top+0x2001a498>
20001754:	0007a703          	lw	a4,0(a5)
20001758:	400217b7          	lui	a5,0x40021
2000175c:	00478793          	addi	a5,a5,4 # 40021004 <__stack_top+0x2001a498>
20001760:	00276713          	ori	a4,a4,2
20001764:	00e7a023          	sw	a4,0(a5)
20001768:	00000013          	nop
2000176c:	400217b7          	lui	a5,0x40021
20001770:	00478793          	addi	a5,a5,4 # 40021004 <__stack_top+0x2001a498>
20001774:	0007a783          	lw	a5,0(a5)
20001778:	00c7f713          	andi	a4,a5,12
2000177c:	00800793          	li	a5,8
20001780:	fef716e3          	bne	a4,a5,2000176c <_pll_init_144+0x244>
20001784:	00000793          	li	a5,0
20001788:	00078513          	mv	a0,a5
2000178c:	01c12083          	lw	ra,28(sp)
20001790:	01812403          	lw	s0,24(sp)
20001794:	02010113          	addi	sp,sp,32
20001798:	00008067          	ret

2000179c <crt_timer_interrupt>:
2000179c:	fd010113          	addi	sp,sp,-48
200017a0:	02112623          	sw	ra,44(sp)
200017a4:	02512423          	sw	t0,40(sp)
200017a8:	02812223          	sw	s0,36(sp)
200017ac:	02a12023          	sw	a0,32(sp)
200017b0:	00b12e23          	sw	a1,28(sp)
200017b4:	00c12c23          	sw	a2,24(sp)
200017b8:	00d12a23          	sw	a3,20(sp)
200017bc:	00e12823          	sw	a4,16(sp)
200017c0:	00f12623          	sw	a5,12(sp)
200017c4:	01012423          	sw	a6,8(sp)
200017c8:	03010413          	addi	s0,sp,48
200017cc:	400017b7          	lui	a5,0x40001
200017d0:	0107d783          	lhu	a5,16(a5) # 40001010 <__stack_top+0x1fffa4a4>
200017d4:	01079713          	slli	a4,a5,0x10
200017d8:	01075713          	srli	a4,a4,0x10
200017dc:	400017b7          	lui	a5,0x40001
200017e0:	ffe77713          	andi	a4,a4,-2
200017e4:	01071713          	slli	a4,a4,0x10
200017e8:	01075713          	srli	a4,a4,0x10
200017ec:	00e79823          	sh	a4,16(a5) # 40001010 <__stack_top+0x1fffa4a4>
200017f0:	200067b7          	lui	a5,0x20006
200017f4:	e087a703          	lw	a4,-504(a5) # 20005e08 <current_time>
200017f8:	e0c7a783          	lw	a5,-500(a5)
200017fc:	00100513          	li	a0,1
20001800:	00000593          	li	a1,0
20001804:	00a70633          	add	a2,a4,a0
20001808:	00060813          	mv	a6,a2
2000180c:	00e83833          	sltu	a6,a6,a4
20001810:	00b786b3          	add	a3,a5,a1
20001814:	00d807b3          	add	a5,a6,a3
20001818:	00078693          	mv	a3,a5
2000181c:	00060713          	mv	a4,a2
20001820:	00068793          	mv	a5,a3
20001824:	200066b7          	lui	a3,0x20006
20001828:	e0e6a423          	sw	a4,-504(a3) # 20005e08 <current_time>
2000182c:	e0f6a623          	sw	a5,-500(a3)
20001830:	00000013          	nop
20001834:	02c12083          	lw	ra,44(sp)
20001838:	02812283          	lw	t0,40(sp)
2000183c:	02412403          	lw	s0,36(sp)
20001840:	02012503          	lw	a0,32(sp)
20001844:	01c12583          	lw	a1,28(sp)
20001848:	01812603          	lw	a2,24(sp)
2000184c:	01412683          	lw	a3,20(sp)
20001850:	01012703          	lw	a4,16(sp)
20001854:	00c12783          	lw	a5,12(sp)
20001858:	00812803          	lw	a6,8(sp)
2000185c:	03010113          	addi	sp,sp,48
20001860:	30200073          	mret

20001864 <_times>:
20001864:	fe010113          	addi	sp,sp,-32
20001868:	00112e23          	sw	ra,28(sp)
2000186c:	00812c23          	sw	s0,24(sp)
20001870:	02010413          	addi	s0,sp,32
20001874:	fea42623          	sw	a0,-20(s0)
20001878:	200067b7          	lui	a5,0x20006
2000187c:	e087a703          	lw	a4,-504(a5) # 20005e08 <current_time>
20001880:	e0c7a783          	lw	a5,-500(a5)
20001884:	fec42783          	lw	a5,-20(s0)
20001888:	00e7a223          	sw	a4,4(a5)
2000188c:	fec42783          	lw	a5,-20(s0)
20001890:	0047a703          	lw	a4,4(a5)
20001894:	fec42783          	lw	a5,-20(s0)
20001898:	00e7a023          	sw	a4,0(a5)
2000189c:	200067b7          	lui	a5,0x20006
200018a0:	e087a703          	lw	a4,-504(a5) # 20005e08 <current_time>
200018a4:	e0c7a783          	lw	a5,-500(a5)
200018a8:	00070793          	mv	a5,a4
200018ac:	00078513          	mv	a0,a5
200018b0:	01c12083          	lw	ra,28(sp)
200018b4:	01812403          	lw	s0,24(sp)
200018b8:	02010113          	addi	sp,sp,32
200018bc:	00008067          	ret

200018c0 <_gettimeofday>:
200018c0:	fd010113          	addi	sp,sp,-48
200018c4:	02112623          	sw	ra,44(sp)
200018c8:	02812423          	sw	s0,40(sp)
200018cc:	03010413          	addi	s0,sp,48
200018d0:	fca42e23          	sw	a0,-36(s0)
200018d4:	fcb42c23          	sw	a1,-40(s0)
200018d8:	200067b7          	lui	a5,0x20006
200018dc:	e087a703          	lw	a4,-504(a5) # 20005e08 <current_time>
200018e0:	e0c7a783          	lw	a5,-500(a5)
200018e4:	fee42423          	sw	a4,-24(s0)
200018e8:	fef42623          	sw	a5,-20(s0)
200018ec:	fe842703          	lw	a4,-24(s0)
200018f0:	fec42783          	lw	a5,-20(s0)
200018f4:	06400613          	li	a2,100
200018f8:	00000693          	li	a3,0
200018fc:	00070513          	mv	a0,a4
20001900:	00078593          	mv	a1,a5
20001904:	768000ef          	jal	2000206c <__udivdi3>
20001908:	00050713          	mv	a4,a0
2000190c:	00058793          	mv	a5,a1
20001910:	fdc42683          	lw	a3,-36(s0)
20001914:	00e6a023          	sw	a4,0(a3)
20001918:	00f6a223          	sw	a5,4(a3)
2000191c:	fe842703          	lw	a4,-24(s0)
20001920:	fec42783          	lw	a5,-20(s0)
20001924:	06400613          	li	a2,100
20001928:	00000693          	li	a3,0
2000192c:	00070513          	mv	a0,a4
20001930:	00078593          	mv	a1,a5
20001934:	325000ef          	jal	20002458 <__umoddi3>
20001938:	00050713          	mv	a4,a0
2000193c:	00058793          	mv	a5,a1
20001940:	fdc42783          	lw	a5,-36(s0)
20001944:	00e7a423          	sw	a4,8(a5)
20001948:	00000793          	li	a5,0
2000194c:	00078513          	mv	a0,a5
20001950:	02c12083          	lw	ra,44(sp)
20001954:	02812403          	lw	s0,40(sp)
20001958:	03010113          	addi	sp,sp,48
2000195c:	00008067          	ret

20001960 <_settimeofday>:
20001960:	fe010113          	addi	sp,sp,-32
20001964:	00112e23          	sw	ra,28(sp)
20001968:	00812c23          	sw	s0,24(sp)
2000196c:	02010413          	addi	s0,sp,32
20001970:	fea42623          	sw	a0,-20(s0)
20001974:	feb42423          	sw	a1,-24(s0)
20001978:	fec42783          	lw	a5,-20(s0)
2000197c:	0007a703          	lw	a4,0(a5)
20001980:	0047a783          	lw	a5,4(a5)
20001984:	06400593          	li	a1,100
20001988:	02b78533          	mul	a0,a5,a1
2000198c:	00000593          	li	a1,0
20001990:	02b705b3          	mul	a1,a4,a1
20001994:	00b50533          	add	a0,a0,a1
20001998:	06400593          	li	a1,100
2000199c:	02b70333          	mul	t1,a4,a1
200019a0:	02b738b3          	mulhu	a7,a4,a1
200019a4:	00030813          	mv	a6,t1
200019a8:	011507b3          	add	a5,a0,a7
200019ac:	00078893          	mv	a7,a5
200019b0:	00080713          	mv	a4,a6
200019b4:	00088793          	mv	a5,a7
200019b8:	200065b7          	lui	a1,0x20006
200019bc:	e0e5a423          	sw	a4,-504(a1) # 20005e08 <current_time>
200019c0:	e0f5a623          	sw	a5,-500(a1)
200019c4:	fec42783          	lw	a5,-20(s0)
200019c8:	0087a783          	lw	a5,8(a5)
200019cc:	00078613          	mv	a2,a5
200019d0:	41f7d793          	srai	a5,a5,0x1f
200019d4:	00078693          	mv	a3,a5
200019d8:	200067b7          	lui	a5,0x20006
200019dc:	e087a503          	lw	a0,-504(a5) # 20005e08 <current_time>
200019e0:	e0c7a583          	lw	a1,-500(a5)
200019e4:	00a60733          	add	a4,a2,a0
200019e8:	00070813          	mv	a6,a4
200019ec:	00c83833          	sltu	a6,a6,a2
200019f0:	00b687b3          	add	a5,a3,a1
200019f4:	00f806b3          	add	a3,a6,a5
200019f8:	00068793          	mv	a5,a3
200019fc:	200066b7          	lui	a3,0x20006
20001a00:	e0e6a423          	sw	a4,-504(a3) # 20005e08 <current_time>
20001a04:	e0f6a623          	sw	a5,-500(a3)
20001a08:	00000793          	li	a5,0
20001a0c:	00078513          	mv	a0,a5
20001a10:	01c12083          	lw	ra,28(sp)
20001a14:	01812403          	lw	s0,24(sp)
20001a18:	02010113          	addi	sp,sp,32
20001a1c:	00008067          	ret

20001a20 <_tstchar>:
20001a20:	ff010113          	addi	sp,sp,-16
20001a24:	00112623          	sw	ra,12(sp)
20001a28:	00812423          	sw	s0,8(sp)
20001a2c:	01010413          	addi	s0,sp,16
20001a30:	400147b7          	lui	a5,0x40014
20001a34:	80078793          	addi	a5,a5,-2048 # 40013800 <__stack_top+0x2000cc94>
20001a38:	0007d783          	lhu	a5,0(a5)
20001a3c:	01079793          	slli	a5,a5,0x10
20001a40:	0107d793          	srli	a5,a5,0x10
20001a44:	0207f793          	andi	a5,a5,32
20001a48:	02078063          	beqz	a5,20001a68 <_tstchar+0x48>
20001a4c:	400147b7          	lui	a5,0x40014
20001a50:	80078793          	addi	a5,a5,-2048 # 40013800 <__stack_top+0x2000cc94>
20001a54:	0047d783          	lhu	a5,4(a5)
20001a58:	01079793          	slli	a5,a5,0x10
20001a5c:	0107d793          	srli	a5,a5,0x10
20001a60:	0ff7f793          	zext.b	a5,a5
20001a64:	0080006f          	j	20001a6c <_tstchar+0x4c>
20001a68:	00000793          	li	a5,0
20001a6c:	00078513          	mv	a0,a5
20001a70:	00c12083          	lw	ra,12(sp)
20001a74:	00812403          	lw	s0,8(sp)
20001a78:	01010113          	addi	sp,sp,16
20001a7c:	00008067          	ret

20001a80 <_outchar>:
20001a80:	fe010113          	addi	sp,sp,-32
20001a84:	00112e23          	sw	ra,28(sp)
20001a88:	00812c23          	sw	s0,24(sp)
20001a8c:	02010413          	addi	s0,sp,32
20001a90:	00050793          	mv	a5,a0
20001a94:	fef407a3          	sb	a5,-17(s0)
20001a98:	400147b7          	lui	a5,0x40014
20001a9c:	80078793          	addi	a5,a5,-2048 # 40013800 <__stack_top+0x2000cc94>
20001aa0:	fef44703          	lbu	a4,-17(s0)
20001aa4:	01071713          	slli	a4,a4,0x10
20001aa8:	01075713          	srli	a4,a4,0x10
20001aac:	00e79223          	sh	a4,4(a5)
20001ab0:	00000013          	nop
20001ab4:	400147b7          	lui	a5,0x40014
20001ab8:	80078793          	addi	a5,a5,-2048 # 40013800 <__stack_top+0x2000cc94>
20001abc:	0007d783          	lhu	a5,0(a5)
20001ac0:	01079793          	slli	a5,a5,0x10
20001ac4:	0107d793          	srli	a5,a5,0x10
20001ac8:	0807f793          	andi	a5,a5,128
20001acc:	fe0784e3          	beqz	a5,20001ab4 <_outchar+0x34>
20001ad0:	00000013          	nop
20001ad4:	00000013          	nop
20001ad8:	01c12083          	lw	ra,28(sp)
20001adc:	01812403          	lw	s0,24(sp)
20001ae0:	02010113          	addi	sp,sp,32
20001ae4:	00008067          	ret

20001ae8 <_sbrk>:
20001ae8:	fd010113          	addi	sp,sp,-48
20001aec:	02112623          	sw	ra,44(sp)
20001af0:	02812423          	sw	s0,40(sp)
20001af4:	03010413          	addi	s0,sp,48
20001af8:	fca42e23          	sw	a0,-36(s0)
20001afc:	200067b7          	lui	a5,0x20006
20001b00:	e107a783          	lw	a5,-496(a5) # 20005e10 <heap_end>
20001b04:	00079a63          	bnez	a5,20001b18 <_sbrk+0x30>
20001b08:	200067b7          	lui	a5,0x20006
20001b0c:	20006737          	lui	a4,0x20006
20001b10:	f6c70713          	addi	a4,a4,-148 # 20005f6c <__bss_end__>
20001b14:	e0e7a823          	sw	a4,-496(a5) # 20005e10 <heap_end>
20001b18:	200067b7          	lui	a5,0x20006
20001b1c:	e107a783          	lw	a5,-496(a5) # 20005e10 <heap_end>
20001b20:	fef42623          	sw	a5,-20(s0)
20001b24:	200067b7          	lui	a5,0x20006
20001b28:	e107a703          	lw	a4,-496(a5) # 20005e10 <heap_end>
20001b2c:	fdc42783          	lw	a5,-36(s0)
20001b30:	00f70733          	add	a4,a4,a5
20001b34:	200067b7          	lui	a5,0x20006
20001b38:	76c78793          	addi	a5,a5,1900 # 2000676c <__heap_top>
20001b3c:	00e7fe63          	bgeu	a5,a4,20001b58 <_sbrk+0x70>
20001b40:	140010ef          	jal	20002c80 <__errno>
20001b44:	00050713          	mv	a4,a0
20001b48:	00c00793          	li	a5,12
20001b4c:	00f72023          	sw	a5,0(a4)
20001b50:	fff00793          	li	a5,-1
20001b54:	0200006f          	j	20001b74 <_sbrk+0x8c>
20001b58:	200067b7          	lui	a5,0x20006
20001b5c:	e107a703          	lw	a4,-496(a5) # 20005e10 <heap_end>
20001b60:	fdc42783          	lw	a5,-36(s0)
20001b64:	00f70733          	add	a4,a4,a5
20001b68:	200067b7          	lui	a5,0x20006
20001b6c:	e0e7a823          	sw	a4,-496(a5) # 20005e10 <heap_end>
20001b70:	fec42783          	lw	a5,-20(s0)
20001b74:	00078513          	mv	a0,a5
20001b78:	02c12083          	lw	ra,44(sp)
20001b7c:	02812403          	lw	s0,40(sp)
20001b80:	03010113          	addi	sp,sp,48
20001b84:	00008067          	ret

20001b88 <_crt_init>:
20001b88:	fe010113          	addi	sp,sp,-32
20001b8c:	00112e23          	sw	ra,28(sp)
20001b90:	00812c23          	sw	s0,24(sp)
20001b94:	02010413          	addi	s0,sp,32
20001b98:	00000013          	nop
20001b9c:	98dff0ef          	jal	20001528 <_pll_init_144>
20001ba0:	00050793          	mv	a5,a0
20001ba4:	fe079ce3          	bnez	a5,20001b9c <_crt_init+0x14>
20001ba8:	400217b7          	lui	a5,0x40021
20001bac:	0187a683          	lw	a3,24(a5) # 40021018 <__stack_top+0x2001a4ac>
20001bb0:	400217b7          	lui	a5,0x40021
20001bb4:	00004737          	lui	a4,0x4
20001bb8:	00e6e733          	or	a4,a3,a4
20001bbc:	00e7ac23          	sw	a4,24(a5) # 40021018 <__stack_top+0x2001a4ac>
20001bc0:	400217b7          	lui	a5,0x40021
20001bc4:	0187a703          	lw	a4,24(a5) # 40021018 <__stack_top+0x2001a4ac>
20001bc8:	400217b7          	lui	a5,0x40021
20001bcc:	00476713          	ori	a4,a4,4
20001bd0:	00e7ac23          	sw	a4,24(a5) # 40021018 <__stack_top+0x2001a4ac>
20001bd4:	400217b7          	lui	a5,0x40021
20001bd8:	0187a703          	lw	a4,24(a5) # 40021018 <__stack_top+0x2001a4ac>
20001bdc:	400217b7          	lui	a5,0x40021
20001be0:	00176713          	ori	a4,a4,1
20001be4:	00e7ac23          	sw	a4,24(a5) # 40021018 <__stack_top+0x2001a4ac>
20001be8:	400217b7          	lui	a5,0x40021
20001bec:	0187a703          	lw	a4,24(a5) # 40021018 <__stack_top+0x2001a4ac>
20001bf0:	400217b7          	lui	a5,0x40021
20001bf4:	02076713          	ori	a4,a4,32
20001bf8:	00e7ac23          	sw	a4,24(a5) # 40021018 <__stack_top+0x2001a4ac>
20001bfc:	400217b7          	lui	a5,0x40021
20001c00:	0187a703          	lw	a4,24(a5) # 40021018 <__stack_top+0x2001a4ac>
20001c04:	400217b7          	lui	a5,0x40021
20001c08:	04076713          	ori	a4,a4,64
20001c0c:	00e7ac23          	sw	a4,24(a5) # 40021018 <__stack_top+0x2001a4ac>
20001c10:	400217b7          	lui	a5,0x40021
20001c14:	00c7a683          	lw	a3,12(a5) # 4002100c <__stack_top+0x2001a4a0>
20001c18:	400217b7          	lui	a5,0x40021
20001c1c:	00004737          	lui	a4,0x4
20001c20:	06070713          	addi	a4,a4,96 # 4060 <_start-0x1fffbfa0>
20001c24:	00e6e733          	or	a4,a3,a4
20001c28:	00e7a623          	sw	a4,12(a5) # 4002100c <__stack_top+0x2001a4a0>
20001c2c:	400217b7          	lui	a5,0x40021
20001c30:	00c7a683          	lw	a3,12(a5) # 4002100c <__stack_top+0x2001a4a0>
20001c34:	400217b7          	lui	a5,0x40021
20001c38:	ffffc737          	lui	a4,0xffffc
20001c3c:	f9f70713          	addi	a4,a4,-97 # ffffbf9f <__stack_top+0xdfff5433>
20001c40:	00e6f733          	and	a4,a3,a4
20001c44:	00e7a623          	sw	a4,12(a5) # 4002100c <__stack_top+0x2001a4a0>
20001c48:	400117b7          	lui	a5,0x40011
20001c4c:	80478793          	addi	a5,a5,-2044 # 40010804 <__stack_top+0x20009c98>
20001c50:	0007a703          	lw	a4,0(a5)
20001c54:	400117b7          	lui	a5,0x40011
20001c58:	80478793          	addi	a5,a5,-2044 # 40010804 <__stack_top+0x20009c98>
20001c5c:	0b076713          	ori	a4,a4,176
20001c60:	00e7a023          	sw	a4,0(a5)
20001c64:	400117b7          	lui	a5,0x40011
20001c68:	80478793          	addi	a5,a5,-2044 # 40010804 <__stack_top+0x20009c98>
20001c6c:	0007a703          	lw	a4,0(a5)
20001c70:	400117b7          	lui	a5,0x40011
20001c74:	80478793          	addi	a5,a5,-2044 # 40010804 <__stack_top+0x20009c98>
20001c78:	40076713          	ori	a4,a4,1024
20001c7c:	00e7a023          	sw	a4,0(a5)
20001c80:	400147b7          	lui	a5,0x40014
20001c84:	80078793          	addi	a5,a5,-2048 # 40013800 <__stack_top+0x2000cc94>
20001c88:	4e200713          	li	a4,1250
20001c8c:	00e79423          	sh	a4,8(a5)
20001c90:	400147b7          	lui	a5,0x40014
20001c94:	80078793          	addi	a5,a5,-2048 # 40013800 <__stack_top+0x2000cc94>
20001c98:	00002737          	lui	a4,0x2
20001c9c:	00c70713          	addi	a4,a4,12 # 200c <_start-0x1fffdff4>
20001ca0:	00e79623          	sh	a4,12(a5)
20001ca4:	400217b7          	lui	a5,0x40021
20001ca8:	01c7a703          	lw	a4,28(a5) # 4002101c <__stack_top+0x2001a4b0>
20001cac:	400217b7          	lui	a5,0x40021
20001cb0:	01076713          	ori	a4,a4,16
20001cb4:	00e7ae23          	sw	a4,28(a5) # 4002101c <__stack_top+0x2001a4b0>
20001cb8:	400217b7          	lui	a5,0x40021
20001cbc:	0107a703          	lw	a4,16(a5) # 40021010 <__stack_top+0x2001a4a4>
20001cc0:	400217b7          	lui	a5,0x40021
20001cc4:	01076713          	ori	a4,a4,16
20001cc8:	00e7a823          	sw	a4,16(a5) # 40021010 <__stack_top+0x2001a4a4>
20001ccc:	400217b7          	lui	a5,0x40021
20001cd0:	0107a703          	lw	a4,16(a5) # 40021010 <__stack_top+0x2001a4a4>
20001cd4:	400217b7          	lui	a5,0x40021
20001cd8:	fef77713          	andi	a4,a4,-17
20001cdc:	00e7a823          	sw	a4,16(a5) # 40021010 <__stack_top+0x2001a4a4>
20001ce0:	400217b7          	lui	a5,0x40021
20001ce4:	01c7a703          	lw	a4,28(a5) # 4002101c <__stack_top+0x2001a4b0>
20001ce8:	400217b7          	lui	a5,0x40021
20001cec:	02076713          	ori	a4,a4,32
20001cf0:	00e7ae23          	sw	a4,28(a5) # 4002101c <__stack_top+0x2001a4b0>
20001cf4:	400217b7          	lui	a5,0x40021
20001cf8:	0107a703          	lw	a4,16(a5) # 40021010 <__stack_top+0x2001a4a4>
20001cfc:	400217b7          	lui	a5,0x40021
20001d00:	02076713          	ori	a4,a4,32
20001d04:	00e7a823          	sw	a4,16(a5) # 40021010 <__stack_top+0x2001a4a4>
20001d08:	400217b7          	lui	a5,0x40021
20001d0c:	0107a703          	lw	a4,16(a5) # 40021010 <__stack_top+0x2001a4a4>
20001d10:	400217b7          	lui	a5,0x40021
20001d14:	fdf77713          	andi	a4,a4,-33
20001d18:	00e7a823          	sw	a4,16(a5) # 40021010 <__stack_top+0x2001a4a4>
20001d1c:	200067b7          	lui	a5,0x20006
20001d20:	e007a823          	sw	zero,-496(a5) # 20005e10 <heap_end>
20001d24:	200067b7          	lui	a5,0x20006
20001d28:	95878793          	addi	a5,a5,-1704 # 20005958 <turningPoints>
20001d2c:	fef42623          	sw	a5,-20(s0)
20001d30:	200067b7          	lui	a5,0x20006
20001d34:	f6c78793          	addi	a5,a5,-148 # 20005f6c <__bss_end__>
20001d38:	fef42423          	sw	a5,-24(s0)
20001d3c:	0140006f          	j	20001d50 <_crt_init+0x1c8>
20001d40:	fec42783          	lw	a5,-20(s0)
20001d44:	00178713          	addi	a4,a5,1
20001d48:	fee42623          	sw	a4,-20(s0)
20001d4c:	00078023          	sb	zero,0(a5)
20001d50:	fec42703          	lw	a4,-20(s0)
20001d54:	fe842783          	lw	a5,-24(s0)
20001d58:	fef764e3          	bltu	a4,a5,20001d40 <_crt_init+0x1b8>
20001d5c:	200067b7          	lui	a5,0x20006
20001d60:	9507a783          	lw	a5,-1712(a5) # 20005950 <_impure_ptr>
20001d64:	0047a783          	lw	a5,4(a5)
20001d68:	00000693          	li	a3,0
20001d6c:	00200613          	li	a2,2
20001d70:	00000593          	li	a1,0
20001d74:	00078513          	mv	a0,a5
20001d78:	515000ef          	jal	20002a8c <setvbuf>
20001d7c:	200067b7          	lui	a5,0x20006
20001d80:	9507a783          	lw	a5,-1712(a5) # 20005950 <_impure_ptr>
20001d84:	0087a783          	lw	a5,8(a5)
20001d88:	00000693          	li	a3,0
20001d8c:	00200613          	li	a2,2
20001d90:	00000593          	li	a1,0
20001d94:	00078513          	mv	a0,a5
20001d98:	4f5000ef          	jal	20002a8c <setvbuf>
20001d9c:	200067b7          	lui	a5,0x20006
20001da0:	9507a783          	lw	a5,-1712(a5) # 20005950 <_impure_ptr>
20001da4:	00c7a783          	lw	a5,12(a5)
20001da8:	00000693          	li	a3,0
20001dac:	00200613          	li	a2,2
20001db0:	00000593          	li	a1,0
20001db4:	00078513          	mv	a0,a5
20001db8:	4d5000ef          	jal	20002a8c <setvbuf>
20001dbc:	00000013          	nop
20001dc0:	01c12083          	lw	ra,28(sp)
20001dc4:	01812403          	lw	s0,24(sp)
20001dc8:	02010113          	addi	sp,sp,32
20001dcc:	00008067          	ret

20001dd0 <_crt_deinit>:
20001dd0:	ff010113          	addi	sp,sp,-16
20001dd4:	00112623          	sw	ra,12(sp)
20001dd8:	00812423          	sw	s0,8(sp)
20001ddc:	01010413          	addi	s0,sp,16
20001de0:	00000013          	nop
20001de4:	00c12083          	lw	ra,12(sp)
20001de8:	00812403          	lw	s0,8(sp)
20001dec:	01010113          	addi	sp,sp,16
20001df0:	00008067          	ret

20001df4 <_exit>:
20001df4:	fe010113          	addi	sp,sp,-32
20001df8:	00112e23          	sw	ra,28(sp)
20001dfc:	00812c23          	sw	s0,24(sp)
20001e00:	02010413          	addi	s0,sp,32
20001e04:	fea42623          	sw	a0,-20(s0)
20001e08:	fec42783          	lw	a5,-20(s0)
20001e0c:	00078a63          	beqz	a5,20001e20 <_exit+0x2c>
20001e10:	fec42583          	lw	a1,-20(s0)
20001e14:	200057b7          	lui	a5,0x20005
20001e18:	1b878513          	addi	a0,a5,440 # 200051b8 <_malloc_usable_size_r+0x34>
20001e1c:	421000ef          	jal	20002a3c <iprintf>
20001e20:	fb1ff0ef          	jal	20001dd0 <_crt_deinit>
20001e24:	00000013          	nop
20001e28:	01c12083          	lw	ra,28(sp)
20001e2c:	01812403          	lw	s0,24(sp)
20001e30:	02010113          	addi	sp,sp,32
20001e34:	00008067          	ret

20001e38 <_close>:
20001e38:	fe010113          	addi	sp,sp,-32
20001e3c:	00112e23          	sw	ra,28(sp)
20001e40:	00812c23          	sw	s0,24(sp)
20001e44:	02010413          	addi	s0,sp,32
20001e48:	fea42623          	sw	a0,-20(s0)
20001e4c:	fff00793          	li	a5,-1
20001e50:	00078513          	mv	a0,a5
20001e54:	01c12083          	lw	ra,28(sp)
20001e58:	01812403          	lw	s0,24(sp)
20001e5c:	02010113          	addi	sp,sp,32
20001e60:	00008067          	ret

20001e64 <_open>:
20001e64:	fe010113          	addi	sp,sp,-32
20001e68:	00112e23          	sw	ra,28(sp)
20001e6c:	00812c23          	sw	s0,24(sp)
20001e70:	02010413          	addi	s0,sp,32
20001e74:	fea42623          	sw	a0,-20(s0)
20001e78:	feb42423          	sw	a1,-24(s0)
20001e7c:	fec42223          	sw	a2,-28(s0)
20001e80:	fff00793          	li	a5,-1
20001e84:	00078513          	mv	a0,a5
20001e88:	01c12083          	lw	ra,28(sp)
20001e8c:	01812403          	lw	s0,24(sp)
20001e90:	02010113          	addi	sp,sp,32
20001e94:	00008067          	ret

20001e98 <_fstat>:
20001e98:	fe010113          	addi	sp,sp,-32
20001e9c:	00112e23          	sw	ra,28(sp)
20001ea0:	00812c23          	sw	s0,24(sp)
20001ea4:	02010413          	addi	s0,sp,32
20001ea8:	fea42623          	sw	a0,-20(s0)
20001eac:	feb42423          	sw	a1,-24(s0)
20001eb0:	fe842783          	lw	a5,-24(s0)
20001eb4:	00002737          	lui	a4,0x2
20001eb8:	00e7a223          	sw	a4,4(a5)
20001ebc:	00000793          	li	a5,0
20001ec0:	00078513          	mv	a0,a5
20001ec4:	01c12083          	lw	ra,28(sp)
20001ec8:	01812403          	lw	s0,24(sp)
20001ecc:	02010113          	addi	sp,sp,32
20001ed0:	00008067          	ret

20001ed4 <_lseek>:
20001ed4:	fe010113          	addi	sp,sp,-32
20001ed8:	00112e23          	sw	ra,28(sp)
20001edc:	00812c23          	sw	s0,24(sp)
20001ee0:	02010413          	addi	s0,sp,32
20001ee4:	fea42623          	sw	a0,-20(s0)
20001ee8:	feb42423          	sw	a1,-24(s0)
20001eec:	fec42223          	sw	a2,-28(s0)
20001ef0:	00000793          	li	a5,0
20001ef4:	00078513          	mv	a0,a5
20001ef8:	01c12083          	lw	ra,28(sp)
20001efc:	01812403          	lw	s0,24(sp)
20001f00:	02010113          	addi	sp,sp,32
20001f04:	00008067          	ret

20001f08 <_isatty>:
20001f08:	fe010113          	addi	sp,sp,-32
20001f0c:	00112e23          	sw	ra,28(sp)
20001f10:	00812c23          	sw	s0,24(sp)
20001f14:	02010413          	addi	s0,sp,32
20001f18:	fea42623          	sw	a0,-20(s0)
20001f1c:	00000793          	li	a5,0
20001f20:	00078513          	mv	a0,a5
20001f24:	01c12083          	lw	ra,28(sp)
20001f28:	01812403          	lw	s0,24(sp)
20001f2c:	02010113          	addi	sp,sp,32
20001f30:	00008067          	ret

20001f34 <_write>:
20001f34:	fd010113          	addi	sp,sp,-48
20001f38:	02112623          	sw	ra,44(sp)
20001f3c:	02812423          	sw	s0,40(sp)
20001f40:	03010413          	addi	s0,sp,48
20001f44:	fca42e23          	sw	a0,-36(s0)
20001f48:	fcb42c23          	sw	a1,-40(s0)
20001f4c:	fcc42a23          	sw	a2,-44(s0)
20001f50:	fd442783          	lw	a5,-44(s0)
20001f54:	fef42623          	sw	a5,-20(s0)
20001f58:	01c0006f          	j	20001f74 <_write+0x40>
20001f5c:	fd842783          	lw	a5,-40(s0)
20001f60:	00178713          	addi	a4,a5,1
20001f64:	fce42c23          	sw	a4,-40(s0)
20001f68:	0007c783          	lbu	a5,0(a5)
20001f6c:	00078513          	mv	a0,a5
20001f70:	b11ff0ef          	jal	20001a80 <_outchar>
20001f74:	fd442783          	lw	a5,-44(s0)
20001f78:	fff78713          	addi	a4,a5,-1
20001f7c:	fce42a23          	sw	a4,-44(s0)
20001f80:	fc079ee3          	bnez	a5,20001f5c <_write+0x28>
20001f84:	fec42783          	lw	a5,-20(s0)
20001f88:	00078513          	mv	a0,a5
20001f8c:	02c12083          	lw	ra,44(sp)
20001f90:	02812403          	lw	s0,40(sp)
20001f94:	03010113          	addi	sp,sp,48
20001f98:	00008067          	ret

20001f9c <_read>:
20001f9c:	fd010113          	addi	sp,sp,-48
20001fa0:	02112623          	sw	ra,44(sp)
20001fa4:	02812423          	sw	s0,40(sp)
20001fa8:	03010413          	addi	s0,sp,48
20001fac:	fca42e23          	sw	a0,-36(s0)
20001fb0:	fcb42c23          	sw	a1,-40(s0)
20001fb4:	fcc42a23          	sw	a2,-44(s0)
20001fb8:	fe042623          	sw	zero,-20(s0)
20001fbc:	a65ff0ef          	jal	20001a20 <_tstchar>
20001fc0:	00050793          	mv	a5,a0
20001fc4:	fef405a3          	sb	a5,-21(s0)
20001fc8:	feb44783          	lbu	a5,-21(s0)
20001fcc:	02078263          	beqz	a5,20001ff0 <_read+0x54>
20001fd0:	fd842783          	lw	a5,-40(s0)
20001fd4:	00178713          	addi	a4,a5,1
20001fd8:	fce42c23          	sw	a4,-40(s0)
20001fdc:	feb44703          	lbu	a4,-21(s0)
20001fe0:	00e78023          	sb	a4,0(a5)
20001fe4:	fec42783          	lw	a5,-20(s0)
20001fe8:	00178793          	addi	a5,a5,1
20001fec:	fef42623          	sw	a5,-20(s0)
20001ff0:	fd442703          	lw	a4,-44(s0)
20001ff4:	fec42783          	lw	a5,-20(s0)
20001ff8:	fcf712e3          	bne	a4,a5,20001fbc <_read+0x20>
20001ffc:	fec42783          	lw	a5,-20(s0)
20002000:	00078513          	mv	a0,a5
20002004:	02c12083          	lw	ra,44(sp)
20002008:	02812403          	lw	s0,40(sp)
2000200c:	03010113          	addi	sp,sp,48
20002010:	00008067          	ret

20002014 <_getpid>:
20002014:	ff010113          	addi	sp,sp,-16
20002018:	00112623          	sw	ra,12(sp)
2000201c:	00812423          	sw	s0,8(sp)
20002020:	01010413          	addi	s0,sp,16
20002024:	00000793          	li	a5,0
20002028:	00078513          	mv	a0,a5
2000202c:	00c12083          	lw	ra,12(sp)
20002030:	00812403          	lw	s0,8(sp)
20002034:	01010113          	addi	sp,sp,16
20002038:	00008067          	ret

2000203c <_kill>:
2000203c:	fe010113          	addi	sp,sp,-32
20002040:	00112e23          	sw	ra,28(sp)
20002044:	00812c23          	sw	s0,24(sp)
20002048:	02010413          	addi	s0,sp,32
2000204c:	fea42623          	sw	a0,-20(s0)
20002050:	feb42423          	sw	a1,-24(s0)
20002054:	00000793          	li	a5,0
20002058:	00078513          	mv	a0,a5
2000205c:	01c12083          	lw	ra,28(sp)
20002060:	01812403          	lw	s0,24(sp)
20002064:	02010113          	addi	sp,sp,32
20002068:	00008067          	ret

2000206c <__udivdi3>:
2000206c:	00060713          	mv	a4,a2
20002070:	00068893          	mv	a7,a3
20002074:	00050813          	mv	a6,a0
20002078:	00058313          	mv	t1,a1
2000207c:	24069463          	bnez	a3,200022c4 <__udivdi3+0x258>
20002080:	200057b7          	lui	a5,0x20005
20002084:	1d878793          	addi	a5,a5,472 # 200051d8 <__clz_tab>
20002088:	0ec5f463          	bgeu	a1,a2,20002170 <__udivdi3+0x104>
2000208c:	000106b7          	lui	a3,0x10
20002090:	0cd67063          	bgeu	a2,a3,20002150 <__udivdi3+0xe4>
20002094:	10063693          	sltiu	a3,a2,256
20002098:	0016b693          	seqz	a3,a3
2000209c:	00369693          	slli	a3,a3,0x3
200020a0:	00d65e33          	srl	t3,a2,a3
200020a4:	01c787b3          	add	a5,a5,t3
200020a8:	0007c783          	lbu	a5,0(a5)
200020ac:	00d787b3          	add	a5,a5,a3
200020b0:	02000693          	li	a3,32
200020b4:	00d78e63          	beq	a5,a3,200020d0 <__udivdi3+0x64>
200020b8:	40f686b3          	sub	a3,a3,a5
200020bc:	00d59333          	sll	t1,a1,a3
200020c0:	00f557b3          	srl	a5,a0,a5
200020c4:	00d61733          	sll	a4,a2,a3
200020c8:	0067e333          	or	t1,a5,t1
200020cc:	00d51833          	sll	a6,a0,a3
200020d0:	01075513          	srli	a0,a4,0x10
200020d4:	02a357b3          	divu	a5,t1,a0
200020d8:	01071593          	slli	a1,a4,0x10
200020dc:	0105d593          	srli	a1,a1,0x10
200020e0:	01085693          	srli	a3,a6,0x10
200020e4:	02a37333          	remu	t1,t1,a0
200020e8:	02f58633          	mul	a2,a1,a5
200020ec:	01031313          	slli	t1,t1,0x10
200020f0:	0066e6b3          	or	a3,a3,t1
200020f4:	00c6fa63          	bgeu	a3,a2,20002108 <__udivdi3+0x9c>
200020f8:	00d706b3          	add	a3,a4,a3
200020fc:	00c6f463          	bgeu	a3,a2,20002104 <__udivdi3+0x98>
20002100:	06e6f263          	bgeu	a3,a4,20002164 <__udivdi3+0xf8>
20002104:	fff78793          	addi	a5,a5,-1
20002108:	40c686b3          	sub	a3,a3,a2
2000210c:	02a6d633          	divu	a2,a3,a0
20002110:	01081813          	slli	a6,a6,0x10
20002114:	01085813          	srli	a6,a6,0x10
20002118:	02a6f6b3          	remu	a3,a3,a0
2000211c:	02c585b3          	mul	a1,a1,a2
20002120:	01069693          	slli	a3,a3,0x10
20002124:	00d86833          	or	a6,a6,a3
20002128:	00b87a63          	bgeu	a6,a1,2000213c <__udivdi3+0xd0>
2000212c:	01070833          	add	a6,a4,a6
20002130:	00b87463          	bgeu	a6,a1,20002138 <__udivdi3+0xcc>
20002134:	18e87463          	bgeu	a6,a4,200022bc <__udivdi3+0x250>
20002138:	fff60613          	addi	a2,a2,-1
2000213c:	01079793          	slli	a5,a5,0x10
20002140:	00c7e7b3          	or	a5,a5,a2
20002144:	00078513          	mv	a0,a5
20002148:	00088593          	mv	a1,a7
2000214c:	00008067          	ret
20002150:	01000e37          	lui	t3,0x1000
20002154:	01800693          	li	a3,24
20002158:	f5c674e3          	bgeu	a2,t3,200020a0 <__udivdi3+0x34>
2000215c:	01000693          	li	a3,16
20002160:	f41ff06f          	j	200020a0 <__udivdi3+0x34>
20002164:	ffe78793          	addi	a5,a5,-2
20002168:	00e686b3          	add	a3,a3,a4
2000216c:	f9dff06f          	j	20002108 <__udivdi3+0x9c>
20002170:	00000693          	li	a3,0
20002174:	00060c63          	beqz	a2,2000218c <__udivdi3+0x120>
20002178:	000106b7          	lui	a3,0x10
2000217c:	06d67863          	bgeu	a2,a3,200021ec <__udivdi3+0x180>
20002180:	10063693          	sltiu	a3,a2,256
20002184:	0016b693          	seqz	a3,a3
20002188:	00369693          	slli	a3,a3,0x3
2000218c:	00d658b3          	srl	a7,a2,a3
20002190:	011787b3          	add	a5,a5,a7
20002194:	0007c783          	lbu	a5,0(a5)
20002198:	00d787b3          	add	a5,a5,a3
2000219c:	02000693          	li	a3,32
200021a0:	06d79063          	bne	a5,a3,20002200 <__udivdi3+0x194>
200021a4:	40c58633          	sub	a2,a1,a2
200021a8:	00100893          	li	a7,1
200021ac:	01075513          	srli	a0,a4,0x10
200021b0:	02a657b3          	divu	a5,a2,a0
200021b4:	01071593          	slli	a1,a4,0x10
200021b8:	0105d593          	srli	a1,a1,0x10
200021bc:	01085693          	srli	a3,a6,0x10
200021c0:	02a67633          	remu	a2,a2,a0
200021c4:	02f58333          	mul	t1,a1,a5
200021c8:	01061613          	slli	a2,a2,0x10
200021cc:	00c6e6b3          	or	a3,a3,a2
200021d0:	0066fa63          	bgeu	a3,t1,200021e4 <__udivdi3+0x178>
200021d4:	00d706b3          	add	a3,a4,a3
200021d8:	0066f463          	bgeu	a3,t1,200021e0 <__udivdi3+0x174>
200021dc:	0ce6fa63          	bgeu	a3,a4,200022b0 <__udivdi3+0x244>
200021e0:	fff78793          	addi	a5,a5,-1
200021e4:	406686b3          	sub	a3,a3,t1
200021e8:	f25ff06f          	j	2000210c <__udivdi3+0xa0>
200021ec:	010008b7          	lui	a7,0x1000
200021f0:	01800693          	li	a3,24
200021f4:	f9167ce3          	bgeu	a2,a7,2000218c <__udivdi3+0x120>
200021f8:	01000693          	li	a3,16
200021fc:	f91ff06f          	j	2000218c <__udivdi3+0x120>
20002200:	40f68833          	sub	a6,a3,a5
20002204:	01061733          	sll	a4,a2,a6
20002208:	00f5d6b3          	srl	a3,a1,a5
2000220c:	010595b3          	sll	a1,a1,a6
20002210:	00f557b3          	srl	a5,a0,a5
20002214:	01051833          	sll	a6,a0,a6
20002218:	01075513          	srli	a0,a4,0x10
2000221c:	02a6d8b3          	divu	a7,a3,a0
20002220:	01071613          	slli	a2,a4,0x10
20002224:	01065613          	srli	a2,a2,0x10
20002228:	00b7e7b3          	or	a5,a5,a1
2000222c:	02a6f6b3          	remu	a3,a3,a0
20002230:	03160333          	mul	t1,a2,a7
20002234:	01069593          	slli	a1,a3,0x10
20002238:	0107d693          	srli	a3,a5,0x10
2000223c:	00b6e6b3          	or	a3,a3,a1
20002240:	0066fa63          	bgeu	a3,t1,20002254 <__udivdi3+0x1e8>
20002244:	00d706b3          	add	a3,a4,a3
20002248:	0066f463          	bgeu	a3,t1,20002250 <__udivdi3+0x1e4>
2000224c:	04e6f663          	bgeu	a3,a4,20002298 <__udivdi3+0x22c>
20002250:	fff88893          	addi	a7,a7,-1 # ffffff <_start-0x1f000001>
20002254:	406686b3          	sub	a3,a3,t1
20002258:	02a6d5b3          	divu	a1,a3,a0
2000225c:	01079793          	slli	a5,a5,0x10
20002260:	0107d793          	srli	a5,a5,0x10
20002264:	02a6f6b3          	remu	a3,a3,a0
20002268:	02b60633          	mul	a2,a2,a1
2000226c:	01069693          	slli	a3,a3,0x10
20002270:	00d7e7b3          	or	a5,a5,a3
20002274:	00c7fa63          	bgeu	a5,a2,20002288 <__udivdi3+0x21c>
20002278:	00f707b3          	add	a5,a4,a5
2000227c:	00c7f463          	bgeu	a5,a2,20002284 <__udivdi3+0x218>
20002280:	02e7f263          	bgeu	a5,a4,200022a4 <__udivdi3+0x238>
20002284:	fff58593          	addi	a1,a1,-1
20002288:	01089893          	slli	a7,a7,0x10
2000228c:	40c78633          	sub	a2,a5,a2
20002290:	00b8e8b3          	or	a7,a7,a1
20002294:	f19ff06f          	j	200021ac <__udivdi3+0x140>
20002298:	ffe88893          	addi	a7,a7,-2
2000229c:	00e686b3          	add	a3,a3,a4
200022a0:	fb5ff06f          	j	20002254 <__udivdi3+0x1e8>
200022a4:	ffe58593          	addi	a1,a1,-2
200022a8:	00e787b3          	add	a5,a5,a4
200022ac:	fddff06f          	j	20002288 <__udivdi3+0x21c>
200022b0:	ffe78793          	addi	a5,a5,-2
200022b4:	00e686b3          	add	a3,a3,a4
200022b8:	f2dff06f          	j	200021e4 <__udivdi3+0x178>
200022bc:	ffe60613          	addi	a2,a2,-2
200022c0:	e7dff06f          	j	2000213c <__udivdi3+0xd0>
200022c4:	18d5e463          	bltu	a1,a3,2000244c <__udivdi3+0x3e0>
200022c8:	000107b7          	lui	a5,0x10
200022cc:	04f6f463          	bgeu	a3,a5,20002314 <__udivdi3+0x2a8>
200022d0:	1006b793          	sltiu	a5,a3,256
200022d4:	0017b793          	seqz	a5,a5
200022d8:	00379793          	slli	a5,a5,0x3
200022dc:	20005737          	lui	a4,0x20005
200022e0:	00f6d833          	srl	a6,a3,a5
200022e4:	1d870713          	addi	a4,a4,472 # 200051d8 <__clz_tab>
200022e8:	01070733          	add	a4,a4,a6
200022ec:	00074703          	lbu	a4,0(a4)
200022f0:	02000813          	li	a6,32
200022f4:	00f70733          	add	a4,a4,a5
200022f8:	03071863          	bne	a4,a6,20002328 <__udivdi3+0x2bc>
200022fc:	00c537b3          	sltu	a5,a0,a2
20002300:	0017b793          	seqz	a5,a5
20002304:	00b6b6b3          	sltu	a3,a3,a1
20002308:	00d7e7b3          	or	a5,a5,a3
2000230c:	00000893          	li	a7,0
20002310:	e35ff06f          	j	20002144 <__udivdi3+0xd8>
20002314:	01000737          	lui	a4,0x1000
20002318:	01800793          	li	a5,24
2000231c:	fce6f0e3          	bgeu	a3,a4,200022dc <__udivdi3+0x270>
20002320:	01000793          	li	a5,16
20002324:	fb9ff06f          	j	200022dc <__udivdi3+0x270>
20002328:	40e80833          	sub	a6,a6,a4
2000232c:	00e658b3          	srl	a7,a2,a4
20002330:	010696b3          	sll	a3,a3,a6
20002334:	00d8e8b3          	or	a7,a7,a3
20002338:	0108de13          	srli	t3,a7,0x10
2000233c:	00e5d6b3          	srl	a3,a1,a4
20002340:	03c6d7b3          	divu	a5,a3,t3
20002344:	01089313          	slli	t1,a7,0x10
20002348:	01035313          	srli	t1,t1,0x10
2000234c:	010595b3          	sll	a1,a1,a6
20002350:	00e55733          	srl	a4,a0,a4
20002354:	00b76733          	or	a4,a4,a1
20002358:	01061633          	sll	a2,a2,a6
2000235c:	03c6f6b3          	remu	a3,a3,t3
20002360:	02f30eb3          	mul	t4,t1,a5
20002364:	01069593          	slli	a1,a3,0x10
20002368:	01075693          	srli	a3,a4,0x10
2000236c:	00b6e6b3          	or	a3,a3,a1
20002370:	01d6fa63          	bgeu	a3,t4,20002384 <__udivdi3+0x318>
20002374:	00d886b3          	add	a3,a7,a3
20002378:	01d6f463          	bgeu	a3,t4,20002380 <__udivdi3+0x314>
2000237c:	0b16fc63          	bgeu	a3,a7,20002434 <__udivdi3+0x3c8>
20002380:	fff78793          	addi	a5,a5,-1 # ffff <_start-0x1fff0001>
20002384:	41d686b3          	sub	a3,a3,t4
20002388:	03c6d5b3          	divu	a1,a3,t3
2000238c:	01071713          	slli	a4,a4,0x10
20002390:	01075713          	srli	a4,a4,0x10
20002394:	03c6f6b3          	remu	a3,a3,t3
20002398:	02b30333          	mul	t1,t1,a1
2000239c:	01069693          	slli	a3,a3,0x10
200023a0:	00d76733          	or	a4,a4,a3
200023a4:	00677a63          	bgeu	a4,t1,200023b8 <__udivdi3+0x34c>
200023a8:	00e88733          	add	a4,a7,a4
200023ac:	00677463          	bgeu	a4,t1,200023b4 <__udivdi3+0x348>
200023b0:	09177863          	bgeu	a4,a7,20002440 <__udivdi3+0x3d4>
200023b4:	fff58593          	addi	a1,a1,-1
200023b8:	01079793          	slli	a5,a5,0x10
200023bc:	00b7e7b3          	or	a5,a5,a1
200023c0:	40670733          	sub	a4,a4,t1
200023c4:	01059593          	slli	a1,a1,0x10
200023c8:	01061313          	slli	t1,a2,0x10
200023cc:	0105d593          	srli	a1,a1,0x10
200023d0:	0107d893          	srli	a7,a5,0x10
200023d4:	01035313          	srli	t1,t1,0x10
200023d8:	01065613          	srli	a2,a2,0x10
200023dc:	02658e33          	mul	t3,a1,t1
200023e0:	02688333          	mul	t1,a7,t1
200023e4:	010e5693          	srli	a3,t3,0x10
200023e8:	02c585b3          	mul	a1,a1,a2
200023ec:	006585b3          	add	a1,a1,t1
200023f0:	00b686b3          	add	a3,a3,a1
200023f4:	02c888b3          	mul	a7,a7,a2
200023f8:	0066f663          	bgeu	a3,t1,20002404 <__udivdi3+0x398>
200023fc:	00010637          	lui	a2,0x10
20002400:	00c888b3          	add	a7,a7,a2
20002404:	0106d613          	srli	a2,a3,0x10
20002408:	01160633          	add	a2,a2,a7
2000240c:	02c76063          	bltu	a4,a2,2000242c <__udivdi3+0x3c0>
20002410:	010e1e13          	slli	t3,t3,0x10
20002414:	01069693          	slli	a3,a3,0x10
20002418:	010e5e13          	srli	t3,t3,0x10
2000241c:	01051533          	sll	a0,a0,a6
20002420:	01c686b3          	add	a3,a3,t3
20002424:	eed574e3          	bgeu	a0,a3,2000230c <__udivdi3+0x2a0>
20002428:	eec712e3          	bne	a4,a2,2000230c <__udivdi3+0x2a0>
2000242c:	fff78793          	addi	a5,a5,-1
20002430:	eddff06f          	j	2000230c <__udivdi3+0x2a0>
20002434:	ffe78793          	addi	a5,a5,-2
20002438:	011686b3          	add	a3,a3,a7
2000243c:	f49ff06f          	j	20002384 <__udivdi3+0x318>
20002440:	ffe58593          	addi	a1,a1,-2
20002444:	01170733          	add	a4,a4,a7
20002448:	f71ff06f          	j	200023b8 <__udivdi3+0x34c>
2000244c:	00000893          	li	a7,0
20002450:	00000793          	li	a5,0
20002454:	cf1ff06f          	j	20002144 <__udivdi3+0xd8>

20002458 <__umoddi3>:
20002458:	00060813          	mv	a6,a2
2000245c:	00050793          	mv	a5,a0
20002460:	00058713          	mv	a4,a1
20002464:	24069463          	bnez	a3,200026ac <__umoddi3+0x254>
20002468:	200056b7          	lui	a3,0x20005
2000246c:	1d868693          	addi	a3,a3,472 # 200051d8 <__clz_tab>
20002470:	0ec5f863          	bgeu	a1,a2,20002560 <__umoddi3+0x108>
20002474:	000108b7          	lui	a7,0x10
20002478:	0d167a63          	bgeu	a2,a7,2000254c <__umoddi3+0xf4>
2000247c:	10063893          	sltiu	a7,a2,256
20002480:	0018b893          	seqz	a7,a7
20002484:	00389893          	slli	a7,a7,0x3
20002488:	01165333          	srl	t1,a2,a7
2000248c:	006686b3          	add	a3,a3,t1
20002490:	0006c683          	lbu	a3,0(a3)
20002494:	02000313          	li	t1,32
20002498:	011686b3          	add	a3,a3,a7
2000249c:	40d308b3          	sub	a7,t1,a3
200024a0:	00668c63          	beq	a3,t1,200024b8 <__umoddi3+0x60>
200024a4:	01159733          	sll	a4,a1,a7
200024a8:	00d556b3          	srl	a3,a0,a3
200024ac:	01161833          	sll	a6,a2,a7
200024b0:	00e6e733          	or	a4,a3,a4
200024b4:	011517b3          	sll	a5,a0,a7
200024b8:	01085513          	srli	a0,a6,0x10
200024bc:	02a756b3          	divu	a3,a4,a0
200024c0:	01081313          	slli	t1,a6,0x10
200024c4:	01035313          	srli	t1,t1,0x10
200024c8:	02a77733          	remu	a4,a4,a0
200024cc:	026686b3          	mul	a3,a3,t1
200024d0:	01071593          	slli	a1,a4,0x10
200024d4:	0107d713          	srli	a4,a5,0x10
200024d8:	00b76733          	or	a4,a4,a1
200024dc:	02d77063          	bgeu	a4,a3,200024fc <__umoddi3+0xa4>
200024e0:	00e80733          	add	a4,a6,a4
200024e4:	010735b3          	sltu	a1,a4,a6
200024e8:	00d73633          	sltu	a2,a4,a3
200024ec:	0015b593          	seqz	a1,a1
200024f0:	00b67633          	and	a2,a2,a1
200024f4:	03060633          	mul	a2,a2,a6
200024f8:	00e60733          	add	a4,a2,a4
200024fc:	40d70733          	sub	a4,a4,a3
20002500:	02a756b3          	divu	a3,a4,a0
20002504:	02a77733          	remu	a4,a4,a0
20002508:	026686b3          	mul	a3,a3,t1
2000250c:	01079513          	slli	a0,a5,0x10
20002510:	01071713          	slli	a4,a4,0x10
20002514:	01055513          	srli	a0,a0,0x10
20002518:	00e56533          	or	a0,a0,a4
2000251c:	02d57063          	bgeu	a0,a3,2000253c <__umoddi3+0xe4>
20002520:	00a80533          	add	a0,a6,a0
20002524:	01053733          	sltu	a4,a0,a6
20002528:	00d537b3          	sltu	a5,a0,a3
2000252c:	00173713          	seqz	a4,a4
20002530:	00e7f7b3          	and	a5,a5,a4
20002534:	030787b3          	mul	a5,a5,a6
20002538:	00a78533          	add	a0,a5,a0
2000253c:	40d50533          	sub	a0,a0,a3
20002540:	01155533          	srl	a0,a0,a7
20002544:	00000593          	li	a1,0
20002548:	00008067          	ret
2000254c:	01000337          	lui	t1,0x1000
20002550:	01800893          	li	a7,24
20002554:	f2667ae3          	bgeu	a2,t1,20002488 <__umoddi3+0x30>
20002558:	01000893          	li	a7,16
2000255c:	f2dff06f          	j	20002488 <__umoddi3+0x30>
20002560:	00000713          	li	a4,0
20002564:	00060c63          	beqz	a2,2000257c <__umoddi3+0x124>
20002568:	00010737          	lui	a4,0x10
2000256c:	08e67463          	bgeu	a2,a4,200025f4 <__umoddi3+0x19c>
20002570:	10063713          	sltiu	a4,a2,256
20002574:	00173713          	seqz	a4,a4
20002578:	00371713          	slli	a4,a4,0x3
2000257c:	00e658b3          	srl	a7,a2,a4
20002580:	011686b3          	add	a3,a3,a7
20002584:	0006c683          	lbu	a3,0(a3)
20002588:	00e686b3          	add	a3,a3,a4
2000258c:	02000713          	li	a4,32
20002590:	40d708b3          	sub	a7,a4,a3
20002594:	06e69a63          	bne	a3,a4,20002608 <__umoddi3+0x1b0>
20002598:	40c586b3          	sub	a3,a1,a2
2000259c:	01085593          	srli	a1,a6,0x10
200025a0:	02b6d633          	divu	a2,a3,a1
200025a4:	01081313          	slli	t1,a6,0x10
200025a8:	01035313          	srli	t1,t1,0x10
200025ac:	0107d713          	srli	a4,a5,0x10
200025b0:	02b6f6b3          	remu	a3,a3,a1
200025b4:	02660633          	mul	a2,a2,t1
200025b8:	01069693          	slli	a3,a3,0x10
200025bc:	00d76733          	or	a4,a4,a3
200025c0:	02c77063          	bgeu	a4,a2,200025e0 <__umoddi3+0x188>
200025c4:	00e80733          	add	a4,a6,a4
200025c8:	01073533          	sltu	a0,a4,a6
200025cc:	00c736b3          	sltu	a3,a4,a2
200025d0:	00153513          	seqz	a0,a0
200025d4:	00a6f6b3          	and	a3,a3,a0
200025d8:	030686b3          	mul	a3,a3,a6
200025dc:	00e68733          	add	a4,a3,a4
200025e0:	40c70733          	sub	a4,a4,a2
200025e4:	02b756b3          	divu	a3,a4,a1
200025e8:	02b77733          	remu	a4,a4,a1
200025ec:	026686b3          	mul	a3,a3,t1
200025f0:	f1dff06f          	j	2000250c <__umoddi3+0xb4>
200025f4:	010008b7          	lui	a7,0x1000
200025f8:	01800713          	li	a4,24
200025fc:	f91670e3          	bgeu	a2,a7,2000257c <__umoddi3+0x124>
20002600:	01000713          	li	a4,16
20002604:	f79ff06f          	j	2000257c <__umoddi3+0x124>
20002608:	01161833          	sll	a6,a2,a7
2000260c:	00d5d733          	srl	a4,a1,a3
20002610:	011517b3          	sll	a5,a0,a7
20002614:	011595b3          	sll	a1,a1,a7
20002618:	00d556b3          	srl	a3,a0,a3
2000261c:	01085513          	srli	a0,a6,0x10
20002620:	00b6e6b3          	or	a3,a3,a1
20002624:	02a755b3          	divu	a1,a4,a0
20002628:	01081e13          	slli	t3,a6,0x10
2000262c:	010e5e13          	srli	t3,t3,0x10
20002630:	02a77733          	remu	a4,a4,a0
20002634:	03c585b3          	mul	a1,a1,t3
20002638:	01071613          	slli	a2,a4,0x10
2000263c:	0106d713          	srli	a4,a3,0x10
20002640:	00c76733          	or	a4,a4,a2
20002644:	02b77063          	bgeu	a4,a1,20002664 <__umoddi3+0x20c>
20002648:	00e80733          	add	a4,a6,a4
2000264c:	01073333          	sltu	t1,a4,a6
20002650:	00b73633          	sltu	a2,a4,a1
20002654:	00133313          	seqz	t1,t1
20002658:	00667633          	and	a2,a2,t1
2000265c:	03060633          	mul	a2,a2,a6
20002660:	00e60733          	add	a4,a2,a4
20002664:	40b70733          	sub	a4,a4,a1
20002668:	02a75633          	divu	a2,a4,a0
2000266c:	01069693          	slli	a3,a3,0x10
20002670:	0106d693          	srli	a3,a3,0x10
20002674:	02a77733          	remu	a4,a4,a0
20002678:	03c60633          	mul	a2,a2,t3
2000267c:	01071713          	slli	a4,a4,0x10
20002680:	00e6e6b3          	or	a3,a3,a4
20002684:	02c6f063          	bgeu	a3,a2,200026a4 <__umoddi3+0x24c>
20002688:	00d806b3          	add	a3,a6,a3
2000268c:	0106b5b3          	sltu	a1,a3,a6
20002690:	00c6b733          	sltu	a4,a3,a2
20002694:	0015b593          	seqz	a1,a1
20002698:	00b77733          	and	a4,a4,a1
2000269c:	03070733          	mul	a4,a4,a6
200026a0:	00d706b3          	add	a3,a4,a3
200026a4:	40c686b3          	sub	a3,a3,a2
200026a8:	ef5ff06f          	j	2000259c <__umoddi3+0x144>
200026ac:	1ad5e663          	bltu	a1,a3,20002858 <__umoddi3+0x400>
200026b0:	00010837          	lui	a6,0x10
200026b4:	0506fc63          	bgeu	a3,a6,2000270c <__umoddi3+0x2b4>
200026b8:	1006b893          	sltiu	a7,a3,256
200026bc:	0018b893          	seqz	a7,a7
200026c0:	00389893          	slli	a7,a7,0x3
200026c4:	20005837          	lui	a6,0x20005
200026c8:	0116d333          	srl	t1,a3,a7
200026cc:	1d880813          	addi	a6,a6,472 # 200051d8 <__clz_tab>
200026d0:	00680833          	add	a6,a6,t1
200026d4:	00084803          	lbu	a6,0(a6)
200026d8:	01180833          	add	a6,a6,a7
200026dc:	02000893          	li	a7,32
200026e0:	05181063          	bne	a6,a7,20002720 <__umoddi3+0x2c8>
200026e4:	00c57463          	bgeu	a0,a2,200026ec <__umoddi3+0x294>
200026e8:	00b6fc63          	bgeu	a3,a1,20002700 <__umoddi3+0x2a8>
200026ec:	40c50733          	sub	a4,a0,a2
200026f0:	00070793          	mv	a5,a4
200026f4:	40d586b3          	sub	a3,a1,a3
200026f8:	00e53733          	sltu	a4,a0,a4
200026fc:	40e68733          	sub	a4,a3,a4
20002700:	00078513          	mv	a0,a5
20002704:	00070593          	mv	a1,a4
20002708:	00008067          	ret
2000270c:	01000837          	lui	a6,0x1000
20002710:	01800893          	li	a7,24
20002714:	fb06f8e3          	bgeu	a3,a6,200026c4 <__umoddi3+0x26c>
20002718:	01000893          	li	a7,16
2000271c:	fa9ff06f          	j	200026c4 <__umoddi3+0x26c>
20002720:	410888b3          	sub	a7,a7,a6
20002724:	011696b3          	sll	a3,a3,a7
20002728:	01065333          	srl	t1,a2,a6
2000272c:	00d36333          	or	t1,t1,a3
20002730:	0105d733          	srl	a4,a1,a6
20002734:	01035e93          	srli	t4,t1,0x10
20002738:	03d756b3          	divu	a3,a4,t4
2000273c:	01031e13          	slli	t3,t1,0x10
20002740:	010e5e13          	srli	t3,t3,0x10
20002744:	011597b3          	sll	a5,a1,a7
20002748:	010555b3          	srl	a1,a0,a6
2000274c:	00f5e5b3          	or	a1,a1,a5
20002750:	0105d793          	srli	a5,a1,0x10
20002754:	01161633          	sll	a2,a2,a7
20002758:	01151533          	sll	a0,a0,a7
2000275c:	03d77733          	remu	a4,a4,t4
20002760:	02de0f33          	mul	t5,t3,a3
20002764:	01071713          	slli	a4,a4,0x10
20002768:	00e7e7b3          	or	a5,a5,a4
2000276c:	01e7fa63          	bgeu	a5,t5,20002780 <__umoddi3+0x328>
20002770:	00f307b3          	add	a5,t1,a5
20002774:	01e7f463          	bgeu	a5,t5,2000277c <__umoddi3+0x324>
20002778:	0e67f263          	bgeu	a5,t1,2000285c <__umoddi3+0x404>
2000277c:	fff68693          	addi	a3,a3,-1
20002780:	41e787b3          	sub	a5,a5,t5
20002784:	03d7d733          	divu	a4,a5,t4
20002788:	01059593          	slli	a1,a1,0x10
2000278c:	0105d593          	srli	a1,a1,0x10
20002790:	03d7f7b3          	remu	a5,a5,t4
20002794:	02ee0e33          	mul	t3,t3,a4
20002798:	01079793          	slli	a5,a5,0x10
2000279c:	00f5e5b3          	or	a1,a1,a5
200027a0:	01c5fa63          	bgeu	a1,t3,200027b4 <__umoddi3+0x35c>
200027a4:	00b305b3          	add	a1,t1,a1
200027a8:	01c5f463          	bgeu	a1,t3,200027b0 <__umoddi3+0x358>
200027ac:	0a65fe63          	bgeu	a1,t1,20002868 <__umoddi3+0x410>
200027b0:	fff70713          	addi	a4,a4,-1 # ffff <_start-0x1fff0001>
200027b4:	01069693          	slli	a3,a3,0x10
200027b8:	00e6e6b3          	or	a3,a3,a4
200027bc:	41c585b3          	sub	a1,a1,t3
200027c0:	01071713          	slli	a4,a4,0x10
200027c4:	01061e13          	slli	t3,a2,0x10
200027c8:	01065793          	srli	a5,a2,0x10
200027cc:	01075713          	srli	a4,a4,0x10
200027d0:	0106d693          	srli	a3,a3,0x10
200027d4:	010e5e13          	srli	t3,t3,0x10
200027d8:	03c70eb3          	mul	t4,a4,t3
200027dc:	03c68e33          	mul	t3,a3,t3
200027e0:	02f70733          	mul	a4,a4,a5
200027e4:	02f686b3          	mul	a3,a3,a5
200027e8:	01c707b3          	add	a5,a4,t3
200027ec:	010ed713          	srli	a4,t4,0x10
200027f0:	00f70733          	add	a4,a4,a5
200027f4:	01c77663          	bgeu	a4,t3,20002800 <__umoddi3+0x3a8>
200027f8:	000107b7          	lui	a5,0x10
200027fc:	00f686b3          	add	a3,a3,a5
20002800:	01075793          	srli	a5,a4,0x10
20002804:	010e9e93          	slli	t4,t4,0x10
20002808:	01071713          	slli	a4,a4,0x10
2000280c:	010ede93          	srli	t4,t4,0x10
20002810:	00d787b3          	add	a5,a5,a3
20002814:	01d70733          	add	a4,a4,t4
20002818:	00f5e663          	bltu	a1,a5,20002824 <__umoddi3+0x3cc>
2000281c:	00e57e63          	bgeu	a0,a4,20002838 <__umoddi3+0x3e0>
20002820:	00f59c63          	bne	a1,a5,20002838 <__umoddi3+0x3e0>
20002824:	40c70633          	sub	a2,a4,a2
20002828:	00c736b3          	sltu	a3,a4,a2
2000282c:	006686b3          	add	a3,a3,t1
20002830:	00060713          	mv	a4,a2
20002834:	40d787b3          	sub	a5,a5,a3
20002838:	40e50733          	sub	a4,a0,a4
2000283c:	00e53533          	sltu	a0,a0,a4
20002840:	40f585b3          	sub	a1,a1,a5
20002844:	40a585b3          	sub	a1,a1,a0
20002848:	01059833          	sll	a6,a1,a6
2000284c:	01175733          	srl	a4,a4,a7
20002850:	00e86533          	or	a0,a6,a4
20002854:	0115d5b3          	srl	a1,a1,a7
20002858:	00008067          	ret
2000285c:	ffe68693          	addi	a3,a3,-2
20002860:	006787b3          	add	a5,a5,t1
20002864:	f1dff06f          	j	20002780 <__umoddi3+0x328>
20002868:	ffe70713          	addi	a4,a4,-2
2000286c:	006585b3          	add	a1,a1,t1
20002870:	f45ff06f          	j	200027b4 <__umoddi3+0x35c>

20002874 <srand>:
20002874:	ff010113          	addi	sp,sp,-16
20002878:	200067b7          	lui	a5,0x20006
2000287c:	00812423          	sw	s0,8(sp)
20002880:	9507a403          	lw	s0,-1712(a5) # 20005950 <_impure_ptr>
20002884:	00912223          	sw	s1,4(sp)
20002888:	00050493          	mv	s1,a0
2000288c:	03042503          	lw	a0,48(s0)
20002890:	00112623          	sw	ra,12(sp)
20002894:	06051663          	bnez	a0,20002900 <srand+0x8c>
20002898:	01800513          	li	a0,24
2000289c:	554000ef          	jal	20002df0 <malloc>
200028a0:	02a42823          	sw	a0,48(s0)
200028a4:	02051063          	bnez	a0,200028c4 <srand+0x50>
200028a8:	200056b7          	lui	a3,0x20005
200028ac:	20005537          	lui	a0,0x20005
200028b0:	2d868693          	addi	a3,a3,728 # 200052d8 <__clz_tab+0x100>
200028b4:	00000613          	li	a2,0
200028b8:	04600593          	li	a1,70
200028bc:	2f050513          	addi	a0,a0,752 # 200052f0 <__clz_tab+0x118>
200028c0:	3cc000ef          	jal	20002c8c <__assert_func>
200028c4:	abcd37b7          	lui	a5,0xabcd3
200028c8:	30e78793          	addi	a5,a5,782 # abcd330e <__stack_top+0x8bccc7a2>
200028cc:	00f52023          	sw	a5,0(a0)
200028d0:	e66d17b7          	lui	a5,0xe66d1
200028d4:	23478793          	addi	a5,a5,564 # e66d1234 <__stack_top+0xc66ca6c8>
200028d8:	00f52223          	sw	a5,4(a0)
200028dc:	0005e7b7          	lui	a5,0x5e
200028e0:	eec78793          	addi	a5,a5,-276 # 5deec <_start-0x1ffa2114>
200028e4:	00f52423          	sw	a5,8(a0)
200028e8:	00b00793          	li	a5,11
200028ec:	00f51623          	sh	a5,12(a0)
200028f0:	00100713          	li	a4,1
200028f4:	00000793          	li	a5,0
200028f8:	00e52823          	sw	a4,16(a0)
200028fc:	00f52a23          	sw	a5,20(a0)
20002900:	00c12083          	lw	ra,12(sp)
20002904:	00812403          	lw	s0,8(sp)
20002908:	00952823          	sw	s1,16(a0)
2000290c:	00052a23          	sw	zero,20(a0)
20002910:	00412483          	lw	s1,4(sp)
20002914:	01010113          	addi	sp,sp,16
20002918:	00008067          	ret

2000291c <rand>:
2000291c:	ff010113          	addi	sp,sp,-16
20002920:	200067b7          	lui	a5,0x20006
20002924:	00812423          	sw	s0,8(sp)
20002928:	9507a403          	lw	s0,-1712(a5) # 20005950 <_impure_ptr>
2000292c:	00112623          	sw	ra,12(sp)
20002930:	03042503          	lw	a0,48(s0)
20002934:	06051663          	bnez	a0,200029a0 <rand+0x84>
20002938:	01800513          	li	a0,24
2000293c:	4b4000ef          	jal	20002df0 <malloc>
20002940:	02a42823          	sw	a0,48(s0)
20002944:	02051063          	bnez	a0,20002964 <rand+0x48>
20002948:	200056b7          	lui	a3,0x20005
2000294c:	20005537          	lui	a0,0x20005
20002950:	2d868693          	addi	a3,a3,728 # 200052d8 <__clz_tab+0x100>
20002954:	00000613          	li	a2,0
20002958:	05200593          	li	a1,82
2000295c:	2f050513          	addi	a0,a0,752 # 200052f0 <__clz_tab+0x118>
20002960:	32c000ef          	jal	20002c8c <__assert_func>
20002964:	abcd37b7          	lui	a5,0xabcd3
20002968:	30e78793          	addi	a5,a5,782 # abcd330e <__stack_top+0x8bccc7a2>
2000296c:	00f52023          	sw	a5,0(a0)
20002970:	e66d17b7          	lui	a5,0xe66d1
20002974:	23478793          	addi	a5,a5,564 # e66d1234 <__stack_top+0xc66ca6c8>
20002978:	00f52223          	sw	a5,4(a0)
2000297c:	0005e7b7          	lui	a5,0x5e
20002980:	eec78793          	addi	a5,a5,-276 # 5deec <_start-0x1ffa2114>
20002984:	00f52423          	sw	a5,8(a0)
20002988:	00b00793          	li	a5,11
2000298c:	00f51623          	sh	a5,12(a0)
20002990:	00100713          	li	a4,1
20002994:	00000793          	li	a5,0
20002998:	00e52823          	sw	a4,16(a0)
2000299c:	00f52a23          	sw	a5,20(a0)
200029a0:	01052683          	lw	a3,16(a0)
200029a4:	01452703          	lw	a4,20(a0)
200029a8:	4c958637          	lui	a2,0x4c958
200029ac:	5851f7b7          	lui	a5,0x5851f
200029b0:	f2d60613          	addi	a2,a2,-211 # 4c957f2d <__stack_top+0x2c9513c1>
200029b4:	42d78793          	addi	a5,a5,1069 # 5851f42d <__stack_top+0x385188c1>
200029b8:	02f687b3          	mul	a5,a3,a5
200029bc:	00c12083          	lw	ra,12(sp)
200029c0:	00812403          	lw	s0,8(sp)
200029c4:	02c70733          	mul	a4,a4,a2
200029c8:	00f70733          	add	a4,a4,a5
200029cc:	02c687b3          	mul	a5,a3,a2
200029d0:	02c6b6b3          	mulhu	a3,a3,a2
200029d4:	00d70733          	add	a4,a4,a3
200029d8:	00178693          	addi	a3,a5,1
200029dc:	00f6b7b3          	sltu	a5,a3,a5
200029e0:	00e787b3          	add	a5,a5,a4
200029e4:	00d52823          	sw	a3,16(a0)
200029e8:	00f52a23          	sw	a5,20(a0)
200029ec:	00179513          	slli	a0,a5,0x1
200029f0:	00155513          	srli	a0,a0,0x1
200029f4:	01010113          	addi	sp,sp,16
200029f8:	00008067          	ret

200029fc <_iprintf_r>:
200029fc:	fc010113          	addi	sp,sp,-64
20002a00:	02c12423          	sw	a2,40(sp)
20002a04:	02d12623          	sw	a3,44(sp)
20002a08:	02e12823          	sw	a4,48(sp)
20002a0c:	02f12a23          	sw	a5,52(sp)
20002a10:	03012c23          	sw	a6,56(sp)
20002a14:	03112e23          	sw	a7,60(sp)
20002a18:	00058613          	mv	a2,a1
20002a1c:	00852583          	lw	a1,8(a0)
20002a20:	02810693          	addi	a3,sp,40
20002a24:	00112e23          	sw	ra,28(sp)
20002a28:	00d12623          	sw	a3,12(sp)
20002a2c:	720000ef          	jal	2000314c <_vfiprintf_r>
20002a30:	01c12083          	lw	ra,28(sp)
20002a34:	04010113          	addi	sp,sp,64
20002a38:	00008067          	ret

20002a3c <iprintf>:
20002a3c:	fc010113          	addi	sp,sp,-64
20002a40:	02f12a23          	sw	a5,52(sp)
20002a44:	200067b7          	lui	a5,0x20006
20002a48:	9507a783          	lw	a5,-1712(a5) # 20005950 <_impure_ptr>
20002a4c:	02c12423          	sw	a2,40(sp)
20002a50:	02d12623          	sw	a3,44(sp)
20002a54:	02b12223          	sw	a1,36(sp)
20002a58:	02e12823          	sw	a4,48(sp)
20002a5c:	03012c23          	sw	a6,56(sp)
20002a60:	03112e23          	sw	a7,60(sp)
20002a64:	0087a583          	lw	a1,8(a5)
20002a68:	02410693          	addi	a3,sp,36
20002a6c:	00050613          	mv	a2,a0
20002a70:	00078513          	mv	a0,a5
20002a74:	00112e23          	sw	ra,28(sp)
20002a78:	00d12623          	sw	a3,12(sp)
20002a7c:	6d0000ef          	jal	2000314c <_vfiprintf_r>
20002a80:	01c12083          	lw	ra,28(sp)
20002a84:	04010113          	addi	sp,sp,64
20002a88:	00008067          	ret

20002a8c <setvbuf>:
20002a8c:	fd010113          	addi	sp,sp,-48
20002a90:	200067b7          	lui	a5,0x20006
20002a94:	01312e23          	sw	s3,28(sp)
20002a98:	9507a983          	lw	s3,-1712(a5) # 20005950 <_impure_ptr>
20002a9c:	02812423          	sw	s0,40(sp)
20002aa0:	02912223          	sw	s1,36(sp)
20002aa4:	03212023          	sw	s2,32(sp)
20002aa8:	01412c23          	sw	s4,24(sp)
20002aac:	02112623          	sw	ra,44(sp)
20002ab0:	01512a23          	sw	s5,20(sp)
20002ab4:	00050413          	mv	s0,a0
20002ab8:	00058913          	mv	s2,a1
20002abc:	00060a13          	mv	s4,a2
20002ac0:	00068493          	mv	s1,a3
20002ac4:	00098a63          	beqz	s3,20002ad8 <setvbuf+0x4c>
20002ac8:	0209a783          	lw	a5,32(s3)
20002acc:	00079663          	bnez	a5,20002ad8 <setvbuf+0x4c>
20002ad0:	00098513          	mv	a0,s3
20002ad4:	438010ef          	jal	20003f0c <__sinit>
20002ad8:	00200793          	li	a5,2
20002adc:	00fa0863          	beq	s4,a5,20002aec <setvbuf+0x60>
20002ae0:	002a3793          	sltiu	a5,s4,2
20002ae4:	18078a63          	beqz	a5,20002c78 <setvbuf+0x1ec>
20002ae8:	1804c863          	bltz	s1,20002c78 <setvbuf+0x1ec>
20002aec:	00040593          	mv	a1,s0
20002af0:	00098513          	mv	a0,s3
20002af4:	0f4010ef          	jal	20003be8 <_fflush_r>
20002af8:	03442583          	lw	a1,52(s0)
20002afc:	00058c63          	beqz	a1,20002b14 <setvbuf+0x88>
20002b00:	04440793          	addi	a5,s0,68
20002b04:	00f58663          	beq	a1,a5,20002b10 <setvbuf+0x84>
20002b08:	00098513          	mv	a0,s3
20002b0c:	1e8000ef          	jal	20002cf4 <_free_r>
20002b10:	02042a23          	sw	zero,52(s0)
20002b14:	00c45783          	lhu	a5,12(s0)
20002b18:	00042c23          	sw	zero,24(s0)
20002b1c:	00042223          	sw	zero,4(s0)
20002b20:	0807f793          	andi	a5,a5,128
20002b24:	00078863          	beqz	a5,20002b34 <setvbuf+0xa8>
20002b28:	01042583          	lw	a1,16(s0)
20002b2c:	00098513          	mv	a0,s3
20002b30:	1c4000ef          	jal	20002cf4 <_free_r>
20002b34:	00c45783          	lhu	a5,12(s0)
20002b38:	fffff737          	lui	a4,0xfffff
20002b3c:	35c70713          	addi	a4,a4,860 # fffff35c <__stack_top+0xdfff87f0>
20002b40:	00e7f7b3          	and	a5,a5,a4
20002b44:	00f41623          	sh	a5,12(s0)
20002b48:	00200793          	li	a5,2
20002b4c:	10fa0a63          	beq	s4,a5,20002c60 <setvbuf+0x1d4>
20002b50:	00c10693          	addi	a3,sp,12
20002b54:	00810613          	addi	a2,sp,8
20002b58:	00040593          	mv	a1,s0
20002b5c:	00098513          	mv	a0,s3
20002b60:	191010ef          	jal	200044f0 <__swhatbuf_r>
20002b64:	00c45783          	lhu	a5,12(s0)
20002b68:	00a7e7b3          	or	a5,a5,a0
20002b6c:	00f41623          	sh	a5,12(s0)
20002b70:	06049863          	bnez	s1,20002be0 <setvbuf+0x154>
20002b74:	00812483          	lw	s1,8(sp)
20002b78:	00048513          	mv	a0,s1
20002b7c:	274000ef          	jal	20002df0 <malloc>
20002b80:	00050913          	mv	s2,a0
20002b84:	00048a93          	mv	s5,s1
20002b88:	0c051263          	bnez	a0,20002c4c <setvbuf+0x1c0>
20002b8c:	00812a83          	lw	s5,8(sp)
20002b90:	0a9a9663          	bne	s5,s1,20002c3c <setvbuf+0x1b0>
20002b94:	fff00513          	li	a0,-1
20002b98:	00c45783          	lhu	a5,12(s0)
20002b9c:	00042423          	sw	zero,8(s0)
20002ba0:	0027e793          	ori	a5,a5,2
20002ba4:	00f41623          	sh	a5,12(s0)
20002ba8:	04740793          	addi	a5,s0,71
20002bac:	00f42023          	sw	a5,0(s0)
20002bb0:	00f42823          	sw	a5,16(s0)
20002bb4:	00100793          	li	a5,1
20002bb8:	00f42a23          	sw	a5,20(s0)
20002bbc:	02c12083          	lw	ra,44(sp)
20002bc0:	02812403          	lw	s0,40(sp)
20002bc4:	02412483          	lw	s1,36(sp)
20002bc8:	02012903          	lw	s2,32(sp)
20002bcc:	01c12983          	lw	s3,28(sp)
20002bd0:	01812a03          	lw	s4,24(sp)
20002bd4:	01412a83          	lw	s5,20(sp)
20002bd8:	03010113          	addi	sp,sp,48
20002bdc:	00008067          	ret
20002be0:	f8090ce3          	beqz	s2,20002b78 <setvbuf+0xec>
20002be4:	0209a783          	lw	a5,32(s3)
20002be8:	00079663          	bnez	a5,20002bf4 <setvbuf+0x168>
20002bec:	00098513          	mv	a0,s3
20002bf0:	31c010ef          	jal	20003f0c <__sinit>
20002bf4:	00100793          	li	a5,1
20002bf8:	00fa1863          	bne	s4,a5,20002c08 <setvbuf+0x17c>
20002bfc:	00c45783          	lhu	a5,12(s0)
20002c00:	0147e7b3          	or	a5,a5,s4
20002c04:	00f41623          	sh	a5,12(s0)
20002c08:	00c41783          	lh	a5,12(s0)
20002c0c:	01242023          	sw	s2,0(s0)
20002c10:	01242823          	sw	s2,16(s0)
20002c14:	00942a23          	sw	s1,20(s0)
20002c18:	0087f713          	andi	a4,a5,8
20002c1c:	04070a63          	beqz	a4,20002c70 <setvbuf+0x1e4>
20002c20:	0017f793          	andi	a5,a5,1
20002c24:	04078263          	beqz	a5,20002c68 <setvbuf+0x1dc>
20002c28:	409004b3          	neg	s1,s1
20002c2c:	00042423          	sw	zero,8(s0)
20002c30:	00942c23          	sw	s1,24(s0)
20002c34:	00000513          	li	a0,0
20002c38:	f85ff06f          	j	20002bbc <setvbuf+0x130>
20002c3c:	000a8513          	mv	a0,s5
20002c40:	1b0000ef          	jal	20002df0 <malloc>
20002c44:	00050913          	mv	s2,a0
20002c48:	f40506e3          	beqz	a0,20002b94 <setvbuf+0x108>
20002c4c:	00c45783          	lhu	a5,12(s0)
20002c50:	000a8493          	mv	s1,s5
20002c54:	0807e793          	ori	a5,a5,128
20002c58:	00f41623          	sh	a5,12(s0)
20002c5c:	f89ff06f          	j	20002be4 <setvbuf+0x158>
20002c60:	00000513          	li	a0,0
20002c64:	f35ff06f          	j	20002b98 <setvbuf+0x10c>
20002c68:	00942423          	sw	s1,8(s0)
20002c6c:	fc9ff06f          	j	20002c34 <setvbuf+0x1a8>
20002c70:	00042423          	sw	zero,8(s0)
20002c74:	fc1ff06f          	j	20002c34 <setvbuf+0x1a8>
20002c78:	fff00513          	li	a0,-1
20002c7c:	f41ff06f          	j	20002bbc <setvbuf+0x130>

20002c80 <__errno>:
20002c80:	200067b7          	lui	a5,0x20006
20002c84:	9507a503          	lw	a0,-1712(a5) # 20005950 <_impure_ptr>
20002c88:	00008067          	ret

20002c8c <__assert_func>:
20002c8c:	200067b7          	lui	a5,0x20006
20002c90:	9507a783          	lw	a5,-1712(a5) # 20005950 <_impure_ptr>
20002c94:	ff010113          	addi	sp,sp,-16
20002c98:	00060813          	mv	a6,a2
20002c9c:	00112623          	sw	ra,12(sp)
20002ca0:	00050893          	mv	a7,a0
20002ca4:	00058713          	mv	a4,a1
20002ca8:	00c7a503          	lw	a0,12(a5)
20002cac:	00068613          	mv	a2,a3
20002cb0:	02080063          	beqz	a6,20002cd0 <__assert_func+0x44>
20002cb4:	200057b7          	lui	a5,0x20005
20002cb8:	33478793          	addi	a5,a5,820 # 20005334 <__clz_tab+0x15c>
20002cbc:	200055b7          	lui	a1,0x20005
20002cc0:	00088693          	mv	a3,a7
20002cc4:	34458593          	addi	a1,a1,836 # 20005344 <__clz_tab+0x16c>
20002cc8:	2d8010ef          	jal	20003fa0 <fiprintf>
20002ccc:	130020ef          	jal	20004dfc <abort>
20002cd0:	200057b7          	lui	a5,0x20005
20002cd4:	34078793          	addi	a5,a5,832 # 20005340 <__clz_tab+0x168>
20002cd8:	00078813          	mv	a6,a5
20002cdc:	fe1ff06f          	j	20002cbc <__assert_func+0x30>

20002ce0 <__assert>:
20002ce0:	ff010113          	addi	sp,sp,-16
20002ce4:	00060693          	mv	a3,a2
20002ce8:	00000613          	li	a2,0
20002cec:	00112623          	sw	ra,12(sp)
20002cf0:	f9dff0ef          	jal	20002c8c <__assert_func>

20002cf4 <_free_r>:
20002cf4:	0e058c63          	beqz	a1,20002dec <_free_r+0xf8>
20002cf8:	ffc5a783          	lw	a5,-4(a1)
20002cfc:	fe010113          	addi	sp,sp,-32
20002d00:	00812c23          	sw	s0,24(sp)
20002d04:	00112e23          	sw	ra,28(sp)
20002d08:	ffc58413          	addi	s0,a1,-4
20002d0c:	0007d463          	bgez	a5,20002d14 <_free_r+0x20>
20002d10:	00f40433          	add	s0,s0,a5
20002d14:	00a12623          	sw	a0,12(sp)
20002d18:	340000ef          	jal	20003058 <__malloc_lock>
20002d1c:	20006737          	lui	a4,0x20006
20002d20:	f6072783          	lw	a5,-160(a4) # 20005f60 <__malloc_free_list>
20002d24:	00c12503          	lw	a0,12(sp)
20002d28:	00079e63          	bnez	a5,20002d44 <_free_r+0x50>
20002d2c:	00042223          	sw	zero,4(s0)
20002d30:	f6872023          	sw	s0,-160(a4)
20002d34:	01812403          	lw	s0,24(sp)
20002d38:	01c12083          	lw	ra,28(sp)
20002d3c:	02010113          	addi	sp,sp,32
20002d40:	31c0006f          	j	2000305c <__malloc_unlock>
20002d44:	02f47463          	bgeu	s0,a5,20002d6c <_free_r+0x78>
20002d48:	00042603          	lw	a2,0(s0)
20002d4c:	00c406b3          	add	a3,s0,a2
20002d50:	00d79a63          	bne	a5,a3,20002d64 <_free_r+0x70>
20002d54:	0007a683          	lw	a3,0(a5)
20002d58:	0047a783          	lw	a5,4(a5)
20002d5c:	00c686b3          	add	a3,a3,a2
20002d60:	00d42023          	sw	a3,0(s0)
20002d64:	00f42223          	sw	a5,4(s0)
20002d68:	fc9ff06f          	j	20002d30 <_free_r+0x3c>
20002d6c:	00078713          	mv	a4,a5
20002d70:	0047a783          	lw	a5,4(a5)
20002d74:	00078463          	beqz	a5,20002d7c <_free_r+0x88>
20002d78:	fef47ae3          	bgeu	s0,a5,20002d6c <_free_r+0x78>
20002d7c:	00072683          	lw	a3,0(a4)
20002d80:	00d70633          	add	a2,a4,a3
20002d84:	02861863          	bne	a2,s0,20002db4 <_free_r+0xc0>
20002d88:	00042603          	lw	a2,0(s0)
20002d8c:	00c686b3          	add	a3,a3,a2
20002d90:	00d72023          	sw	a3,0(a4)
20002d94:	00d70633          	add	a2,a4,a3
20002d98:	f8c79ee3          	bne	a5,a2,20002d34 <_free_r+0x40>
20002d9c:	0007a603          	lw	a2,0(a5)
20002da0:	0047a783          	lw	a5,4(a5)
20002da4:	00d606b3          	add	a3,a2,a3
20002da8:	00d72023          	sw	a3,0(a4)
20002dac:	00f72223          	sw	a5,4(a4)
20002db0:	f85ff06f          	j	20002d34 <_free_r+0x40>
20002db4:	00c47863          	bgeu	s0,a2,20002dc4 <_free_r+0xd0>
20002db8:	00c00793          	li	a5,12
20002dbc:	00f52023          	sw	a5,0(a0)
20002dc0:	f75ff06f          	j	20002d34 <_free_r+0x40>
20002dc4:	00042603          	lw	a2,0(s0)
20002dc8:	00c406b3          	add	a3,s0,a2
20002dcc:	00d79a63          	bne	a5,a3,20002de0 <_free_r+0xec>
20002dd0:	0007a683          	lw	a3,0(a5)
20002dd4:	0047a783          	lw	a5,4(a5)
20002dd8:	00c686b3          	add	a3,a3,a2
20002ddc:	00d42023          	sw	a3,0(s0)
20002de0:	00f42223          	sw	a5,4(s0)
20002de4:	00872223          	sw	s0,4(a4)
20002de8:	f4dff06f          	j	20002d34 <_free_r+0x40>
20002dec:	00008067          	ret

20002df0 <malloc>:
20002df0:	200067b7          	lui	a5,0x20006
20002df4:	00050593          	mv	a1,a0
20002df8:	9507a503          	lw	a0,-1712(a5) # 20005950 <_impure_ptr>
20002dfc:	09c0006f          	j	20002e98 <_malloc_r>

20002e00 <free>:
20002e00:	200067b7          	lui	a5,0x20006
20002e04:	00050593          	mv	a1,a0
20002e08:	9507a503          	lw	a0,-1712(a5) # 20005950 <_impure_ptr>
20002e0c:	ee9ff06f          	j	20002cf4 <_free_r>

20002e10 <sbrk_aligned>:
20002e10:	ff010113          	addi	sp,sp,-16
20002e14:	00812423          	sw	s0,8(sp)
20002e18:	20006437          	lui	s0,0x20006
20002e1c:	f5c42783          	lw	a5,-164(s0) # 20005f5c <__malloc_sbrk_start>
20002e20:	00912223          	sw	s1,4(sp)
20002e24:	01212023          	sw	s2,0(sp)
20002e28:	00112623          	sw	ra,12(sp)
20002e2c:	00050913          	mv	s2,a0
20002e30:	00058493          	mv	s1,a1
20002e34:	00079863          	bnez	a5,20002e44 <sbrk_aligned+0x34>
20002e38:	00000593          	li	a1,0
20002e3c:	6a5010ef          	jal	20004ce0 <_sbrk_r>
20002e40:	f4a42e23          	sw	a0,-164(s0)
20002e44:	00048593          	mv	a1,s1
20002e48:	00090513          	mv	a0,s2
20002e4c:	695010ef          	jal	20004ce0 <_sbrk_r>
20002e50:	fff00493          	li	s1,-1
20002e54:	02951263          	bne	a0,s1,20002e78 <sbrk_aligned+0x68>
20002e58:	fff00413          	li	s0,-1
20002e5c:	00c12083          	lw	ra,12(sp)
20002e60:	00040513          	mv	a0,s0
20002e64:	00812403          	lw	s0,8(sp)
20002e68:	00412483          	lw	s1,4(sp)
20002e6c:	00012903          	lw	s2,0(sp)
20002e70:	01010113          	addi	sp,sp,16
20002e74:	00008067          	ret
20002e78:	00350413          	addi	s0,a0,3
20002e7c:	ffc47413          	andi	s0,s0,-4
20002e80:	fc850ee3          	beq	a0,s0,20002e5c <sbrk_aligned+0x4c>
20002e84:	40a405b3          	sub	a1,s0,a0
20002e88:	00090513          	mv	a0,s2
20002e8c:	655010ef          	jal	20004ce0 <_sbrk_r>
20002e90:	fc9516e3          	bne	a0,s1,20002e5c <sbrk_aligned+0x4c>
20002e94:	fc5ff06f          	j	20002e58 <sbrk_aligned+0x48>

20002e98 <_malloc_r>:
20002e98:	fe010113          	addi	sp,sp,-32
20002e9c:	00912a23          	sw	s1,20(sp)
20002ea0:	00358493          	addi	s1,a1,3
20002ea4:	ffc4f493          	andi	s1,s1,-4
20002ea8:	00112e23          	sw	ra,28(sp)
20002eac:	00812c23          	sw	s0,24(sp)
20002eb0:	01212823          	sw	s2,16(sp)
20002eb4:	01312623          	sw	s3,12(sp)
20002eb8:	01412423          	sw	s4,8(sp)
20002ebc:	00848493          	addi	s1,s1,8
20002ec0:	00c00793          	li	a5,12
20002ec4:	00f4f463          	bgeu	s1,a5,20002ecc <_malloc_r+0x34>
20002ec8:	00078493          	mv	s1,a5
20002ecc:	0004c463          	bltz	s1,20002ed4 <_malloc_r+0x3c>
20002ed0:	02b4f863          	bgeu	s1,a1,20002f00 <_malloc_r+0x68>
20002ed4:	00c00793          	li	a5,12
20002ed8:	00f52023          	sw	a5,0(a0)
20002edc:	00000513          	li	a0,0
20002ee0:	01c12083          	lw	ra,28(sp)
20002ee4:	01812403          	lw	s0,24(sp)
20002ee8:	01412483          	lw	s1,20(sp)
20002eec:	01012903          	lw	s2,16(sp)
20002ef0:	00c12983          	lw	s3,12(sp)
20002ef4:	00812a03          	lw	s4,8(sp)
20002ef8:	02010113          	addi	sp,sp,32
20002efc:	00008067          	ret
20002f00:	00050913          	mv	s2,a0
20002f04:	200069b7          	lui	s3,0x20006
20002f08:	150000ef          	jal	20003058 <__malloc_lock>
20002f0c:	f609a783          	lw	a5,-160(s3) # 20005f60 <__malloc_free_list>
20002f10:	00078413          	mv	s0,a5
20002f14:	08041063          	bnez	s0,20002f94 <_malloc_r+0xfc>
20002f18:	00048593          	mv	a1,s1
20002f1c:	00090513          	mv	a0,s2
20002f20:	ef1ff0ef          	jal	20002e10 <sbrk_aligned>
20002f24:	fff00793          	li	a5,-1
20002f28:	00050413          	mv	s0,a0
20002f2c:	12f51263          	bne	a0,a5,20003050 <_malloc_r+0x1b8>
20002f30:	f609a403          	lw	s0,-160(s3)
20002f34:	00040793          	mv	a5,s0
20002f38:	0e079263          	bnez	a5,2000301c <_malloc_r+0x184>
20002f3c:	10040063          	beqz	s0,2000303c <_malloc_r+0x1a4>
20002f40:	00042a03          	lw	s4,0(s0)
20002f44:	00000593          	li	a1,0
20002f48:	00090513          	mv	a0,s2
20002f4c:	01440a33          	add	s4,s0,s4
20002f50:	591010ef          	jal	20004ce0 <_sbrk_r>
20002f54:	0eaa1463          	bne	s4,a0,2000303c <_malloc_r+0x1a4>
20002f58:	00042783          	lw	a5,0(s0)
20002f5c:	00090513          	mv	a0,s2
20002f60:	40f484b3          	sub	s1,s1,a5
20002f64:	00048593          	mv	a1,s1
20002f68:	ea9ff0ef          	jal	20002e10 <sbrk_aligned>
20002f6c:	fff00793          	li	a5,-1
20002f70:	0cf50663          	beq	a0,a5,2000303c <_malloc_r+0x1a4>
20002f74:	00042783          	lw	a5,0(s0)
20002f78:	009787b3          	add	a5,a5,s1
20002f7c:	00f42023          	sw	a5,0(s0)
20002f80:	f609a783          	lw	a5,-160(s3)
20002f84:	0047a703          	lw	a4,4(a5)
20002f88:	0a071063          	bnez	a4,20003028 <_malloc_r+0x190>
20002f8c:	f609a023          	sw	zero,-160(s3)
20002f90:	0340006f          	j	20002fc4 <_malloc_r+0x12c>
20002f94:	00042683          	lw	a3,0(s0)
20002f98:	409686b3          	sub	a3,a3,s1
20002f9c:	0606ca63          	bltz	a3,20003010 <_malloc_r+0x178>
20002fa0:	00b00713          	li	a4,11
20002fa4:	04d77a63          	bgeu	a4,a3,20002ff8 <_malloc_r+0x160>
20002fa8:	00942023          	sw	s1,0(s0)
20002fac:	00940733          	add	a4,s0,s1
20002fb0:	04879063          	bne	a5,s0,20002ff0 <_malloc_r+0x158>
20002fb4:	f6e9a023          	sw	a4,-160(s3)
20002fb8:	00442783          	lw	a5,4(s0)
20002fbc:	00d72023          	sw	a3,0(a4)
20002fc0:	00f72223          	sw	a5,4(a4)
20002fc4:	00090513          	mv	a0,s2
20002fc8:	094000ef          	jal	2000305c <__malloc_unlock>
20002fcc:	00b40513          	addi	a0,s0,11
20002fd0:	00440793          	addi	a5,s0,4
20002fd4:	ff857513          	andi	a0,a0,-8
20002fd8:	40f50733          	sub	a4,a0,a5
20002fdc:	f0f502e3          	beq	a0,a5,20002ee0 <_malloc_r+0x48>
20002fe0:	00e40433          	add	s0,s0,a4
20002fe4:	40a787b3          	sub	a5,a5,a0
20002fe8:	00f42023          	sw	a5,0(s0)
20002fec:	ef5ff06f          	j	20002ee0 <_malloc_r+0x48>
20002ff0:	00e7a223          	sw	a4,4(a5)
20002ff4:	fc5ff06f          	j	20002fb8 <_malloc_r+0x120>
20002ff8:	00442703          	lw	a4,4(s0)
20002ffc:	00879663          	bne	a5,s0,20003008 <_malloc_r+0x170>
20003000:	f6e9a023          	sw	a4,-160(s3)
20003004:	fc1ff06f          	j	20002fc4 <_malloc_r+0x12c>
20003008:	00e7a223          	sw	a4,4(a5)
2000300c:	fb9ff06f          	j	20002fc4 <_malloc_r+0x12c>
20003010:	00040793          	mv	a5,s0
20003014:	00442403          	lw	s0,4(s0)
20003018:	efdff06f          	j	20002f14 <_malloc_r+0x7c>
2000301c:	00078413          	mv	s0,a5
20003020:	0047a783          	lw	a5,4(a5)
20003024:	f15ff06f          	j	20002f38 <_malloc_r+0xa0>
20003028:	00078713          	mv	a4,a5
2000302c:	0047a783          	lw	a5,4(a5)
20003030:	fe879ce3          	bne	a5,s0,20003028 <_malloc_r+0x190>
20003034:	00072223          	sw	zero,4(a4)
20003038:	f8dff06f          	j	20002fc4 <_malloc_r+0x12c>
2000303c:	00c00793          	li	a5,12
20003040:	00f92023          	sw	a5,0(s2)
20003044:	00090513          	mv	a0,s2
20003048:	014000ef          	jal	2000305c <__malloc_unlock>
2000304c:	e91ff06f          	j	20002edc <_malloc_r+0x44>
20003050:	00952023          	sw	s1,0(a0)
20003054:	f71ff06f          	j	20002fc4 <_malloc_r+0x12c>

20003058 <__malloc_lock>:
20003058:	00008067          	ret

2000305c <__malloc_unlock>:
2000305c:	00008067          	ret

20003060 <__sfputc_r>:
20003060:	00862783          	lw	a5,8(a2)
20003064:	fff78793          	addi	a5,a5,-1
20003068:	00f62423          	sw	a5,8(a2)
2000306c:	0007dc63          	bgez	a5,20003084 <__sfputc_r+0x24>
20003070:	01862703          	lw	a4,24(a2)
20003074:	00e7c663          	blt	a5,a4,20003080 <__sfputc_r+0x20>
20003078:	ff658793          	addi	a5,a1,-10
2000307c:	00079463          	bnez	a5,20003084 <__sfputc_r+0x24>
20003080:	7040106f          	j	20004784 <__swbuf_r>
20003084:	00062783          	lw	a5,0(a2)
20003088:	00058513          	mv	a0,a1
2000308c:	00178713          	addi	a4,a5,1
20003090:	00e62023          	sw	a4,0(a2)
20003094:	00b78023          	sb	a1,0(a5)
20003098:	00008067          	ret

2000309c <__sfputs_r>:
2000309c:	fe010113          	addi	sp,sp,-32
200030a0:	00812c23          	sw	s0,24(sp)
200030a4:	00912a23          	sw	s1,20(sp)
200030a8:	01212823          	sw	s2,16(sp)
200030ac:	01312623          	sw	s3,12(sp)
200030b0:	01412423          	sw	s4,8(sp)
200030b4:	00112e23          	sw	ra,28(sp)
200030b8:	00050993          	mv	s3,a0
200030bc:	00058a13          	mv	s4,a1
200030c0:	00060413          	mv	s0,a2
200030c4:	00d604b3          	add	s1,a2,a3
200030c8:	fff00913          	li	s2,-1
200030cc:	00941663          	bne	s0,s1,200030d8 <__sfputs_r+0x3c>
200030d0:	00000513          	li	a0,0
200030d4:	01c0006f          	j	200030f0 <__sfputs_r+0x54>
200030d8:	00044583          	lbu	a1,0(s0)
200030dc:	000a0613          	mv	a2,s4
200030e0:	00098513          	mv	a0,s3
200030e4:	f7dff0ef          	jal	20003060 <__sfputc_r>
200030e8:	00140413          	addi	s0,s0,1
200030ec:	ff2510e3          	bne	a0,s2,200030cc <__sfputs_r+0x30>
200030f0:	01c12083          	lw	ra,28(sp)
200030f4:	01812403          	lw	s0,24(sp)
200030f8:	01412483          	lw	s1,20(sp)
200030fc:	01012903          	lw	s2,16(sp)
20003100:	00c12983          	lw	s3,12(sp)
20003104:	00812a03          	lw	s4,8(sp)
20003108:	02010113          	addi	sp,sp,32
2000310c:	00008067          	ret

20003110 <__sprint_r>:
20003110:	00862783          	lw	a5,8(a2)
20003114:	ff010113          	addi	sp,sp,-16
20003118:	00812423          	sw	s0,8(sp)
2000311c:	00112623          	sw	ra,12(sp)
20003120:	00060413          	mv	s0,a2
20003124:	02078063          	beqz	a5,20003144 <__sprint_r+0x34>
20003128:	6c1000ef          	jal	20003fe8 <__sfvwrite_r>
2000312c:	00042423          	sw	zero,8(s0)
20003130:	00c12083          	lw	ra,12(sp)
20003134:	00042223          	sw	zero,4(s0)
20003138:	00812403          	lw	s0,8(sp)
2000313c:	01010113          	addi	sp,sp,16
20003140:	00008067          	ret
20003144:	00000513          	li	a0,0
20003148:	fe9ff06f          	j	20003130 <__sprint_r+0x20>

2000314c <_vfiprintf_r>:
2000314c:	f5010113          	addi	sp,sp,-176
20003150:	0a812423          	sw	s0,168(sp)
20003154:	0a912223          	sw	s1,164(sp)
20003158:	09312e23          	sw	s3,156(sp)
2000315c:	09412c23          	sw	s4,152(sp)
20003160:	0a112623          	sw	ra,172(sp)
20003164:	0b212023          	sw	s2,160(sp)
20003168:	09512a23          	sw	s5,148(sp)
2000316c:	09612823          	sw	s6,144(sp)
20003170:	09712623          	sw	s7,140(sp)
20003174:	09812423          	sw	s8,136(sp)
20003178:	09912223          	sw	s9,132(sp)
2000317c:	00050993          	mv	s3,a0
20003180:	00058493          	mv	s1,a1
20003184:	00060413          	mv	s0,a2
20003188:	00068a13          	mv	s4,a3
2000318c:	00050863          	beqz	a0,2000319c <_vfiprintf_r+0x50>
20003190:	02052783          	lw	a5,32(a0)
20003194:	00079463          	bnez	a5,2000319c <_vfiprintf_r+0x50>
20003198:	575000ef          	jal	20003f0c <__sinit>
2000319c:	00c4d783          	lhu	a5,12(s1)
200031a0:	0087f793          	andi	a5,a5,8
200031a4:	10078a63          	beqz	a5,200032b8 <_vfiprintf_r+0x16c>
200031a8:	0104a783          	lw	a5,16(s1)
200031ac:	10078663          	beqz	a5,200032b8 <_vfiprintf_r+0x16c>
200031b0:	02000793          	li	a5,32
200031b4:	02f10ca3          	sb	a5,57(sp)
200031b8:	01412e23          	sw	s4,28(sp)
200031bc:	03000793          	li	a5,48
200031c0:	20005a37          	lui	s4,0x20005
200031c4:	02012a23          	sw	zero,52(sp)
200031c8:	02f10d23          	sb	a5,58(sp)
200031cc:	fff00a93          	li	s5,-1
200031d0:	374a0a13          	addi	s4,s4,884 # 20005374 <__clz_tab+0x19c>
200031d4:	00100b93          	li	s7,1
200031d8:	00a00b13          	li	s6,10
200031dc:	00040c13          	mv	s8,s0
200031e0:	000c4783          	lbu	a5,0(s8)
200031e4:	00f03cb3          	snez	s9,a5
200031e8:	fdb78793          	addi	a5,a5,-37
200031ec:	00f037b3          	snez	a5,a5
200031f0:	00fcfcb3          	and	s9,s9,a5
200031f4:	100c9663          	bnez	s9,20003300 <_vfiprintf_r+0x1b4>
200031f8:	408c06b3          	sub	a3,s8,s0
200031fc:	028c0663          	beq	s8,s0,20003228 <_vfiprintf_r+0xdc>
20003200:	00040613          	mv	a2,s0
20003204:	00048593          	mv	a1,s1
20003208:	00098513          	mv	a0,s3
2000320c:	00d12623          	sw	a3,12(sp)
20003210:	e8dff0ef          	jal	2000309c <__sfputs_r>
20003214:	29550063          	beq	a0,s5,20003494 <_vfiprintf_r+0x348>
20003218:	03412783          	lw	a5,52(sp)
2000321c:	00c12683          	lw	a3,12(sp)
20003220:	00d787b3          	add	a5,a5,a3
20003224:	02f12a23          	sw	a5,52(sp)
20003228:	000c4783          	lbu	a5,0(s8)
2000322c:	26078463          	beqz	a5,20003494 <_vfiprintf_r+0x348>
20003230:	001c0413          	addi	s0,s8,1
20003234:	02012023          	sw	zero,32(sp)
20003238:	02012623          	sw	zero,44(sp)
2000323c:	03512223          	sw	s5,36(sp)
20003240:	02012423          	sw	zero,40(sp)
20003244:	060101a3          	sb	zero,99(sp)
20003248:	06012c23          	sw	zero,120(sp)
2000324c:	00044583          	lbu	a1,0(s0)
20003250:	00500613          	li	a2,5
20003254:	000a0513          	mv	a0,s4
20003258:	758010ef          	jal	200049b0 <memchr>
2000325c:	02012783          	lw	a5,32(sp)
20003260:	00140693          	addi	a3,s0,1
20003264:	0a051263          	bnez	a0,20003308 <_vfiprintf_r+0x1bc>
20003268:	0107f713          	andi	a4,a5,16
2000326c:	00070663          	beqz	a4,20003278 <_vfiprintf_r+0x12c>
20003270:	02000713          	li	a4,32
20003274:	06e101a3          	sb	a4,99(sp)
20003278:	0087f713          	andi	a4,a5,8
2000327c:	00070663          	beqz	a4,20003288 <_vfiprintf_r+0x13c>
20003280:	02b00713          	li	a4,43
20003284:	06e101a3          	sb	a4,99(sp)
20003288:	00044603          	lbu	a2,0(s0)
2000328c:	02a00713          	li	a4,42
20003290:	08e60863          	beq	a2,a4,20003320 <_vfiprintf_r+0x1d4>
20003294:	02c12783          	lw	a5,44(sp)
20003298:	00000693          	li	a3,0
2000329c:	00900613          	li	a2,9
200032a0:	00044703          	lbu	a4,0(s0)
200032a4:	fd070713          	addi	a4,a4,-48
200032a8:	0ee67263          	bgeu	a2,a4,2000338c <_vfiprintf_r+0x240>
200032ac:	08068863          	beqz	a3,2000333c <_vfiprintf_r+0x1f0>
200032b0:	02f12623          	sw	a5,44(sp)
200032b4:	0880006f          	j	2000333c <_vfiprintf_r+0x1f0>
200032b8:	00048593          	mv	a1,s1
200032bc:	00098513          	mv	a0,s3
200032c0:	5d4010ef          	jal	20004894 <__swsetup_r>
200032c4:	ee0506e3          	beqz	a0,200031b0 <_vfiprintf_r+0x64>
200032c8:	fff00513          	li	a0,-1
200032cc:	0ac12083          	lw	ra,172(sp)
200032d0:	0a812403          	lw	s0,168(sp)
200032d4:	0a412483          	lw	s1,164(sp)
200032d8:	0a012903          	lw	s2,160(sp)
200032dc:	09c12983          	lw	s3,156(sp)
200032e0:	09812a03          	lw	s4,152(sp)
200032e4:	09412a83          	lw	s5,148(sp)
200032e8:	09012b03          	lw	s6,144(sp)
200032ec:	08c12b83          	lw	s7,140(sp)
200032f0:	08812c03          	lw	s8,136(sp)
200032f4:	08412c83          	lw	s9,132(sp)
200032f8:	0b010113          	addi	sp,sp,176
200032fc:	00008067          	ret
20003300:	001c0c13          	addi	s8,s8,1
20003304:	eddff06f          	j	200031e0 <_vfiprintf_r+0x94>
20003308:	41450533          	sub	a0,a0,s4
2000330c:	00ab9533          	sll	a0,s7,a0
20003310:	00f56533          	or	a0,a0,a5
20003314:	02a12023          	sw	a0,32(sp)
20003318:	00068413          	mv	s0,a3
2000331c:	f31ff06f          	j	2000324c <_vfiprintf_r+0x100>
20003320:	01c12703          	lw	a4,28(sp)
20003324:	00470613          	addi	a2,a4,4
20003328:	00072703          	lw	a4,0(a4)
2000332c:	00c12e23          	sw	a2,28(sp)
20003330:	04074463          	bltz	a4,20003378 <_vfiprintf_r+0x22c>
20003334:	02e12623          	sw	a4,44(sp)
20003338:	00068413          	mv	s0,a3
2000333c:	00044703          	lbu	a4,0(s0)
20003340:	02e00793          	li	a5,46
20003344:	06f71e63          	bne	a4,a5,200033c0 <_vfiprintf_r+0x274>
20003348:	00144703          	lbu	a4,1(s0)
2000334c:	02a00793          	li	a5,42
20003350:	04f71863          	bne	a4,a5,200033a0 <_vfiprintf_r+0x254>
20003354:	01c12783          	lw	a5,28(sp)
20003358:	00240413          	addi	s0,s0,2
2000335c:	00478713          	addi	a4,a5,4
20003360:	0007a783          	lw	a5,0(a5)
20003364:	00e12e23          	sw	a4,28(sp)
20003368:	0007d463          	bgez	a5,20003370 <_vfiprintf_r+0x224>
2000336c:	fff00793          	li	a5,-1
20003370:	02f12223          	sw	a5,36(sp)
20003374:	04c0006f          	j	200033c0 <_vfiprintf_r+0x274>
20003378:	40e00733          	neg	a4,a4
2000337c:	0027e793          	ori	a5,a5,2
20003380:	02e12623          	sw	a4,44(sp)
20003384:	02f12023          	sw	a5,32(sp)
20003388:	fb1ff06f          	j	20003338 <_vfiprintf_r+0x1ec>
2000338c:	036787b3          	mul	a5,a5,s6
20003390:	00140413          	addi	s0,s0,1
20003394:	00100693          	li	a3,1
20003398:	00e787b3          	add	a5,a5,a4
2000339c:	f05ff06f          	j	200032a0 <_vfiprintf_r+0x154>
200033a0:	00140413          	addi	s0,s0,1
200033a4:	02012223          	sw	zero,36(sp)
200033a8:	00000793          	li	a5,0
200033ac:	00900693          	li	a3,9
200033b0:	00044703          	lbu	a4,0(s0)
200033b4:	fd070713          	addi	a4,a4,-48
200033b8:	08e6f863          	bgeu	a3,a4,20003448 <_vfiprintf_r+0x2fc>
200033bc:	fa0c9ae3          	bnez	s9,20003370 <_vfiprintf_r+0x224>
200033c0:	00044583          	lbu	a1,0(s0)
200033c4:	20005c37          	lui	s8,0x20005
200033c8:	00300613          	li	a2,3
200033cc:	37cc0513          	addi	a0,s8,892 # 2000537c <__clz_tab+0x1a4>
200033d0:	5e0010ef          	jal	200049b0 <memchr>
200033d4:	02050263          	beqz	a0,200033f8 <_vfiprintf_r+0x2ac>
200033d8:	02012783          	lw	a5,32(sp)
200033dc:	37cc0c13          	addi	s8,s8,892
200033e0:	41850533          	sub	a0,a0,s8
200033e4:	04000713          	li	a4,64
200033e8:	00a71733          	sll	a4,a4,a0
200033ec:	00e7e7b3          	or	a5,a5,a4
200033f0:	00140413          	addi	s0,s0,1
200033f4:	02f12023          	sw	a5,32(sp)
200033f8:	00044583          	lbu	a1,0(s0)
200033fc:	20005537          	lui	a0,0x20005
20003400:	00600613          	li	a2,6
20003404:	38050513          	addi	a0,a0,896 # 20005380 <__clz_tab+0x1a8>
20003408:	02b10c23          	sb	a1,56(sp)
2000340c:	5a4010ef          	jal	200049b0 <memchr>
20003410:	08050c63          	beqz	a0,200034a8 <_vfiprintf_r+0x35c>
20003414:	00000793          	li	a5,0
20003418:	04079a63          	bnez	a5,2000346c <_vfiprintf_r+0x320>
2000341c:	02012703          	lw	a4,32(sp)
20003420:	01c12783          	lw	a5,28(sp)
20003424:	10077713          	andi	a4,a4,256
20003428:	02070a63          	beqz	a4,2000345c <_vfiprintf_r+0x310>
2000342c:	00478793          	addi	a5,a5,4
20003430:	00f12e23          	sw	a5,28(sp)
20003434:	03412783          	lw	a5,52(sp)
20003438:	00140413          	addi	s0,s0,1
2000343c:	012787b3          	add	a5,a5,s2
20003440:	02f12a23          	sw	a5,52(sp)
20003444:	d99ff06f          	j	200031dc <_vfiprintf_r+0x90>
20003448:	036787b3          	mul	a5,a5,s6
2000344c:	00140413          	addi	s0,s0,1
20003450:	00100c93          	li	s9,1
20003454:	00e787b3          	add	a5,a5,a4
20003458:	f59ff06f          	j	200033b0 <_vfiprintf_r+0x264>
2000345c:	00778793          	addi	a5,a5,7
20003460:	ff87f793          	andi	a5,a5,-8
20003464:	00878793          	addi	a5,a5,8
20003468:	fc9ff06f          	j	20003430 <_vfiprintf_r+0x2e4>
2000346c:	200036b7          	lui	a3,0x20003
20003470:	01c10713          	addi	a4,sp,28
20003474:	09c68693          	addi	a3,a3,156 # 2000309c <__sfputs_r>
20003478:	00048613          	mv	a2,s1
2000347c:	02010593          	addi	a1,sp,32
20003480:	00098513          	mv	a0,s3
20003484:	00000097          	auipc	ra,0x0
20003488:	000000e7          	jalr	zero # 0 <_start-0x20000000>
2000348c:	00050913          	mv	s2,a0
20003490:	fb5512e3          	bne	a0,s5,20003434 <_vfiprintf_r+0x2e8>
20003494:	00c4d783          	lhu	a5,12(s1)
20003498:	0407f793          	andi	a5,a5,64
2000349c:	e20796e3          	bnez	a5,200032c8 <_vfiprintf_r+0x17c>
200034a0:	03412503          	lw	a0,52(sp)
200034a4:	e29ff06f          	j	200032cc <_vfiprintf_r+0x180>
200034a8:	200036b7          	lui	a3,0x20003
200034ac:	01c10713          	addi	a4,sp,28
200034b0:	09c68693          	addi	a3,a3,156 # 2000309c <__sfputs_r>
200034b4:	00048613          	mv	a2,s1
200034b8:	02010593          	addi	a1,sp,32
200034bc:	00098513          	mv	a0,s3
200034c0:	1d4000ef          	jal	20003694 <_printf_i>
200034c4:	fc9ff06f          	j	2000348c <_vfiprintf_r+0x340>

200034c8 <vfiprintf>:
200034c8:	200067b7          	lui	a5,0x20006
200034cc:	00060693          	mv	a3,a2
200034d0:	00058613          	mv	a2,a1
200034d4:	00050593          	mv	a1,a0
200034d8:	9507a503          	lw	a0,-1712(a5) # 20005950 <_impure_ptr>
200034dc:	c71ff06f          	j	2000314c <_vfiprintf_r>

200034e0 <_printf_common>:
200034e0:	fd010113          	addi	sp,sp,-48
200034e4:	01312e23          	sw	s3,28(sp)
200034e8:	0105a783          	lw	a5,16(a1)
200034ec:	00070993          	mv	s3,a4
200034f0:	0085a703          	lw	a4,8(a1)
200034f4:	02812423          	sw	s0,40(sp)
200034f8:	03212023          	sw	s2,32(sp)
200034fc:	01612823          	sw	s6,16(sp)
20003500:	01712623          	sw	s7,12(sp)
20003504:	02112623          	sw	ra,44(sp)
20003508:	02912223          	sw	s1,36(sp)
2000350c:	01412c23          	sw	s4,24(sp)
20003510:	01512a23          	sw	s5,20(sp)
20003514:	00050b13          	mv	s6,a0
20003518:	00058413          	mv	s0,a1
2000351c:	00060913          	mv	s2,a2
20003520:	00068b93          	mv	s7,a3
20003524:	00e7d463          	bge	a5,a4,2000352c <_printf_common+0x4c>
20003528:	00070793          	mv	a5,a4
2000352c:	00f92023          	sw	a5,0(s2)
20003530:	04344703          	lbu	a4,67(s0)
20003534:	00070663          	beqz	a4,20003540 <_printf_common+0x60>
20003538:	00178793          	addi	a5,a5,1
2000353c:	00f92023          	sw	a5,0(s2)
20003540:	00042783          	lw	a5,0(s0)
20003544:	0207f793          	andi	a5,a5,32
20003548:	00078863          	beqz	a5,20003558 <_printf_common+0x78>
2000354c:	00092783          	lw	a5,0(s2)
20003550:	00278793          	addi	a5,a5,2
20003554:	00f92023          	sw	a5,0(s2)
20003558:	00042483          	lw	s1,0(s0)
2000355c:	0064f493          	andi	s1,s1,6
20003560:	00049e63          	bnez	s1,2000357c <_printf_common+0x9c>
20003564:	01940a13          	addi	s4,s0,25
20003568:	fff00a93          	li	s5,-1
2000356c:	00c42783          	lw	a5,12(s0)
20003570:	00092703          	lw	a4,0(s2)
20003574:	40e787b3          	sub	a5,a5,a4
20003578:	08f4c463          	blt	s1,a5,20003600 <_printf_common+0x120>
2000357c:	00042783          	lw	a5,0(s0)
20003580:	04344683          	lbu	a3,67(s0)
20003584:	0207f793          	andi	a5,a5,32
20003588:	00d036b3          	snez	a3,a3
2000358c:	0c079263          	bnez	a5,20003650 <_printf_common+0x170>
20003590:	04340613          	addi	a2,s0,67
20003594:	000b8593          	mv	a1,s7
20003598:	000b0513          	mv	a0,s6
2000359c:	000980e7          	jalr	s3
200035a0:	fff00793          	li	a5,-1
200035a4:	06f50a63          	beq	a0,a5,20003618 <_printf_common+0x138>
200035a8:	00042783          	lw	a5,0(s0)
200035ac:	00400713          	li	a4,4
200035b0:	00000493          	li	s1,0
200035b4:	0067f793          	andi	a5,a5,6
200035b8:	00e79e63          	bne	a5,a4,200035d4 <_printf_common+0xf4>
200035bc:	00092783          	lw	a5,0(s2)
200035c0:	00c42483          	lw	s1,12(s0)
200035c4:	40f484b3          	sub	s1,s1,a5
200035c8:	fff4c793          	not	a5,s1
200035cc:	41f7d793          	srai	a5,a5,0x1f
200035d0:	00f4f4b3          	and	s1,s1,a5
200035d4:	00842783          	lw	a5,8(s0)
200035d8:	01042703          	lw	a4,16(s0)
200035dc:	00f75663          	bge	a4,a5,200035e8 <_printf_common+0x108>
200035e0:	40e787b3          	sub	a5,a5,a4
200035e4:	00f484b3          	add	s1,s1,a5
200035e8:	00000913          	li	s2,0
200035ec:	01a40413          	addi	s0,s0,26
200035f0:	fff00a13          	li	s4,-1
200035f4:	09249063          	bne	s1,s2,20003674 <_printf_common+0x194>
200035f8:	00000513          	li	a0,0
200035fc:	0200006f          	j	2000361c <_printf_common+0x13c>
20003600:	00100693          	li	a3,1
20003604:	000a0613          	mv	a2,s4
20003608:	000b8593          	mv	a1,s7
2000360c:	000b0513          	mv	a0,s6
20003610:	000980e7          	jalr	s3
20003614:	03551a63          	bne	a0,s5,20003648 <_printf_common+0x168>
20003618:	fff00513          	li	a0,-1
2000361c:	02c12083          	lw	ra,44(sp)
20003620:	02812403          	lw	s0,40(sp)
20003624:	02412483          	lw	s1,36(sp)
20003628:	02012903          	lw	s2,32(sp)
2000362c:	01c12983          	lw	s3,28(sp)
20003630:	01812a03          	lw	s4,24(sp)
20003634:	01412a83          	lw	s5,20(sp)
20003638:	01012b03          	lw	s6,16(sp)
2000363c:	00c12b83          	lw	s7,12(sp)
20003640:	03010113          	addi	sp,sp,48
20003644:	00008067          	ret
20003648:	00148493          	addi	s1,s1,1
2000364c:	f21ff06f          	j	2000356c <_printf_common+0x8c>
20003650:	00d40733          	add	a4,s0,a3
20003654:	03000613          	li	a2,48
20003658:	04c701a3          	sb	a2,67(a4)
2000365c:	04544703          	lbu	a4,69(s0)
20003660:	00168793          	addi	a5,a3,1
20003664:	00f407b3          	add	a5,s0,a5
20003668:	00268693          	addi	a3,a3,2
2000366c:	04e781a3          	sb	a4,67(a5)
20003670:	f21ff06f          	j	20003590 <_printf_common+0xb0>
20003674:	00100693          	li	a3,1
20003678:	00040613          	mv	a2,s0
2000367c:	000b8593          	mv	a1,s7
20003680:	000b0513          	mv	a0,s6
20003684:	000980e7          	jalr	s3
20003688:	f94508e3          	beq	a0,s4,20003618 <_printf_common+0x138>
2000368c:	00190913          	addi	s2,s2,1
20003690:	f65ff06f          	j	200035f4 <_printf_common+0x114>

20003694 <_printf_i>:
20003694:	fc010113          	addi	sp,sp,-64
20003698:	02812c23          	sw	s0,56(sp)
2000369c:	02912a23          	sw	s1,52(sp)
200036a0:	03412423          	sw	s4,40(sp)
200036a4:	03512223          	sw	s5,36(sp)
200036a8:	02112e23          	sw	ra,60(sp)
200036ac:	03212823          	sw	s2,48(sp)
200036b0:	03312623          	sw	s3,44(sp)
200036b4:	0185c783          	lbu	a5,24(a1)
200036b8:	00068493          	mv	s1,a3
200036bc:	07800693          	li	a3,120
200036c0:	00050a13          	mv	s4,a0
200036c4:	00058413          	mv	s0,a1
200036c8:	00060a93          	mv	s5,a2
200036cc:	00f6ee63          	bltu	a3,a5,200036e8 <_printf_i+0x54>
200036d0:	06200693          	li	a3,98
200036d4:	04358613          	addi	a2,a1,67
200036d8:	00f6ec63          	bltu	a3,a5,200036f0 <_printf_i+0x5c>
200036dc:	28078263          	beqz	a5,20003960 <_printf_i+0x2cc>
200036e0:	05800693          	li	a3,88
200036e4:	20d78e63          	beq	a5,a3,20003900 <_printf_i+0x26c>
200036e8:	04240913          	addi	s2,s0,66
200036ec:	0400006f          	j	2000372c <_printf_i+0x98>
200036f0:	f9d78693          	addi	a3,a5,-99
200036f4:	0ff6f693          	zext.b	a3,a3
200036f8:	01500593          	li	a1,21
200036fc:	fed5e6e3          	bltu	a1,a3,200036e8 <_printf_i+0x54>
20003700:	200055b7          	lui	a1,0x20005
20003704:	00269693          	slli	a3,a3,0x2
20003708:	3b058593          	addi	a1,a1,944 # 200053b0 <__clz_tab+0x1d8>
2000370c:	00b686b3          	add	a3,a3,a1
20003710:	0006a683          	lw	a3,0(a3)
20003714:	00068067          	jr	a3
20003718:	00072783          	lw	a5,0(a4)
2000371c:	04240913          	addi	s2,s0,66
20003720:	00478693          	addi	a3,a5,4
20003724:	0007a783          	lw	a5,0(a5)
20003728:	00d72023          	sw	a3,0(a4)
2000372c:	04f40123          	sb	a5,66(s0)
20003730:	00100793          	li	a5,1
20003734:	2680006f          	j	2000399c <_printf_i+0x308>
20003738:	00042783          	lw	a5,0(s0)
2000373c:	00072503          	lw	a0,0(a4)
20003740:	0807f693          	andi	a3,a5,128
20003744:	00450593          	addi	a1,a0,4
20003748:	02068663          	beqz	a3,20003774 <_printf_i+0xe0>
2000374c:	00052783          	lw	a5,0(a0)
20003750:	00b72023          	sw	a1,0(a4)
20003754:	200056b7          	lui	a3,0x20005
20003758:	0007d863          	bgez	a5,20003768 <_printf_i+0xd4>
2000375c:	02d00713          	li	a4,45
20003760:	40f007b3          	neg	a5,a5
20003764:	04e401a3          	sb	a4,67(s0)
20003768:	38868693          	addi	a3,a3,904 # 20005388 <__clz_tab+0x1b0>
2000376c:	00a00713          	li	a4,10
20003770:	0680006f          	j	200037d8 <_printf_i+0x144>
20003774:	0407f693          	andi	a3,a5,64
20003778:	00052783          	lw	a5,0(a0)
2000377c:	00b72023          	sw	a1,0(a4)
20003780:	fc068ae3          	beqz	a3,20003754 <_printf_i+0xc0>
20003784:	01079793          	slli	a5,a5,0x10
20003788:	4107d793          	srai	a5,a5,0x10
2000378c:	fc9ff06f          	j	20003754 <_printf_i+0xc0>
20003790:	00042583          	lw	a1,0(s0)
20003794:	00072683          	lw	a3,0(a4)
20003798:	0805f513          	andi	a0,a1,128
2000379c:	0006a783          	lw	a5,0(a3)
200037a0:	00468693          	addi	a3,a3,4
200037a4:	00051a63          	bnez	a0,200037b8 <_printf_i+0x124>
200037a8:	0405f593          	andi	a1,a1,64
200037ac:	00058663          	beqz	a1,200037b8 <_printf_i+0x124>
200037b0:	01079793          	slli	a5,a5,0x10
200037b4:	0107d793          	srli	a5,a5,0x10
200037b8:	00d72023          	sw	a3,0(a4)
200037bc:	01844583          	lbu	a1,24(s0)
200037c0:	200056b7          	lui	a3,0x20005
200037c4:	06f00713          	li	a4,111
200037c8:	38868693          	addi	a3,a3,904 # 20005388 <__clz_tab+0x1b0>
200037cc:	14e59863          	bne	a1,a4,2000391c <_printf_i+0x288>
200037d0:	00800713          	li	a4,8
200037d4:	040401a3          	sb	zero,67(s0)
200037d8:	00442583          	lw	a1,4(s0)
200037dc:	00b42423          	sw	a1,8(s0)
200037e0:	0005ce63          	bltz	a1,200037fc <_printf_i+0x168>
200037e4:	00042503          	lw	a0,0(s0)
200037e8:	00b7e5b3          	or	a1,a5,a1
200037ec:	00060913          	mv	s2,a2
200037f0:	ffb57513          	andi	a0,a0,-5
200037f4:	00a42023          	sw	a0,0(s0)
200037f8:	02058463          	beqz	a1,20003820 <_printf_i+0x18c>
200037fc:	00060913          	mv	s2,a2
20003800:	02e7f5b3          	remu	a1,a5,a4
20003804:	fff90913          	addi	s2,s2,-1
20003808:	00b685b3          	add	a1,a3,a1
2000380c:	0005c583          	lbu	a1,0(a1)
20003810:	00b90023          	sb	a1,0(s2)
20003814:	00078593          	mv	a1,a5
20003818:	02e7d7b3          	divu	a5,a5,a4
2000381c:	fee5f2e3          	bgeu	a1,a4,20003800 <_printf_i+0x16c>
20003820:	00800793          	li	a5,8
20003824:	02f71463          	bne	a4,a5,2000384c <_printf_i+0x1b8>
20003828:	00042783          	lw	a5,0(s0)
2000382c:	0017f793          	andi	a5,a5,1
20003830:	00078e63          	beqz	a5,2000384c <_printf_i+0x1b8>
20003834:	00442703          	lw	a4,4(s0)
20003838:	01042783          	lw	a5,16(s0)
2000383c:	00e7c863          	blt	a5,a4,2000384c <_printf_i+0x1b8>
20003840:	03000793          	li	a5,48
20003844:	fef90fa3          	sb	a5,-1(s2)
20003848:	fff90913          	addi	s2,s2,-1
2000384c:	41260633          	sub	a2,a2,s2
20003850:	00c42823          	sw	a2,16(s0)
20003854:	00048713          	mv	a4,s1
20003858:	000a8693          	mv	a3,s5
2000385c:	01c10613          	addi	a2,sp,28
20003860:	00040593          	mv	a1,s0
20003864:	000a0513          	mv	a0,s4
20003868:	c79ff0ef          	jal	200034e0 <_printf_common>
2000386c:	fff00993          	li	s3,-1
20003870:	13351c63          	bne	a0,s3,200039a8 <_printf_i+0x314>
20003874:	fff00513          	li	a0,-1
20003878:	03c12083          	lw	ra,60(sp)
2000387c:	03812403          	lw	s0,56(sp)
20003880:	03412483          	lw	s1,52(sp)
20003884:	03012903          	lw	s2,48(sp)
20003888:	02c12983          	lw	s3,44(sp)
2000388c:	02812a03          	lw	s4,40(sp)
20003890:	02412a83          	lw	s5,36(sp)
20003894:	04010113          	addi	sp,sp,64
20003898:	00008067          	ret
2000389c:	00042783          	lw	a5,0(s0)
200038a0:	0207e793          	ori	a5,a5,32
200038a4:	00f42023          	sw	a5,0(s0)
200038a8:	200056b7          	lui	a3,0x20005
200038ac:	07800793          	li	a5,120
200038b0:	39c68693          	addi	a3,a3,924 # 2000539c <__clz_tab+0x1c4>
200038b4:	04f402a3          	sb	a5,69(s0)
200038b8:	00042583          	lw	a1,0(s0)
200038bc:	00072503          	lw	a0,0(a4)
200038c0:	0805f813          	andi	a6,a1,128
200038c4:	00052783          	lw	a5,0(a0)
200038c8:	00450513          	addi	a0,a0,4
200038cc:	00081a63          	bnez	a6,200038e0 <_printf_i+0x24c>
200038d0:	0405f813          	andi	a6,a1,64
200038d4:	00080663          	beqz	a6,200038e0 <_printf_i+0x24c>
200038d8:	01079793          	slli	a5,a5,0x10
200038dc:	0107d793          	srli	a5,a5,0x10
200038e0:	00a72023          	sw	a0,0(a4)
200038e4:	0015f713          	andi	a4,a1,1
200038e8:	00070663          	beqz	a4,200038f4 <_printf_i+0x260>
200038ec:	0205e593          	ori	a1,a1,32
200038f0:	00b42023          	sw	a1,0(s0)
200038f4:	00078c63          	beqz	a5,2000390c <_printf_i+0x278>
200038f8:	01000713          	li	a4,16
200038fc:	ed9ff06f          	j	200037d4 <_printf_i+0x140>
20003900:	200056b7          	lui	a3,0x20005
20003904:	38868693          	addi	a3,a3,904 # 20005388 <__clz_tab+0x1b0>
20003908:	fadff06f          	j	200038b4 <_printf_i+0x220>
2000390c:	00042703          	lw	a4,0(s0)
20003910:	fdf77713          	andi	a4,a4,-33
20003914:	00e42023          	sw	a4,0(s0)
20003918:	fe1ff06f          	j	200038f8 <_printf_i+0x264>
2000391c:	00a00713          	li	a4,10
20003920:	eb5ff06f          	j	200037d4 <_printf_i+0x140>
20003924:	00042683          	lw	a3,0(s0)
20003928:	00072783          	lw	a5,0(a4)
2000392c:	01442583          	lw	a1,20(s0)
20003930:	0806f813          	andi	a6,a3,128
20003934:	00478513          	addi	a0,a5,4
20003938:	00080a63          	beqz	a6,2000394c <_printf_i+0x2b8>
2000393c:	00a72023          	sw	a0,0(a4)
20003940:	0007a783          	lw	a5,0(a5)
20003944:	00b7a023          	sw	a1,0(a5)
20003948:	0180006f          	j	20003960 <_printf_i+0x2cc>
2000394c:	00a72023          	sw	a0,0(a4)
20003950:	0406f693          	andi	a3,a3,64
20003954:	0007a783          	lw	a5,0(a5)
20003958:	fe0686e3          	beqz	a3,20003944 <_printf_i+0x2b0>
2000395c:	00b79023          	sh	a1,0(a5)
20003960:	00042823          	sw	zero,16(s0)
20003964:	00060913          	mv	s2,a2
20003968:	eedff06f          	j	20003854 <_printf_i+0x1c0>
2000396c:	00072783          	lw	a5,0(a4)
20003970:	00442603          	lw	a2,4(s0)
20003974:	00000593          	li	a1,0
20003978:	00478693          	addi	a3,a5,4
2000397c:	00d72023          	sw	a3,0(a4)
20003980:	0007a903          	lw	s2,0(a5)
20003984:	00090513          	mv	a0,s2
20003988:	028010ef          	jal	200049b0 <memchr>
2000398c:	00050663          	beqz	a0,20003998 <_printf_i+0x304>
20003990:	41250533          	sub	a0,a0,s2
20003994:	00a42223          	sw	a0,4(s0)
20003998:	00442783          	lw	a5,4(s0)
2000399c:	00f42823          	sw	a5,16(s0)
200039a0:	040401a3          	sb	zero,67(s0)
200039a4:	eb1ff06f          	j	20003854 <_printf_i+0x1c0>
200039a8:	01042683          	lw	a3,16(s0)
200039ac:	00090613          	mv	a2,s2
200039b0:	000a8593          	mv	a1,s5
200039b4:	000a0513          	mv	a0,s4
200039b8:	000480e7          	jalr	s1
200039bc:	eb350ce3          	beq	a0,s3,20003874 <_printf_i+0x1e0>
200039c0:	00042783          	lw	a5,0(s0)
200039c4:	0027f793          	andi	a5,a5,2
200039c8:	04079663          	bnez	a5,20003a14 <_printf_i+0x380>
200039cc:	01c12783          	lw	a5,28(sp)
200039d0:	00c42503          	lw	a0,12(s0)
200039d4:	eaf552e3          	bge	a0,a5,20003878 <_printf_i+0x1e4>
200039d8:	00078513          	mv	a0,a5
200039dc:	e9dff06f          	j	20003878 <_printf_i+0x1e4>
200039e0:	00100693          	li	a3,1
200039e4:	000a8593          	mv	a1,s5
200039e8:	000a0513          	mv	a0,s4
200039ec:	00c12623          	sw	a2,12(sp)
200039f0:	000480e7          	jalr	s1
200039f4:	e93500e3          	beq	a0,s3,20003874 <_printf_i+0x1e0>
200039f8:	00c12603          	lw	a2,12(sp)
200039fc:	00190913          	addi	s2,s2,1
20003a00:	00c42783          	lw	a5,12(s0)
20003a04:	01c12703          	lw	a4,28(sp)
20003a08:	40e787b3          	sub	a5,a5,a4
20003a0c:	fcf94ae3          	blt	s2,a5,200039e0 <_printf_i+0x34c>
20003a10:	fbdff06f          	j	200039cc <_printf_i+0x338>
20003a14:	00000913          	li	s2,0
20003a18:	01940613          	addi	a2,s0,25
20003a1c:	fe5ff06f          	j	20003a00 <_printf_i+0x36c>

20003a20 <__sflush_r>:
20003a20:	00c59783          	lh	a5,12(a1)
20003a24:	fe010113          	addi	sp,sp,-32
20003a28:	00812c23          	sw	s0,24(sp)
20003a2c:	00912a23          	sw	s1,20(sp)
20003a30:	00112e23          	sw	ra,28(sp)
20003a34:	01212823          	sw	s2,16(sp)
20003a38:	0087f713          	andi	a4,a5,8
20003a3c:	00050493          	mv	s1,a0
20003a40:	00058413          	mv	s0,a1
20003a44:	12071263          	bnez	a4,20003b68 <__sflush_r+0x148>
20003a48:	0045a703          	lw	a4,4(a1)
20003a4c:	00e04663          	bgtz	a4,20003a58 <__sflush_r+0x38>
20003a50:	0405a703          	lw	a4,64(a1)
20003a54:	10e05663          	blez	a4,20003b60 <__sflush_r+0x140>
20003a58:	02c42703          	lw	a4,44(s0)
20003a5c:	10070263          	beqz	a4,20003b60 <__sflush_r+0x140>
20003a60:	0004a903          	lw	s2,0(s1)
20003a64:	01379693          	slli	a3,a5,0x13
20003a68:	0004a023          	sw	zero,0(s1)
20003a6c:	0a06dc63          	bgez	a3,20003b24 <__sflush_r+0x104>
20003a70:	05442603          	lw	a2,84(s0)
20003a74:	00c45783          	lhu	a5,12(s0)
20003a78:	0047f793          	andi	a5,a5,4
20003a7c:	00078e63          	beqz	a5,20003a98 <__sflush_r+0x78>
20003a80:	00442783          	lw	a5,4(s0)
20003a84:	40f60633          	sub	a2,a2,a5
20003a88:	03442783          	lw	a5,52(s0)
20003a8c:	00078663          	beqz	a5,20003a98 <__sflush_r+0x78>
20003a90:	04042783          	lw	a5,64(s0)
20003a94:	40f60633          	sub	a2,a2,a5
20003a98:	02c42783          	lw	a5,44(s0)
20003a9c:	02042583          	lw	a1,32(s0)
20003aa0:	00000693          	li	a3,0
20003aa4:	00048513          	mv	a0,s1
20003aa8:	000780e7          	jalr	a5
20003aac:	fff00713          	li	a4,-1
20003ab0:	00c41783          	lh	a5,12(s0)
20003ab4:	02e51263          	bne	a0,a4,20003ad8 <__sflush_r+0xb8>
20003ab8:	0004a683          	lw	a3,0(s1)
20003abc:	01d00713          	li	a4,29
20003ac0:	0ed76c63          	bltu	a4,a3,20003bb8 <__sflush_r+0x198>
20003ac4:	20400737          	lui	a4,0x20400
20003ac8:	00170713          	addi	a4,a4,1 # 20400001 <__stack_top+0x3f9495>
20003acc:	00d75733          	srl	a4,a4,a3
20003ad0:	00177713          	andi	a4,a4,1
20003ad4:	0e070263          	beqz	a4,20003bb8 <__sflush_r+0x198>
20003ad8:	01042703          	lw	a4,16(s0)
20003adc:	00042223          	sw	zero,4(s0)
20003ae0:	00e42023          	sw	a4,0(s0)
20003ae4:	01379713          	slli	a4,a5,0x13
20003ae8:	00075c63          	bgez	a4,20003b00 <__sflush_r+0xe0>
20003aec:	fff00793          	li	a5,-1
20003af0:	00f51663          	bne	a0,a5,20003afc <__sflush_r+0xdc>
20003af4:	0004a783          	lw	a5,0(s1)
20003af8:	00079463          	bnez	a5,20003b00 <__sflush_r+0xe0>
20003afc:	04a42a23          	sw	a0,84(s0)
20003b00:	03442583          	lw	a1,52(s0)
20003b04:	0124a023          	sw	s2,0(s1)
20003b08:	04058c63          	beqz	a1,20003b60 <__sflush_r+0x140>
20003b0c:	04440793          	addi	a5,s0,68
20003b10:	00f58663          	beq	a1,a5,20003b1c <__sflush_r+0xfc>
20003b14:	00048513          	mv	a0,s1
20003b18:	9dcff0ef          	jal	20002cf4 <_free_r>
20003b1c:	02042a23          	sw	zero,52(s0)
20003b20:	0400006f          	j	20003b60 <__sflush_r+0x140>
20003b24:	02042583          	lw	a1,32(s0)
20003b28:	00000613          	li	a2,0
20003b2c:	00100693          	li	a3,1
20003b30:	00048513          	mv	a0,s1
20003b34:	000700e7          	jalr	a4
20003b38:	fff00793          	li	a5,-1
20003b3c:	00050613          	mv	a2,a0
20003b40:	f2f51ae3          	bne	a0,a5,20003a74 <__sflush_r+0x54>
20003b44:	0004a783          	lw	a5,0(s1)
20003b48:	f20786e3          	beqz	a5,20003a74 <__sflush_r+0x54>
20003b4c:	fe378713          	addi	a4,a5,-29
20003b50:	00070663          	beqz	a4,20003b5c <__sflush_r+0x13c>
20003b54:	fea78793          	addi	a5,a5,-22
20003b58:	04079e63          	bnez	a5,20003bb4 <__sflush_r+0x194>
20003b5c:	0124a023          	sw	s2,0(s1)
20003b60:	00000513          	li	a0,0
20003b64:	0600006f          	j	20003bc4 <__sflush_r+0x1a4>
20003b68:	0105a603          	lw	a2,16(a1)
20003b6c:	fe060ae3          	beqz	a2,20003b60 <__sflush_r+0x140>
20003b70:	0005a683          	lw	a3,0(a1)
20003b74:	0037f793          	andi	a5,a5,3
20003b78:	00c5a023          	sw	a2,0(a1)
20003b7c:	40c68933          	sub	s2,a3,a2
20003b80:	00000713          	li	a4,0
20003b84:	00079463          	bnez	a5,20003b8c <__sflush_r+0x16c>
20003b88:	0145a703          	lw	a4,20(a1)
20003b8c:	00e42423          	sw	a4,8(s0)
20003b90:	fd2058e3          	blez	s2,20003b60 <__sflush_r+0x140>
20003b94:	02842783          	lw	a5,40(s0)
20003b98:	02042583          	lw	a1,32(s0)
20003b9c:	00090693          	mv	a3,s2
20003ba0:	00048513          	mv	a0,s1
20003ba4:	00c12623          	sw	a2,12(sp)
20003ba8:	000780e7          	jalr	a5
20003bac:	00c12603          	lw	a2,12(sp)
20003bb0:	02a04663          	bgtz	a0,20003bdc <__sflush_r+0x1bc>
20003bb4:	00c45783          	lhu	a5,12(s0)
20003bb8:	0407e793          	ori	a5,a5,64
20003bbc:	00f41623          	sh	a5,12(s0)
20003bc0:	fff00513          	li	a0,-1
20003bc4:	01c12083          	lw	ra,28(sp)
20003bc8:	01812403          	lw	s0,24(sp)
20003bcc:	01412483          	lw	s1,20(sp)
20003bd0:	01012903          	lw	s2,16(sp)
20003bd4:	02010113          	addi	sp,sp,32
20003bd8:	00008067          	ret
20003bdc:	00a60633          	add	a2,a2,a0
20003be0:	40a90933          	sub	s2,s2,a0
20003be4:	fadff06f          	j	20003b90 <__sflush_r+0x170>

20003be8 <_fflush_r>:
20003be8:	0105a783          	lw	a5,16(a1)
20003bec:	04078e63          	beqz	a5,20003c48 <_fflush_r+0x60>
20003bf0:	fe010113          	addi	sp,sp,-32
20003bf4:	00812c23          	sw	s0,24(sp)
20003bf8:	00112e23          	sw	ra,28(sp)
20003bfc:	00050413          	mv	s0,a0
20003c00:	00050c63          	beqz	a0,20003c18 <_fflush_r+0x30>
20003c04:	02052783          	lw	a5,32(a0)
20003c08:	00079863          	bnez	a5,20003c18 <_fflush_r+0x30>
20003c0c:	00b12623          	sw	a1,12(sp)
20003c10:	2fc000ef          	jal	20003f0c <__sinit>
20003c14:	00c12583          	lw	a1,12(sp)
20003c18:	00c59783          	lh	a5,12(a1)
20003c1c:	00078c63          	beqz	a5,20003c34 <_fflush_r+0x4c>
20003c20:	00040513          	mv	a0,s0
20003c24:	01812403          	lw	s0,24(sp)
20003c28:	01c12083          	lw	ra,28(sp)
20003c2c:	02010113          	addi	sp,sp,32
20003c30:	df1ff06f          	j	20003a20 <__sflush_r>
20003c34:	01c12083          	lw	ra,28(sp)
20003c38:	01812403          	lw	s0,24(sp)
20003c3c:	00000513          	li	a0,0
20003c40:	02010113          	addi	sp,sp,32
20003c44:	00008067          	ret
20003c48:	00000513          	li	a0,0
20003c4c:	00008067          	ret

20003c50 <fflush>:
20003c50:	00050593          	mv	a1,a0
20003c54:	02051063          	bnez	a0,20003c74 <fflush+0x24>
20003c58:	20006637          	lui	a2,0x20006
20003c5c:	200045b7          	lui	a1,0x20004
20003c60:	20006537          	lui	a0,0x20006
20003c64:	93460613          	addi	a2,a2,-1740 # 20005934 <__sglue>
20003c68:	be858593          	addi	a1,a1,-1048 # 20003be8 <_fflush_r>
20003c6c:	8e850513          	addi	a0,a0,-1816 # 200058e8 <_impure_data>
20003c70:	7d80006f          	j	20004448 <_fwalk_sglue>
20003c74:	200067b7          	lui	a5,0x20006
20003c78:	9507a503          	lw	a0,-1712(a5) # 20005950 <_impure_ptr>
20003c7c:	f6dff06f          	j	20003be8 <_fflush_r>

20003c80 <__fp_lock>:
20003c80:	00000513          	li	a0,0
20003c84:	00008067          	ret

20003c88 <std>:
20003c88:	ff010113          	addi	sp,sp,-16
20003c8c:	00812423          	sw	s0,8(sp)
20003c90:	00112623          	sw	ra,12(sp)
20003c94:	00050413          	mv	s0,a0
20003c98:	00b51623          	sh	a1,12(a0)
20003c9c:	00c51723          	sh	a2,14(a0)
20003ca0:	00052023          	sw	zero,0(a0)
20003ca4:	00052223          	sw	zero,4(a0)
20003ca8:	00052423          	sw	zero,8(a0)
20003cac:	06052223          	sw	zero,100(a0)
20003cb0:	00052823          	sw	zero,16(a0)
20003cb4:	00052a23          	sw	zero,20(a0)
20003cb8:	00052c23          	sw	zero,24(a0)
20003cbc:	00800613          	li	a2,8
20003cc0:	00000593          	li	a1,0
20003cc4:	05c50513          	addi	a0,a0,92
20003cc8:	0f4010ef          	jal	20004dbc <memset>
20003ccc:	200047b7          	lui	a5,0x20004
20003cd0:	64878793          	addi	a5,a5,1608 # 20004648 <__sread>
20003cd4:	02f42223          	sw	a5,36(s0)
20003cd8:	200047b7          	lui	a5,0x20004
20003cdc:	6a078793          	addi	a5,a5,1696 # 200046a0 <__swrite>
20003ce0:	02f42423          	sw	a5,40(s0)
20003ce4:	200047b7          	lui	a5,0x20004
20003ce8:	72478793          	addi	a5,a5,1828 # 20004724 <__sseek>
20003cec:	02f42623          	sw	a5,44(s0)
20003cf0:	200047b7          	lui	a5,0x20004
20003cf4:	77c78793          	addi	a5,a5,1916 # 2000477c <__sclose>
20003cf8:	00c12083          	lw	ra,12(sp)
20003cfc:	02842023          	sw	s0,32(s0)
20003d00:	02f42823          	sw	a5,48(s0)
20003d04:	00812403          	lw	s0,8(sp)
20003d08:	01010113          	addi	sp,sp,16
20003d0c:	00008067          	ret

20003d10 <stdio_exit_handler>:
20003d10:	20006637          	lui	a2,0x20006
20003d14:	200045b7          	lui	a1,0x20004
20003d18:	20006537          	lui	a0,0x20006
20003d1c:	93460613          	addi	a2,a2,-1740 # 20005934 <__sglue>
20003d20:	be858593          	addi	a1,a1,-1048 # 20003be8 <_fflush_r>
20003d24:	8e850513          	addi	a0,a0,-1816 # 200058e8 <_impure_data>
20003d28:	7200006f          	j	20004448 <_fwalk_sglue>

20003d2c <cleanup_stdio>:
20003d2c:	00452583          	lw	a1,4(a0)
20003d30:	ff010113          	addi	sp,sp,-16
20003d34:	200067b7          	lui	a5,0x20006
20003d38:	00812423          	sw	s0,8(sp)
20003d3c:	00112623          	sw	ra,12(sp)
20003d40:	e1478793          	addi	a5,a5,-492 # 20005e14 <__sf>
20003d44:	00050413          	mv	s0,a0
20003d48:	00f58463          	beq	a1,a5,20003d50 <cleanup_stdio+0x24>
20003d4c:	e9dff0ef          	jal	20003be8 <_fflush_r>
20003d50:	00842583          	lw	a1,8(s0)
20003d54:	200067b7          	lui	a5,0x20006
20003d58:	e7c78793          	addi	a5,a5,-388 # 20005e7c <__sf+0x68>
20003d5c:	00f58663          	beq	a1,a5,20003d68 <cleanup_stdio+0x3c>
20003d60:	00040513          	mv	a0,s0
20003d64:	e85ff0ef          	jal	20003be8 <_fflush_r>
20003d68:	00c42583          	lw	a1,12(s0)
20003d6c:	200067b7          	lui	a5,0x20006
20003d70:	ee478793          	addi	a5,a5,-284 # 20005ee4 <__sf+0xd0>
20003d74:	00f58c63          	beq	a1,a5,20003d8c <cleanup_stdio+0x60>
20003d78:	00040513          	mv	a0,s0
20003d7c:	00812403          	lw	s0,8(sp)
20003d80:	00c12083          	lw	ra,12(sp)
20003d84:	01010113          	addi	sp,sp,16
20003d88:	e61ff06f          	j	20003be8 <_fflush_r>
20003d8c:	00c12083          	lw	ra,12(sp)
20003d90:	00812403          	lw	s0,8(sp)
20003d94:	01010113          	addi	sp,sp,16
20003d98:	00008067          	ret

20003d9c <global_stdio_init.part.0>:
20003d9c:	200047b7          	lui	a5,0x20004
20003da0:	20006537          	lui	a0,0x20006
20003da4:	ff010113          	addi	sp,sp,-16
20003da8:	20006737          	lui	a4,0x20006
20003dac:	d1078793          	addi	a5,a5,-752 # 20003d10 <stdio_exit_handler>
20003db0:	00000613          	li	a2,0
20003db4:	00400593          	li	a1,4
20003db8:	e1450513          	addi	a0,a0,-492 # 20005e14 <__sf>
20003dbc:	00112623          	sw	ra,12(sp)
20003dc0:	f6f72223          	sw	a5,-156(a4) # 20005f64 <__stdio_exit_handler>
20003dc4:	ec5ff0ef          	jal	20003c88 <std>
20003dc8:	20006537          	lui	a0,0x20006
20003dcc:	00100613          	li	a2,1
20003dd0:	00900593          	li	a1,9
20003dd4:	e7c50513          	addi	a0,a0,-388 # 20005e7c <__sf+0x68>
20003dd8:	eb1ff0ef          	jal	20003c88 <std>
20003ddc:	00c12083          	lw	ra,12(sp)
20003de0:	20006537          	lui	a0,0x20006
20003de4:	00200613          	li	a2,2
20003de8:	01200593          	li	a1,18
20003dec:	ee450513          	addi	a0,a0,-284 # 20005ee4 <__sf+0xd0>
20003df0:	01010113          	addi	sp,sp,16
20003df4:	e95ff06f          	j	20003c88 <std>

20003df8 <__fp_unlock>:
20003df8:	00000513          	li	a0,0
20003dfc:	00008067          	ret

20003e00 <__sfp>:
20003e00:	200067b7          	lui	a5,0x20006
20003e04:	f647a783          	lw	a5,-156(a5) # 20005f64 <__stdio_exit_handler>
20003e08:	ff010113          	addi	sp,sp,-16
20003e0c:	01212023          	sw	s2,0(sp)
20003e10:	00112623          	sw	ra,12(sp)
20003e14:	00812423          	sw	s0,8(sp)
20003e18:	00912223          	sw	s1,4(sp)
20003e1c:	00050913          	mv	s2,a0
20003e20:	00079463          	bnez	a5,20003e28 <__sfp+0x28>
20003e24:	f79ff0ef          	jal	20003d9c <global_stdio_init.part.0>
20003e28:	200064b7          	lui	s1,0x20006
20003e2c:	93448493          	addi	s1,s1,-1740 # 20005934 <__sglue>
20003e30:	0084a403          	lw	s0,8(s1)
20003e34:	0044a783          	lw	a5,4(s1)
20003e38:	fff78793          	addi	a5,a5,-1
20003e3c:	0207d863          	bgez	a5,20003e6c <__sfp+0x6c>
20003e40:	0004a403          	lw	s0,0(s1)
20003e44:	0c041063          	bnez	s0,20003f04 <__sfp+0x104>
20003e48:	1ac00593          	li	a1,428
20003e4c:	00090513          	mv	a0,s2
20003e50:	848ff0ef          	jal	20002e98 <_malloc_r>
20003e54:	00050413          	mv	s0,a0
20003e58:	08051463          	bnez	a0,20003ee0 <__sfp+0xe0>
20003e5c:	0004a023          	sw	zero,0(s1)
20003e60:	00c00793          	li	a5,12
20003e64:	00f92023          	sw	a5,0(s2)
20003e68:	0540006f          	j	20003ebc <__sfp+0xbc>
20003e6c:	00c41703          	lh	a4,12(s0)
20003e70:	06071463          	bnez	a4,20003ed8 <__sfp+0xd8>
20003e74:	ffff07b7          	lui	a5,0xffff0
20003e78:	00178793          	addi	a5,a5,1 # ffff0001 <__stack_top+0xdffe9495>
20003e7c:	06042223          	sw	zero,100(s0)
20003e80:	00042023          	sw	zero,0(s0)
20003e84:	00042223          	sw	zero,4(s0)
20003e88:	00042423          	sw	zero,8(s0)
20003e8c:	00f42623          	sw	a5,12(s0)
20003e90:	00042823          	sw	zero,16(s0)
20003e94:	00042a23          	sw	zero,20(s0)
20003e98:	00042c23          	sw	zero,24(s0)
20003e9c:	00800613          	li	a2,8
20003ea0:	00000593          	li	a1,0
20003ea4:	05c40513          	addi	a0,s0,92
20003ea8:	715000ef          	jal	20004dbc <memset>
20003eac:	02042a23          	sw	zero,52(s0)
20003eb0:	02042c23          	sw	zero,56(s0)
20003eb4:	04042423          	sw	zero,72(s0)
20003eb8:	04042623          	sw	zero,76(s0)
20003ebc:	00c12083          	lw	ra,12(sp)
20003ec0:	00040513          	mv	a0,s0
20003ec4:	00812403          	lw	s0,8(sp)
20003ec8:	00412483          	lw	s1,4(sp)
20003ecc:	00012903          	lw	s2,0(sp)
20003ed0:	01010113          	addi	sp,sp,16
20003ed4:	00008067          	ret
20003ed8:	06840413          	addi	s0,s0,104
20003edc:	f5dff06f          	j	20003e38 <__sfp+0x38>
20003ee0:	00400793          	li	a5,4
20003ee4:	00052023          	sw	zero,0(a0)
20003ee8:	00f52223          	sw	a5,4(a0)
20003eec:	00c50513          	addi	a0,a0,12
20003ef0:	00a42423          	sw	a0,8(s0)
20003ef4:	1a000613          	li	a2,416
20003ef8:	00000593          	li	a1,0
20003efc:	6c1000ef          	jal	20004dbc <memset>
20003f00:	0084a023          	sw	s0,0(s1)
20003f04:	00040493          	mv	s1,s0
20003f08:	f29ff06f          	j	20003e30 <__sfp+0x30>

20003f0c <__sinit>:
20003f0c:	02052783          	lw	a5,32(a0)
20003f10:	02079063          	bnez	a5,20003f30 <__sinit+0x24>
20003f14:	200047b7          	lui	a5,0x20004
20003f18:	d2c78793          	addi	a5,a5,-724 # 20003d2c <cleanup_stdio>
20003f1c:	02f52023          	sw	a5,32(a0)
20003f20:	200067b7          	lui	a5,0x20006
20003f24:	f647a783          	lw	a5,-156(a5) # 20005f64 <__stdio_exit_handler>
20003f28:	00079463          	bnez	a5,20003f30 <__sinit+0x24>
20003f2c:	e71ff06f          	j	20003d9c <global_stdio_init.part.0>
20003f30:	00008067          	ret

20003f34 <__sfp_lock_acquire>:
20003f34:	00008067          	ret

20003f38 <__sfp_lock_release>:
20003f38:	00008067          	ret

20003f3c <__fp_lock_all>:
20003f3c:	20006637          	lui	a2,0x20006
20003f40:	200045b7          	lui	a1,0x20004
20003f44:	93460613          	addi	a2,a2,-1740 # 20005934 <__sglue>
20003f48:	c8058593          	addi	a1,a1,-896 # 20003c80 <__fp_lock>
20003f4c:	00000513          	li	a0,0
20003f50:	4f80006f          	j	20004448 <_fwalk_sglue>

20003f54 <__fp_unlock_all>:
20003f54:	20006637          	lui	a2,0x20006
20003f58:	200045b7          	lui	a1,0x20004
20003f5c:	93460613          	addi	a2,a2,-1740 # 20005934 <__sglue>
20003f60:	df858593          	addi	a1,a1,-520 # 20003df8 <__fp_unlock>
20003f64:	00000513          	li	a0,0
20003f68:	4e00006f          	j	20004448 <_fwalk_sglue>

20003f6c <_fiprintf_r>:
20003f6c:	fc010113          	addi	sp,sp,-64
20003f70:	02d12623          	sw	a3,44(sp)
20003f74:	02c10693          	addi	a3,sp,44
20003f78:	00112e23          	sw	ra,28(sp)
20003f7c:	02e12823          	sw	a4,48(sp)
20003f80:	02f12a23          	sw	a5,52(sp)
20003f84:	03012c23          	sw	a6,56(sp)
20003f88:	03112e23          	sw	a7,60(sp)
20003f8c:	00d12623          	sw	a3,12(sp)
20003f90:	9bcff0ef          	jal	2000314c <_vfiprintf_r>
20003f94:	01c12083          	lw	ra,28(sp)
20003f98:	04010113          	addi	sp,sp,64
20003f9c:	00008067          	ret

20003fa0 <fiprintf>:
20003fa0:	fc010113          	addi	sp,sp,-64
20003fa4:	02f12a23          	sw	a5,52(sp)
20003fa8:	200067b7          	lui	a5,0x20006
20003fac:	02c12423          	sw	a2,40(sp)
20003fb0:	00058613          	mv	a2,a1
20003fb4:	00050593          	mv	a1,a0
20003fb8:	9507a503          	lw	a0,-1712(a5) # 20005950 <_impure_ptr>
20003fbc:	02d12623          	sw	a3,44(sp)
20003fc0:	02810693          	addi	a3,sp,40
20003fc4:	00112e23          	sw	ra,28(sp)
20003fc8:	02e12823          	sw	a4,48(sp)
20003fcc:	03012c23          	sw	a6,56(sp)
20003fd0:	03112e23          	sw	a7,60(sp)
20003fd4:	00d12623          	sw	a3,12(sp)
20003fd8:	974ff0ef          	jal	2000314c <_vfiprintf_r>
20003fdc:	01c12083          	lw	ra,28(sp)
20003fe0:	04010113          	addi	sp,sp,64
20003fe4:	00008067          	ret

20003fe8 <__sfvwrite_r>:
20003fe8:	00862783          	lw	a5,8(a2)
20003fec:	04079663          	bnez	a5,20004038 <__sfvwrite_r+0x50>
20003ff0:	00000513          	li	a0,0
20003ff4:	00008067          	ret
20003ff8:	00000513          	li	a0,0
20003ffc:	03c12083          	lw	ra,60(sp)
20004000:	03812403          	lw	s0,56(sp)
20004004:	03412483          	lw	s1,52(sp)
20004008:	03012903          	lw	s2,48(sp)
2000400c:	02c12983          	lw	s3,44(sp)
20004010:	02812a03          	lw	s4,40(sp)
20004014:	02412a83          	lw	s5,36(sp)
20004018:	02012b03          	lw	s6,32(sp)
2000401c:	01c12b83          	lw	s7,28(sp)
20004020:	01812c03          	lw	s8,24(sp)
20004024:	01412c83          	lw	s9,20(sp)
20004028:	01012d03          	lw	s10,16(sp)
2000402c:	00c12d83          	lw	s11,12(sp)
20004030:	04010113          	addi	sp,sp,64
20004034:	00008067          	ret
20004038:	00c5d783          	lhu	a5,12(a1)
2000403c:	fc010113          	addi	sp,sp,-64
20004040:	02812c23          	sw	s0,56(sp)
20004044:	03312623          	sw	s3,44(sp)
20004048:	03512223          	sw	s5,36(sp)
2000404c:	02112e23          	sw	ra,60(sp)
20004050:	02912a23          	sw	s1,52(sp)
20004054:	03212823          	sw	s2,48(sp)
20004058:	03412423          	sw	s4,40(sp)
2000405c:	03612023          	sw	s6,32(sp)
20004060:	01712e23          	sw	s7,28(sp)
20004064:	01812c23          	sw	s8,24(sp)
20004068:	01912a23          	sw	s9,20(sp)
2000406c:	01a12823          	sw	s10,16(sp)
20004070:	01b12623          	sw	s11,12(sp)
20004074:	0087f793          	andi	a5,a5,8
20004078:	00060a93          	mv	s5,a2
2000407c:	00058413          	mv	s0,a1
20004080:	00050993          	mv	s3,a0
20004084:	0e078263          	beqz	a5,20004168 <__sfvwrite_r+0x180>
20004088:	0105a783          	lw	a5,16(a1)
2000408c:	0c078e63          	beqz	a5,20004168 <__sfvwrite_r+0x180>
20004090:	00c41783          	lh	a5,12(s0)
20004094:	000aaa03          	lw	s4,0(s5)
20004098:	0027f713          	andi	a4,a5,2
2000409c:	12071c63          	bnez	a4,200041d4 <__sfvwrite_r+0x1ec>
200040a0:	0017f793          	andi	a5,a5,1
200040a4:	1c078c63          	beqz	a5,2000427c <__sfvwrite_r+0x294>
200040a8:	00000b93          	li	s7,0
200040ac:	00000513          	li	a0,0
200040b0:	00000b13          	li	s6,0
200040b4:	00000913          	li	s2,0
200040b8:	32090663          	beqz	s2,200043e4 <__sfvwrite_r+0x3fc>
200040bc:	02051263          	bnez	a0,200040e0 <__sfvwrite_r+0xf8>
200040c0:	00090613          	mv	a2,s2
200040c4:	00a00593          	li	a1,10
200040c8:	000b0513          	mv	a0,s6
200040cc:	0e5000ef          	jal	200049b0 <memchr>
200040d0:	00190b93          	addi	s7,s2,1
200040d4:	00050663          	beqz	a0,200040e0 <__sfvwrite_r+0xf8>
200040d8:	00150513          	addi	a0,a0,1
200040dc:	41650bb3          	sub	s7,a0,s6
200040e0:	000b8c13          	mv	s8,s7
200040e4:	01797463          	bgeu	s2,s7,200040ec <__sfvwrite_r+0x104>
200040e8:	00090c13          	mv	s8,s2
200040ec:	01442683          	lw	a3,20(s0)
200040f0:	00842483          	lw	s1,8(s0)
200040f4:	00042503          	lw	a0,0(s0)
200040f8:	01042783          	lw	a5,16(s0)
200040fc:	009684b3          	add	s1,a3,s1
20004100:	2ea7fc63          	bgeu	a5,a0,200043f8 <__sfvwrite_r+0x410>
20004104:	2f84da63          	bge	s1,s8,200043f8 <__sfvwrite_r+0x410>
20004108:	000b0593          	mv	a1,s6
2000410c:	00048613          	mv	a2,s1
20004110:	471000ef          	jal	20004d80 <memmove>
20004114:	00042783          	lw	a5,0(s0)
20004118:	00040593          	mv	a1,s0
2000411c:	00098513          	mv	a0,s3
20004120:	009787b3          	add	a5,a5,s1
20004124:	00f42023          	sw	a5,0(s0)
20004128:	ac1ff0ef          	jal	20003be8 <_fflush_r>
2000412c:	14051063          	bnez	a0,2000426c <__sfvwrite_r+0x284>
20004130:	409b8bb3          	sub	s7,s7,s1
20004134:	00100513          	li	a0,1
20004138:	000b9a63          	bnez	s7,2000414c <__sfvwrite_r+0x164>
2000413c:	00040593          	mv	a1,s0
20004140:	00098513          	mv	a0,s3
20004144:	aa5ff0ef          	jal	20003be8 <_fflush_r>
20004148:	12051263          	bnez	a0,2000426c <__sfvwrite_r+0x284>
2000414c:	008aa783          	lw	a5,8(s5)
20004150:	409787b3          	sub	a5,a5,s1
20004154:	00faa423          	sw	a5,8(s5)
20004158:	ea0780e3          	beqz	a5,20003ff8 <__sfvwrite_r+0x10>
2000415c:	009b0b33          	add	s6,s6,s1
20004160:	40990933          	sub	s2,s2,s1
20004164:	f55ff06f          	j	200040b8 <__sfvwrite_r+0xd0>
20004168:	00040593          	mv	a1,s0
2000416c:	00098513          	mv	a0,s3
20004170:	724000ef          	jal	20004894 <__swsetup_r>
20004174:	f0050ee3          	beqz	a0,20004090 <__sfvwrite_r+0xa8>
20004178:	fff00513          	li	a0,-1
2000417c:	e81ff06f          	j	20003ffc <__sfvwrite_r+0x14>
20004180:	000a2903          	lw	s2,0(s4)
20004184:	004a2483          	lw	s1,4(s4)
20004188:	008a0a13          	addi	s4,s4,8
2000418c:	fe048ae3          	beqz	s1,20004180 <__sfvwrite_r+0x198>
20004190:	00048693          	mv	a3,s1
20004194:	009b7663          	bgeu	s6,s1,200041a0 <__sfvwrite_r+0x1b8>
20004198:	800006b7          	lui	a3,0x80000
2000419c:	c0068693          	addi	a3,a3,-1024 # 7ffffc00 <__stack_top+0x5fff9094>
200041a0:	02842783          	lw	a5,40(s0)
200041a4:	02042583          	lw	a1,32(s0)
200041a8:	00090613          	mv	a2,s2
200041ac:	00098513          	mv	a0,s3
200041b0:	000780e7          	jalr	a5
200041b4:	0aa05c63          	blez	a0,2000426c <__sfvwrite_r+0x284>
200041b8:	008aa783          	lw	a5,8(s5)
200041bc:	40a787b3          	sub	a5,a5,a0
200041c0:	00faa423          	sw	a5,8(s5)
200041c4:	e2078ae3          	beqz	a5,20003ff8 <__sfvwrite_r+0x10>
200041c8:	00a90933          	add	s2,s2,a0
200041cc:	40a484b3          	sub	s1,s1,a0
200041d0:	fbdff06f          	j	2000418c <__sfvwrite_r+0x1a4>
200041d4:	80000b37          	lui	s6,0x80000
200041d8:	00000913          	li	s2,0
200041dc:	00000493          	li	s1,0
200041e0:	c00b0b13          	addi	s6,s6,-1024 # 7ffffc00 <__stack_top+0x5fff9094>
200041e4:	fa9ff06f          	j	2000418c <__sfvwrite_r+0x1a4>
200041e8:	000a2b03          	lw	s6,0(s4)
200041ec:	004a2483          	lw	s1,4(s4)
200041f0:	008a0a13          	addi	s4,s4,8
200041f4:	fe048ae3          	beqz	s1,200041e8 <__sfvwrite_r+0x200>
200041f8:	00c41783          	lh	a5,12(s0)
200041fc:	00842d03          	lw	s10,8(s0)
20004200:	00042503          	lw	a0,0(s0)
20004204:	2007f713          	andi	a4,a5,512
20004208:	14070863          	beqz	a4,20004358 <__sfvwrite_r+0x370>
2000420c:	000d0d93          	mv	s11,s10
20004210:	13a4ec63          	bltu	s1,s10,20004348 <__sfvwrite_r+0x360>
20004214:	4807f713          	andi	a4,a5,1152
20004218:	12070c63          	beqz	a4,20004350 <__sfvwrite_r+0x368>
2000421c:	01442903          	lw	s2,20(s0)
20004220:	01042583          	lw	a1,16(s0)
20004224:	03890933          	mul	s2,s2,s8
20004228:	40b50db3          	sub	s11,a0,a1
2000422c:	001d8713          	addi	a4,s11,1
20004230:	00970733          	add	a4,a4,s1
20004234:	03994933          	div	s2,s2,s9
20004238:	00090613          	mv	a2,s2
2000423c:	00e97663          	bgeu	s2,a4,20004248 <__sfvwrite_r+0x260>
20004240:	00070913          	mv	s2,a4
20004244:	00070613          	mv	a2,a4
20004248:	4007f793          	andi	a5,a5,1024
2000424c:	0c078863          	beqz	a5,2000431c <__sfvwrite_r+0x334>
20004250:	00060593          	mv	a1,a2
20004254:	00098513          	mv	a0,s3
20004258:	c41fe0ef          	jal	20002e98 <_malloc_r>
2000425c:	00050d13          	mv	s10,a0
20004260:	02051c63          	bnez	a0,20004298 <__sfvwrite_r+0x2b0>
20004264:	00c00793          	li	a5,12
20004268:	00f9a023          	sw	a5,0(s3)
2000426c:	00c45783          	lhu	a5,12(s0)
20004270:	0407e793          	ori	a5,a5,64
20004274:	00f41623          	sh	a5,12(s0)
20004278:	f01ff06f          	j	20004178 <__sfvwrite_r+0x190>
2000427c:	80000bb7          	lui	s7,0x80000
20004280:	00000b13          	li	s6,0
20004284:	00000493          	li	s1,0
20004288:	fffb8b93          	addi	s7,s7,-1 # 7fffffff <__stack_top+0x5fff9493>
2000428c:	00300c13          	li	s8,3
20004290:	00200c93          	li	s9,2
20004294:	f61ff06f          	j	200041f4 <__sfvwrite_r+0x20c>
20004298:	01042583          	lw	a1,16(s0)
2000429c:	000d8613          	mv	a2,s11
200042a0:	339000ef          	jal	20004dd8 <memcpy>
200042a4:	00c45783          	lhu	a5,12(s0)
200042a8:	b7f7f793          	andi	a5,a5,-1153
200042ac:	0807e793          	ori	a5,a5,128
200042b0:	00f41623          	sh	a5,12(s0)
200042b4:	01a42823          	sw	s10,16(s0)
200042b8:	01242a23          	sw	s2,20(s0)
200042bc:	01bd0d33          	add	s10,s10,s11
200042c0:	41b90933          	sub	s2,s2,s11
200042c4:	01a42023          	sw	s10,0(s0)
200042c8:	01242423          	sw	s2,8(s0)
200042cc:	00048d13          	mv	s10,s1
200042d0:	00048913          	mv	s2,s1
200042d4:	00048d93          	mv	s11,s1
200042d8:	00042503          	lw	a0,0(s0)
200042dc:	000d8613          	mv	a2,s11
200042e0:	000b0593          	mv	a1,s6
200042e4:	29d000ef          	jal	20004d80 <memmove>
200042e8:	00842783          	lw	a5,8(s0)
200042ec:	41a787b3          	sub	a5,a5,s10
200042f0:	00f42423          	sw	a5,8(s0)
200042f4:	00042783          	lw	a5,0(s0)
200042f8:	01b787b3          	add	a5,a5,s11
200042fc:	00f42023          	sw	a5,0(s0)
20004300:	008aa783          	lw	a5,8(s5)
20004304:	412787b3          	sub	a5,a5,s2
20004308:	00faa423          	sw	a5,8(s5)
2000430c:	ce0786e3          	beqz	a5,20003ff8 <__sfvwrite_r+0x10>
20004310:	012b0b33          	add	s6,s6,s2
20004314:	412484b3          	sub	s1,s1,s2
20004318:	eddff06f          	j	200041f4 <__sfvwrite_r+0x20c>
2000431c:	00098513          	mv	a0,s3
20004320:	2f5000ef          	jal	20004e14 <_realloc_r>
20004324:	00050d13          	mv	s10,a0
20004328:	f80516e3          	bnez	a0,200042b4 <__sfvwrite_r+0x2cc>
2000432c:	01042583          	lw	a1,16(s0)
20004330:	00098513          	mv	a0,s3
20004334:	9c1fe0ef          	jal	20002cf4 <_free_r>
20004338:	00c45783          	lhu	a5,12(s0)
2000433c:	f7f7f793          	andi	a5,a5,-129
20004340:	00f41623          	sh	a5,12(s0)
20004344:	f21ff06f          	j	20004264 <__sfvwrite_r+0x27c>
20004348:	00048d13          	mv	s10,s1
2000434c:	f85ff06f          	j	200042d0 <__sfvwrite_r+0x2e8>
20004350:	00048913          	mv	s2,s1
20004354:	f85ff06f          	j	200042d8 <__sfvwrite_r+0x2f0>
20004358:	01042783          	lw	a5,16(s0)
2000435c:	00a7e663          	bltu	a5,a0,20004368 <__sfvwrite_r+0x380>
20004360:	01442683          	lw	a3,20(s0)
20004364:	04d4f663          	bgeu	s1,a3,200043b0 <__sfvwrite_r+0x3c8>
20004368:	000d0913          	mv	s2,s10
2000436c:	01a4f463          	bgeu	s1,s10,20004374 <__sfvwrite_r+0x38c>
20004370:	00048913          	mv	s2,s1
20004374:	00090613          	mv	a2,s2
20004378:	000b0593          	mv	a1,s6
2000437c:	205000ef          	jal	20004d80 <memmove>
20004380:	00842783          	lw	a5,8(s0)
20004384:	00042703          	lw	a4,0(s0)
20004388:	412787b3          	sub	a5,a5,s2
2000438c:	01270733          	add	a4,a4,s2
20004390:	00f42423          	sw	a5,8(s0)
20004394:	00e42023          	sw	a4,0(s0)
20004398:	f60794e3          	bnez	a5,20004300 <__sfvwrite_r+0x318>
2000439c:	00040593          	mv	a1,s0
200043a0:	00098513          	mv	a0,s3
200043a4:	845ff0ef          	jal	20003be8 <_fflush_r>
200043a8:	f4050ce3          	beqz	a0,20004300 <__sfvwrite_r+0x318>
200043ac:	ec1ff06f          	j	2000426c <__sfvwrite_r+0x284>
200043b0:	00048793          	mv	a5,s1
200043b4:	009bf463          	bgeu	s7,s1,200043bc <__sfvwrite_r+0x3d4>
200043b8:	000b8793          	mv	a5,s7
200043bc:	02d7c7b3          	div	a5,a5,a3
200043c0:	02842703          	lw	a4,40(s0)
200043c4:	02042583          	lw	a1,32(s0)
200043c8:	000b0613          	mv	a2,s6
200043cc:	00098513          	mv	a0,s3
200043d0:	02d786b3          	mul	a3,a5,a3
200043d4:	000700e7          	jalr	a4
200043d8:	00050913          	mv	s2,a0
200043dc:	f2a042e3          	bgtz	a0,20004300 <__sfvwrite_r+0x318>
200043e0:	e8dff06f          	j	2000426c <__sfvwrite_r+0x284>
200043e4:	000a2b03          	lw	s6,0(s4)
200043e8:	004a2903          	lw	s2,4(s4)
200043ec:	00000513          	li	a0,0
200043f0:	008a0a13          	addi	s4,s4,8
200043f4:	cc5ff06f          	j	200040b8 <__sfvwrite_r+0xd0>
200043f8:	02dc4263          	blt	s8,a3,2000441c <__sfvwrite_r+0x434>
200043fc:	02842783          	lw	a5,40(s0)
20004400:	02042583          	lw	a1,32(s0)
20004404:	000b0613          	mv	a2,s6
20004408:	00098513          	mv	a0,s3
2000440c:	000780e7          	jalr	a5
20004410:	00050493          	mv	s1,a0
20004414:	d0a04ee3          	bgtz	a0,20004130 <__sfvwrite_r+0x148>
20004418:	e55ff06f          	j	2000426c <__sfvwrite_r+0x284>
2000441c:	000c0613          	mv	a2,s8
20004420:	000b0593          	mv	a1,s6
20004424:	15d000ef          	jal	20004d80 <memmove>
20004428:	00842783          	lw	a5,8(s0)
2000442c:	000c0493          	mv	s1,s8
20004430:	418787b3          	sub	a5,a5,s8
20004434:	00f42423          	sw	a5,8(s0)
20004438:	00042783          	lw	a5,0(s0)
2000443c:	018787b3          	add	a5,a5,s8
20004440:	00f42023          	sw	a5,0(s0)
20004444:	cedff06f          	j	20004130 <__sfvwrite_r+0x148>

20004448 <_fwalk_sglue>:
20004448:	fd010113          	addi	sp,sp,-48
2000444c:	02812423          	sw	s0,40(sp)
20004450:	03212023          	sw	s2,32(sp)
20004454:	01312e23          	sw	s3,28(sp)
20004458:	01412c23          	sw	s4,24(sp)
2000445c:	01512a23          	sw	s5,20(sp)
20004460:	02112623          	sw	ra,44(sp)
20004464:	02912223          	sw	s1,36(sp)
20004468:	00050a13          	mv	s4,a0
2000446c:	00058a93          	mv	s5,a1
20004470:	00000413          	li	s0,0
20004474:	00100913          	li	s2,1
20004478:	fff00993          	li	s3,-1
2000447c:	00862583          	lw	a1,8(a2)
20004480:	00462483          	lw	s1,4(a2)
20004484:	fff48493          	addi	s1,s1,-1
20004488:	0204da63          	bgez	s1,200044bc <_fwalk_sglue+0x74>
2000448c:	00062603          	lw	a2,0(a2)
20004490:	fe0616e3          	bnez	a2,2000447c <_fwalk_sglue+0x34>
20004494:	02c12083          	lw	ra,44(sp)
20004498:	00040513          	mv	a0,s0
2000449c:	02812403          	lw	s0,40(sp)
200044a0:	02412483          	lw	s1,36(sp)
200044a4:	02012903          	lw	s2,32(sp)
200044a8:	01c12983          	lw	s3,28(sp)
200044ac:	01812a03          	lw	s4,24(sp)
200044b0:	01412a83          	lw	s5,20(sp)
200044b4:	03010113          	addi	sp,sp,48
200044b8:	00008067          	ret
200044bc:	00c5d783          	lhu	a5,12(a1)
200044c0:	02f97463          	bgeu	s2,a5,200044e8 <_fwalk_sglue+0xa0>
200044c4:	00e59783          	lh	a5,14(a1)
200044c8:	03378063          	beq	a5,s3,200044e8 <_fwalk_sglue+0xa0>
200044cc:	000a0513          	mv	a0,s4
200044d0:	00c12623          	sw	a2,12(sp)
200044d4:	00b12423          	sw	a1,8(sp)
200044d8:	000a80e7          	jalr	s5
200044dc:	00c12603          	lw	a2,12(sp)
200044e0:	00812583          	lw	a1,8(sp)
200044e4:	00a46433          	or	s0,s0,a0
200044e8:	06858593          	addi	a1,a1,104
200044ec:	f99ff06f          	j	20004484 <_fwalk_sglue+0x3c>

200044f0 <__swhatbuf_r>:
200044f0:	f8010113          	addi	sp,sp,-128
200044f4:	06812c23          	sw	s0,120(sp)
200044f8:	00058413          	mv	s0,a1
200044fc:	00e59583          	lh	a1,14(a1)
20004500:	06912a23          	sw	s1,116(sp)
20004504:	06112e23          	sw	ra,124(sp)
20004508:	00060493          	mv	s1,a2
2000450c:	0205da63          	bgez	a1,20004540 <__swhatbuf_r+0x50>
20004510:	00c45783          	lhu	a5,12(s0)
20004514:	0807f793          	andi	a5,a5,128
20004518:	04079c63          	bnez	a5,20004570 <__swhatbuf_r+0x80>
2000451c:	40000713          	li	a4,1024
20004520:	07c12083          	lw	ra,124(sp)
20004524:	07812403          	lw	s0,120(sp)
20004528:	00f6a023          	sw	a5,0(a3)
2000452c:	00e4a023          	sw	a4,0(s1)
20004530:	00000513          	li	a0,0
20004534:	07412483          	lw	s1,116(sp)
20004538:	08010113          	addi	sp,sp,128
2000453c:	00008067          	ret
20004540:	01810613          	addi	a2,sp,24
20004544:	00d12623          	sw	a3,12(sp)
20004548:	654000ef          	jal	20004b9c <_fstat_r>
2000454c:	00c12683          	lw	a3,12(sp)
20004550:	fc0540e3          	bltz	a0,20004510 <__swhatbuf_r+0x20>
20004554:	01c12783          	lw	a5,28(sp)
20004558:	0000f737          	lui	a4,0xf
2000455c:	00e7f7b3          	and	a5,a5,a4
20004560:	ffffe737          	lui	a4,0xffffe
20004564:	00e787b3          	add	a5,a5,a4
20004568:	0017b793          	seqz	a5,a5
2000456c:	fb1ff06f          	j	2000451c <__swhatbuf_r+0x2c>
20004570:	00000793          	li	a5,0
20004574:	04000713          	li	a4,64
20004578:	fa9ff06f          	j	20004520 <__swhatbuf_r+0x30>

2000457c <__smakebuf_r>:
2000457c:	00c5d703          	lhu	a4,12(a1)
20004580:	fd010113          	addi	sp,sp,-48
20004584:	02812423          	sw	s0,40(sp)
20004588:	02112623          	sw	ra,44(sp)
2000458c:	02912223          	sw	s1,36(sp)
20004590:	00277713          	andi	a4,a4,2
20004594:	00058413          	mv	s0,a1
20004598:	02070663          	beqz	a4,200045c4 <__smakebuf_r+0x48>
2000459c:	04740793          	addi	a5,s0,71
200045a0:	00f42023          	sw	a5,0(s0)
200045a4:	00f42823          	sw	a5,16(s0)
200045a8:	00100793          	li	a5,1
200045ac:	00f42a23          	sw	a5,20(s0)
200045b0:	02c12083          	lw	ra,44(sp)
200045b4:	02812403          	lw	s0,40(sp)
200045b8:	02412483          	lw	s1,36(sp)
200045bc:	03010113          	addi	sp,sp,48
200045c0:	00008067          	ret
200045c4:	01c10693          	addi	a3,sp,28
200045c8:	01810613          	addi	a2,sp,24
200045cc:	00050493          	mv	s1,a0
200045d0:	f21ff0ef          	jal	200044f0 <__swhatbuf_r>
200045d4:	01812583          	lw	a1,24(sp)
200045d8:	00048513          	mv	a0,s1
200045dc:	00b12623          	sw	a1,12(sp)
200045e0:	8b9fe0ef          	jal	20002e98 <_malloc_r>
200045e4:	00c41783          	lh	a5,12(s0)
200045e8:	00c12583          	lw	a1,12(sp)
200045ec:	00051e63          	bnez	a0,20004608 <__smakebuf_r+0x8c>
200045f0:	2007f713          	andi	a4,a5,512
200045f4:	fa071ee3          	bnez	a4,200045b0 <__smakebuf_r+0x34>
200045f8:	ffc7f793          	andi	a5,a5,-4
200045fc:	0027e793          	ori	a5,a5,2
20004600:	00f41623          	sh	a5,12(s0)
20004604:	f99ff06f          	j	2000459c <__smakebuf_r+0x20>
20004608:	0807e793          	ori	a5,a5,128
2000460c:	00f41623          	sh	a5,12(s0)
20004610:	01c12783          	lw	a5,28(sp)
20004614:	00a42023          	sw	a0,0(s0)
20004618:	00a42823          	sw	a0,16(s0)
2000461c:	00b42a23          	sw	a1,20(s0)
20004620:	f80788e3          	beqz	a5,200045b0 <__smakebuf_r+0x34>
20004624:	00e41583          	lh	a1,14(s0)
20004628:	00048513          	mv	a0,s1
2000462c:	5c0000ef          	jal	20004bec <_isatty_r>
20004630:	f80500e3          	beqz	a0,200045b0 <__smakebuf_r+0x34>
20004634:	00c45783          	lhu	a5,12(s0)
20004638:	ffc7f793          	andi	a5,a5,-4
2000463c:	0017e793          	ori	a5,a5,1
20004640:	00f41623          	sh	a5,12(s0)
20004644:	f6dff06f          	j	200045b0 <__smakebuf_r+0x34>

20004648 <__sread>:
20004648:	ff010113          	addi	sp,sp,-16
2000464c:	00812423          	sw	s0,8(sp)
20004650:	00058413          	mv	s0,a1
20004654:	00e59583          	lh	a1,14(a1)
20004658:	00112623          	sw	ra,12(sp)
2000465c:	630000ef          	jal	20004c8c <_read_r>
20004660:	02054063          	bltz	a0,20004680 <__sread+0x38>
20004664:	05442783          	lw	a5,84(s0)
20004668:	00a787b3          	add	a5,a5,a0
2000466c:	04f42a23          	sw	a5,84(s0)
20004670:	00c12083          	lw	ra,12(sp)
20004674:	00812403          	lw	s0,8(sp)
20004678:	01010113          	addi	sp,sp,16
2000467c:	00008067          	ret
20004680:	00c45783          	lhu	a5,12(s0)
20004684:	fffff737          	lui	a4,0xfffff
20004688:	fff70713          	addi	a4,a4,-1 # ffffefff <__stack_top+0xdfff8493>
2000468c:	00e7f7b3          	and	a5,a5,a4
20004690:	00f41623          	sh	a5,12(s0)
20004694:	fddff06f          	j	20004670 <__sread+0x28>

20004698 <__seofread>:
20004698:	00000513          	li	a0,0
2000469c:	00008067          	ret

200046a0 <__swrite>:
200046a0:	00c5d783          	lhu	a5,12(a1)
200046a4:	fe010113          	addi	sp,sp,-32
200046a8:	00812c23          	sw	s0,24(sp)
200046ac:	00912a23          	sw	s1,20(sp)
200046b0:	01212823          	sw	s2,16(sp)
200046b4:	01312623          	sw	s3,12(sp)
200046b8:	00112e23          	sw	ra,28(sp)
200046bc:	1007f793          	andi	a5,a5,256
200046c0:	00050493          	mv	s1,a0
200046c4:	00058413          	mv	s0,a1
200046c8:	00060913          	mv	s2,a2
200046cc:	00068993          	mv	s3,a3
200046d0:	00078a63          	beqz	a5,200046e4 <__swrite+0x44>
200046d4:	00e59583          	lh	a1,14(a1)
200046d8:	00200693          	li	a3,2
200046dc:	00000613          	li	a2,0
200046e0:	558000ef          	jal	20004c38 <_lseek_r>
200046e4:	00c45783          	lhu	a5,12(s0)
200046e8:	fffff737          	lui	a4,0xfffff
200046ec:	fff70713          	addi	a4,a4,-1 # ffffefff <__stack_top+0xdfff8493>
200046f0:	00e7f7b3          	and	a5,a5,a4
200046f4:	00e41583          	lh	a1,14(s0)
200046f8:	00f41623          	sh	a5,12(s0)
200046fc:	01812403          	lw	s0,24(sp)
20004700:	01c12083          	lw	ra,28(sp)
20004704:	00098693          	mv	a3,s3
20004708:	00090613          	mv	a2,s2
2000470c:	00c12983          	lw	s3,12(sp)
20004710:	01012903          	lw	s2,16(sp)
20004714:	00048513          	mv	a0,s1
20004718:	01412483          	lw	s1,20(sp)
2000471c:	02010113          	addi	sp,sp,32
20004720:	60c0006f          	j	20004d2c <_write_r>

20004724 <__sseek>:
20004724:	ff010113          	addi	sp,sp,-16
20004728:	00812423          	sw	s0,8(sp)
2000472c:	00058413          	mv	s0,a1
20004730:	00e59583          	lh	a1,14(a1)
20004734:	00112623          	sw	ra,12(sp)
20004738:	500000ef          	jal	20004c38 <_lseek_r>
2000473c:	fff00713          	li	a4,-1
20004740:	00c41783          	lh	a5,12(s0)
20004744:	02e51263          	bne	a0,a4,20004768 <__sseek+0x44>
20004748:	80050713          	addi	a4,a0,-2048
2000474c:	80070713          	addi	a4,a4,-2048
20004750:	00e7f7b3          	and	a5,a5,a4
20004754:	00f41623          	sh	a5,12(s0)
20004758:	00c12083          	lw	ra,12(sp)
2000475c:	00812403          	lw	s0,8(sp)
20004760:	01010113          	addi	sp,sp,16
20004764:	00008067          	ret
20004768:	00001737          	lui	a4,0x1
2000476c:	00e7e7b3          	or	a5,a5,a4
20004770:	00f41623          	sh	a5,12(s0)
20004774:	04a42a23          	sw	a0,84(s0)
20004778:	fe1ff06f          	j	20004758 <__sseek+0x34>

2000477c <__sclose>:
2000477c:	00e59583          	lh	a1,14(a1)
20004780:	2540006f          	j	200049d4 <_close_r>

20004784 <__swbuf_r>:
20004784:	fe010113          	addi	sp,sp,-32
20004788:	00812c23          	sw	s0,24(sp)
2000478c:	00912a23          	sw	s1,20(sp)
20004790:	01312623          	sw	s3,12(sp)
20004794:	00112e23          	sw	ra,28(sp)
20004798:	01212823          	sw	s2,16(sp)
2000479c:	00050493          	mv	s1,a0
200047a0:	00058993          	mv	s3,a1
200047a4:	00060413          	mv	s0,a2
200047a8:	00050863          	beqz	a0,200047b8 <__swbuf_r+0x34>
200047ac:	02052783          	lw	a5,32(a0)
200047b0:	00079463          	bnez	a5,200047b8 <__swbuf_r+0x34>
200047b4:	f58ff0ef          	jal	20003f0c <__sinit>
200047b8:	01842783          	lw	a5,24(s0)
200047bc:	00f42423          	sw	a5,8(s0)
200047c0:	00c45783          	lhu	a5,12(s0)
200047c4:	0087f793          	andi	a5,a5,8
200047c8:	00078663          	beqz	a5,200047d4 <__swbuf_r+0x50>
200047cc:	01042783          	lw	a5,16(s0)
200047d0:	02079c63          	bnez	a5,20004808 <__swbuf_r+0x84>
200047d4:	00040593          	mv	a1,s0
200047d8:	00048513          	mv	a0,s1
200047dc:	0b8000ef          	jal	20004894 <__swsetup_r>
200047e0:	02050463          	beqz	a0,20004808 <__swbuf_r+0x84>
200047e4:	fff00913          	li	s2,-1
200047e8:	01c12083          	lw	ra,28(sp)
200047ec:	01812403          	lw	s0,24(sp)
200047f0:	01412483          	lw	s1,20(sp)
200047f4:	00c12983          	lw	s3,12(sp)
200047f8:	00090513          	mv	a0,s2
200047fc:	01012903          	lw	s2,16(sp)
20004800:	02010113          	addi	sp,sp,32
20004804:	00008067          	ret
20004808:	01042783          	lw	a5,16(s0)
2000480c:	00042503          	lw	a0,0(s0)
20004810:	40f50533          	sub	a0,a0,a5
20004814:	01442783          	lw	a5,20(s0)
20004818:	00f54a63          	blt	a0,a5,2000482c <__swbuf_r+0xa8>
2000481c:	00040593          	mv	a1,s0
20004820:	00048513          	mv	a0,s1
20004824:	bc4ff0ef          	jal	20003be8 <_fflush_r>
20004828:	fa051ee3          	bnez	a0,200047e4 <__swbuf_r+0x60>
2000482c:	00842783          	lw	a5,8(s0)
20004830:	00150513          	addi	a0,a0,1
20004834:	0ff9f913          	zext.b	s2,s3
20004838:	fff78793          	addi	a5,a5,-1
2000483c:	00f42423          	sw	a5,8(s0)
20004840:	00042783          	lw	a5,0(s0)
20004844:	00178713          	addi	a4,a5,1
20004848:	00e42023          	sw	a4,0(s0)
2000484c:	01378023          	sb	s3,0(a5)
20004850:	01442783          	lw	a5,20(s0)
20004854:	00a78c63          	beq	a5,a0,2000486c <__swbuf_r+0xe8>
20004858:	00c45783          	lhu	a5,12(s0)
2000485c:	0017f793          	andi	a5,a5,1
20004860:	f80784e3          	beqz	a5,200047e8 <__swbuf_r+0x64>
20004864:	ff690793          	addi	a5,s2,-10
20004868:	f80790e3          	bnez	a5,200047e8 <__swbuf_r+0x64>
2000486c:	00040593          	mv	a1,s0
20004870:	00048513          	mv	a0,s1
20004874:	b74ff0ef          	jal	20003be8 <_fflush_r>
20004878:	f60508e3          	beqz	a0,200047e8 <__swbuf_r+0x64>
2000487c:	f69ff06f          	j	200047e4 <__swbuf_r+0x60>

20004880 <__swbuf>:
20004880:	200067b7          	lui	a5,0x20006
20004884:	00058613          	mv	a2,a1
20004888:	00050593          	mv	a1,a0
2000488c:	9507a503          	lw	a0,-1712(a5) # 20005950 <_impure_ptr>
20004890:	ef5ff06f          	j	20004784 <__swbuf_r>

20004894 <__swsetup_r>:
20004894:	ff010113          	addi	sp,sp,-16
20004898:	200067b7          	lui	a5,0x20006
2000489c:	00912223          	sw	s1,4(sp)
200048a0:	00050493          	mv	s1,a0
200048a4:	9507a503          	lw	a0,-1712(a5) # 20005950 <_impure_ptr>
200048a8:	00812423          	sw	s0,8(sp)
200048ac:	00112623          	sw	ra,12(sp)
200048b0:	00058413          	mv	s0,a1
200048b4:	00050863          	beqz	a0,200048c4 <__swsetup_r+0x30>
200048b8:	02052783          	lw	a5,32(a0)
200048bc:	00079463          	bnez	a5,200048c4 <__swsetup_r+0x30>
200048c0:	e4cff0ef          	jal	20003f0c <__sinit>
200048c4:	00c41783          	lh	a5,12(s0)
200048c8:	0087f713          	andi	a4,a5,8
200048cc:	06071263          	bnez	a4,20004930 <__swsetup_r+0x9c>
200048d0:	0107f713          	andi	a4,a5,16
200048d4:	00071e63          	bnez	a4,200048f0 <__swsetup_r+0x5c>
200048d8:	00900713          	li	a4,9
200048dc:	00e4a023          	sw	a4,0(s1)
200048e0:	0407e793          	ori	a5,a5,64
200048e4:	00f41623          	sh	a5,12(s0)
200048e8:	fff00513          	li	a0,-1
200048ec:	0980006f          	j	20004984 <__swsetup_r+0xf0>
200048f0:	0047f713          	andi	a4,a5,4
200048f4:	02070a63          	beqz	a4,20004928 <__swsetup_r+0x94>
200048f8:	03442583          	lw	a1,52(s0)
200048fc:	00058c63          	beqz	a1,20004914 <__swsetup_r+0x80>
20004900:	04440793          	addi	a5,s0,68
20004904:	00f58663          	beq	a1,a5,20004910 <__swsetup_r+0x7c>
20004908:	00048513          	mv	a0,s1
2000490c:	be8fe0ef          	jal	20002cf4 <_free_r>
20004910:	02042a23          	sw	zero,52(s0)
20004914:	00c45783          	lhu	a5,12(s0)
20004918:	01042703          	lw	a4,16(s0)
2000491c:	00042223          	sw	zero,4(s0)
20004920:	fdb7f793          	andi	a5,a5,-37
20004924:	00e42023          	sw	a4,0(s0)
20004928:	0087e793          	ori	a5,a5,8
2000492c:	00f41623          	sh	a5,12(s0)
20004930:	01042783          	lw	a5,16(s0)
20004934:	02079063          	bnez	a5,20004954 <__swsetup_r+0xc0>
20004938:	00c42783          	lw	a5,12(s0)
2000493c:	20000713          	li	a4,512
20004940:	2807f793          	andi	a5,a5,640
20004944:	00e78863          	beq	a5,a4,20004954 <__swsetup_r+0xc0>
20004948:	00040593          	mv	a1,s0
2000494c:	00048513          	mv	a0,s1
20004950:	c2dff0ef          	jal	2000457c <__smakebuf_r>
20004954:	00c41783          	lh	a5,12(s0)
20004958:	0017f713          	andi	a4,a5,1
2000495c:	02070e63          	beqz	a4,20004998 <__swsetup_r+0x104>
20004960:	01442703          	lw	a4,20(s0)
20004964:	00042423          	sw	zero,8(s0)
20004968:	40e00733          	neg	a4,a4
2000496c:	00e42c23          	sw	a4,24(s0)
20004970:	01042703          	lw	a4,16(s0)
20004974:	00000513          	li	a0,0
20004978:	00071663          	bnez	a4,20004984 <__swsetup_r+0xf0>
2000497c:	0807f713          	andi	a4,a5,128
20004980:	f60710e3          	bnez	a4,200048e0 <__swsetup_r+0x4c>
20004984:	00c12083          	lw	ra,12(sp)
20004988:	00812403          	lw	s0,8(sp)
2000498c:	00412483          	lw	s1,4(sp)
20004990:	01010113          	addi	sp,sp,16
20004994:	00008067          	ret
20004998:	0027f713          	andi	a4,a5,2
2000499c:	00000693          	li	a3,0
200049a0:	00071463          	bnez	a4,200049a8 <__swsetup_r+0x114>
200049a4:	01442683          	lw	a3,20(s0)
200049a8:	00d42423          	sw	a3,8(s0)
200049ac:	fc5ff06f          	j	20004970 <__swsetup_r+0xdc>

200049b0 <memchr>:
200049b0:	0ff5f593          	zext.b	a1,a1
200049b4:	00c50633          	add	a2,a0,a2
200049b8:	00c51663          	bne	a0,a2,200049c4 <memchr+0x14>
200049bc:	00000513          	li	a0,0
200049c0:	00008067          	ret
200049c4:	00054783          	lbu	a5,0(a0)
200049c8:	feb78ce3          	beq	a5,a1,200049c0 <memchr+0x10>
200049cc:	00150513          	addi	a0,a0,1
200049d0:	fe9ff06f          	j	200049b8 <memchr+0x8>

200049d4 <_close_r>:
200049d4:	ff010113          	addi	sp,sp,-16
200049d8:	00812423          	sw	s0,8(sp)
200049dc:	00912223          	sw	s1,4(sp)
200049e0:	20006437          	lui	s0,0x20006
200049e4:	00050493          	mv	s1,a0
200049e8:	00058513          	mv	a0,a1
200049ec:	00112623          	sw	ra,12(sp)
200049f0:	f6042423          	sw	zero,-152(s0) # 20005f68 <errno>
200049f4:	c44fd0ef          	jal	20001e38 <_close>
200049f8:	fff00793          	li	a5,-1
200049fc:	00f51863          	bne	a0,a5,20004a0c <_close_r+0x38>
20004a00:	f6842783          	lw	a5,-152(s0)
20004a04:	00078463          	beqz	a5,20004a0c <_close_r+0x38>
20004a08:	00f4a023          	sw	a5,0(s1)
20004a0c:	00c12083          	lw	ra,12(sp)
20004a10:	00812403          	lw	s0,8(sp)
20004a14:	00412483          	lw	s1,4(sp)
20004a18:	01010113          	addi	sp,sp,16
20004a1c:	00008067          	ret

20004a20 <_reclaim_reent>:
20004a20:	200067b7          	lui	a5,0x20006
20004a24:	9507a783          	lw	a5,-1712(a5) # 20005950 <_impure_ptr>
20004a28:	16a78863          	beq	a5,a0,20004b98 <_reclaim_reent+0x178>
20004a2c:	01c52783          	lw	a5,28(a0)
20004a30:	fe010113          	addi	sp,sp,-32
20004a34:	00812c23          	sw	s0,24(sp)
20004a38:	00112e23          	sw	ra,28(sp)
20004a3c:	00912a23          	sw	s1,20(sp)
20004a40:	01212823          	sw	s2,16(sp)
20004a44:	01312623          	sw	s3,12(sp)
20004a48:	00050413          	mv	s0,a0
20004a4c:	08078463          	beqz	a5,20004ad4 <_reclaim_reent+0xb4>
20004a50:	00c7a783          	lw	a5,12(a5)
20004a54:	02078c63          	beqz	a5,20004a8c <_reclaim_reent+0x6c>
20004a58:	00000493          	li	s1,0
20004a5c:	08000913          	li	s2,128
20004a60:	01c42783          	lw	a5,28(s0)
20004a64:	00c7a783          	lw	a5,12(a5)
20004a68:	009787b3          	add	a5,a5,s1
20004a6c:	0007a583          	lw	a1,0(a5)
20004a70:	04059863          	bnez	a1,20004ac0 <_reclaim_reent+0xa0>
20004a74:	00448493          	addi	s1,s1,4
20004a78:	ff2494e3          	bne	s1,s2,20004a60 <_reclaim_reent+0x40>
20004a7c:	01c42783          	lw	a5,28(s0)
20004a80:	00040513          	mv	a0,s0
20004a84:	00c7a583          	lw	a1,12(a5)
20004a88:	a6cfe0ef          	jal	20002cf4 <_free_r>
20004a8c:	01c42783          	lw	a5,28(s0)
20004a90:	0007a583          	lw	a1,0(a5)
20004a94:	00058663          	beqz	a1,20004aa0 <_reclaim_reent+0x80>
20004a98:	00040513          	mv	a0,s0
20004a9c:	a58fe0ef          	jal	20002cf4 <_free_r>
20004aa0:	01c42783          	lw	a5,28(s0)
20004aa4:	0087a483          	lw	s1,8(a5)
20004aa8:	02048663          	beqz	s1,20004ad4 <_reclaim_reent+0xb4>
20004aac:	00048593          	mv	a1,s1
20004ab0:	00040513          	mv	a0,s0
20004ab4:	0004a483          	lw	s1,0(s1)
20004ab8:	a3cfe0ef          	jal	20002cf4 <_free_r>
20004abc:	fedff06f          	j	20004aa8 <_reclaim_reent+0x88>
20004ac0:	0005a983          	lw	s3,0(a1)
20004ac4:	00040513          	mv	a0,s0
20004ac8:	a2cfe0ef          	jal	20002cf4 <_free_r>
20004acc:	00098593          	mv	a1,s3
20004ad0:	fa1ff06f          	j	20004a70 <_reclaim_reent+0x50>
20004ad4:	01442583          	lw	a1,20(s0)
20004ad8:	00058663          	beqz	a1,20004ae4 <_reclaim_reent+0xc4>
20004adc:	00040513          	mv	a0,s0
20004ae0:	a14fe0ef          	jal	20002cf4 <_free_r>
20004ae4:	01c42583          	lw	a1,28(s0)
20004ae8:	00058663          	beqz	a1,20004af4 <_reclaim_reent+0xd4>
20004aec:	00040513          	mv	a0,s0
20004af0:	a04fe0ef          	jal	20002cf4 <_free_r>
20004af4:	03042583          	lw	a1,48(s0)
20004af8:	00058663          	beqz	a1,20004b04 <_reclaim_reent+0xe4>
20004afc:	00040513          	mv	a0,s0
20004b00:	9f4fe0ef          	jal	20002cf4 <_free_r>
20004b04:	03442583          	lw	a1,52(s0)
20004b08:	00058663          	beqz	a1,20004b14 <_reclaim_reent+0xf4>
20004b0c:	00040513          	mv	a0,s0
20004b10:	9e4fe0ef          	jal	20002cf4 <_free_r>
20004b14:	03842583          	lw	a1,56(s0)
20004b18:	00058663          	beqz	a1,20004b24 <_reclaim_reent+0x104>
20004b1c:	00040513          	mv	a0,s0
20004b20:	9d4fe0ef          	jal	20002cf4 <_free_r>
20004b24:	04842583          	lw	a1,72(s0)
20004b28:	00058663          	beqz	a1,20004b34 <_reclaim_reent+0x114>
20004b2c:	00040513          	mv	a0,s0
20004b30:	9c4fe0ef          	jal	20002cf4 <_free_r>
20004b34:	04442583          	lw	a1,68(s0)
20004b38:	00058663          	beqz	a1,20004b44 <_reclaim_reent+0x124>
20004b3c:	00040513          	mv	a0,s0
20004b40:	9b4fe0ef          	jal	20002cf4 <_free_r>
20004b44:	02c42583          	lw	a1,44(s0)
20004b48:	00058663          	beqz	a1,20004b54 <_reclaim_reent+0x134>
20004b4c:	00040513          	mv	a0,s0
20004b50:	9a4fe0ef          	jal	20002cf4 <_free_r>
20004b54:	02042783          	lw	a5,32(s0)
20004b58:	02078263          	beqz	a5,20004b7c <_reclaim_reent+0x15c>
20004b5c:	00040513          	mv	a0,s0
20004b60:	01812403          	lw	s0,24(sp)
20004b64:	01c12083          	lw	ra,28(sp)
20004b68:	01412483          	lw	s1,20(sp)
20004b6c:	01012903          	lw	s2,16(sp)
20004b70:	00c12983          	lw	s3,12(sp)
20004b74:	02010113          	addi	sp,sp,32
20004b78:	00078067          	jr	a5
20004b7c:	01c12083          	lw	ra,28(sp)
20004b80:	01812403          	lw	s0,24(sp)
20004b84:	01412483          	lw	s1,20(sp)
20004b88:	01012903          	lw	s2,16(sp)
20004b8c:	00c12983          	lw	s3,12(sp)
20004b90:	02010113          	addi	sp,sp,32
20004b94:	00008067          	ret
20004b98:	00008067          	ret

20004b9c <_fstat_r>:
20004b9c:	ff010113          	addi	sp,sp,-16
20004ba0:	00812423          	sw	s0,8(sp)
20004ba4:	00912223          	sw	s1,4(sp)
20004ba8:	20006437          	lui	s0,0x20006
20004bac:	00050493          	mv	s1,a0
20004bb0:	00058513          	mv	a0,a1
20004bb4:	00060593          	mv	a1,a2
20004bb8:	00112623          	sw	ra,12(sp)
20004bbc:	f6042423          	sw	zero,-152(s0) # 20005f68 <errno>
20004bc0:	ad8fd0ef          	jal	20001e98 <_fstat>
20004bc4:	fff00793          	li	a5,-1
20004bc8:	00f51863          	bne	a0,a5,20004bd8 <_fstat_r+0x3c>
20004bcc:	f6842783          	lw	a5,-152(s0)
20004bd0:	00078463          	beqz	a5,20004bd8 <_fstat_r+0x3c>
20004bd4:	00f4a023          	sw	a5,0(s1)
20004bd8:	00c12083          	lw	ra,12(sp)
20004bdc:	00812403          	lw	s0,8(sp)
20004be0:	00412483          	lw	s1,4(sp)
20004be4:	01010113          	addi	sp,sp,16
20004be8:	00008067          	ret

20004bec <_isatty_r>:
20004bec:	ff010113          	addi	sp,sp,-16
20004bf0:	00812423          	sw	s0,8(sp)
20004bf4:	00912223          	sw	s1,4(sp)
20004bf8:	20006437          	lui	s0,0x20006
20004bfc:	00050493          	mv	s1,a0
20004c00:	00058513          	mv	a0,a1
20004c04:	00112623          	sw	ra,12(sp)
20004c08:	f6042423          	sw	zero,-152(s0) # 20005f68 <errno>
20004c0c:	afcfd0ef          	jal	20001f08 <_isatty>
20004c10:	fff00793          	li	a5,-1
20004c14:	00f51863          	bne	a0,a5,20004c24 <_isatty_r+0x38>
20004c18:	f6842783          	lw	a5,-152(s0)
20004c1c:	00078463          	beqz	a5,20004c24 <_isatty_r+0x38>
20004c20:	00f4a023          	sw	a5,0(s1)
20004c24:	00c12083          	lw	ra,12(sp)
20004c28:	00812403          	lw	s0,8(sp)
20004c2c:	00412483          	lw	s1,4(sp)
20004c30:	01010113          	addi	sp,sp,16
20004c34:	00008067          	ret

20004c38 <_lseek_r>:
20004c38:	ff010113          	addi	sp,sp,-16
20004c3c:	00812423          	sw	s0,8(sp)
20004c40:	00912223          	sw	s1,4(sp)
20004c44:	20006437          	lui	s0,0x20006
20004c48:	00050493          	mv	s1,a0
20004c4c:	00058513          	mv	a0,a1
20004c50:	00060593          	mv	a1,a2
20004c54:	00068613          	mv	a2,a3
20004c58:	00112623          	sw	ra,12(sp)
20004c5c:	f6042423          	sw	zero,-152(s0) # 20005f68 <errno>
20004c60:	a74fd0ef          	jal	20001ed4 <_lseek>
20004c64:	fff00793          	li	a5,-1
20004c68:	00f51863          	bne	a0,a5,20004c78 <_lseek_r+0x40>
20004c6c:	f6842783          	lw	a5,-152(s0)
20004c70:	00078463          	beqz	a5,20004c78 <_lseek_r+0x40>
20004c74:	00f4a023          	sw	a5,0(s1)
20004c78:	00c12083          	lw	ra,12(sp)
20004c7c:	00812403          	lw	s0,8(sp)
20004c80:	00412483          	lw	s1,4(sp)
20004c84:	01010113          	addi	sp,sp,16
20004c88:	00008067          	ret

20004c8c <_read_r>:
20004c8c:	ff010113          	addi	sp,sp,-16
20004c90:	00812423          	sw	s0,8(sp)
20004c94:	00912223          	sw	s1,4(sp)
20004c98:	20006437          	lui	s0,0x20006
20004c9c:	00050493          	mv	s1,a0
20004ca0:	00058513          	mv	a0,a1
20004ca4:	00060593          	mv	a1,a2
20004ca8:	00068613          	mv	a2,a3
20004cac:	00112623          	sw	ra,12(sp)
20004cb0:	f6042423          	sw	zero,-152(s0) # 20005f68 <errno>
20004cb4:	ae8fd0ef          	jal	20001f9c <_read>
20004cb8:	fff00793          	li	a5,-1
20004cbc:	00f51863          	bne	a0,a5,20004ccc <_read_r+0x40>
20004cc0:	f6842783          	lw	a5,-152(s0)
20004cc4:	00078463          	beqz	a5,20004ccc <_read_r+0x40>
20004cc8:	00f4a023          	sw	a5,0(s1)
20004ccc:	00c12083          	lw	ra,12(sp)
20004cd0:	00812403          	lw	s0,8(sp)
20004cd4:	00412483          	lw	s1,4(sp)
20004cd8:	01010113          	addi	sp,sp,16
20004cdc:	00008067          	ret

20004ce0 <_sbrk_r>:
20004ce0:	ff010113          	addi	sp,sp,-16
20004ce4:	00812423          	sw	s0,8(sp)
20004ce8:	00912223          	sw	s1,4(sp)
20004cec:	20006437          	lui	s0,0x20006
20004cf0:	00050493          	mv	s1,a0
20004cf4:	00058513          	mv	a0,a1
20004cf8:	00112623          	sw	ra,12(sp)
20004cfc:	f6042423          	sw	zero,-152(s0) # 20005f68 <errno>
20004d00:	de9fc0ef          	jal	20001ae8 <_sbrk>
20004d04:	fff00793          	li	a5,-1
20004d08:	00f51863          	bne	a0,a5,20004d18 <_sbrk_r+0x38>
20004d0c:	f6842783          	lw	a5,-152(s0)
20004d10:	00078463          	beqz	a5,20004d18 <_sbrk_r+0x38>
20004d14:	00f4a023          	sw	a5,0(s1)
20004d18:	00c12083          	lw	ra,12(sp)
20004d1c:	00812403          	lw	s0,8(sp)
20004d20:	00412483          	lw	s1,4(sp)
20004d24:	01010113          	addi	sp,sp,16
20004d28:	00008067          	ret

20004d2c <_write_r>:
20004d2c:	ff010113          	addi	sp,sp,-16
20004d30:	00812423          	sw	s0,8(sp)
20004d34:	00912223          	sw	s1,4(sp)
20004d38:	20006437          	lui	s0,0x20006
20004d3c:	00050493          	mv	s1,a0
20004d40:	00058513          	mv	a0,a1
20004d44:	00060593          	mv	a1,a2
20004d48:	00068613          	mv	a2,a3
20004d4c:	00112623          	sw	ra,12(sp)
20004d50:	f6042423          	sw	zero,-152(s0) # 20005f68 <errno>
20004d54:	9e0fd0ef          	jal	20001f34 <_write>
20004d58:	fff00793          	li	a5,-1
20004d5c:	00f51863          	bne	a0,a5,20004d6c <_write_r+0x40>
20004d60:	f6842783          	lw	a5,-152(s0)
20004d64:	00078463          	beqz	a5,20004d6c <_write_r+0x40>
20004d68:	00f4a023          	sw	a5,0(s1)
20004d6c:	00c12083          	lw	ra,12(sp)
20004d70:	00812403          	lw	s0,8(sp)
20004d74:	00412483          	lw	s1,4(sp)
20004d78:	01010113          	addi	sp,sp,16
20004d7c:	00008067          	ret

20004d80 <memmove>:
20004d80:	02060c63          	beqz	a2,20004db8 <memmove+0x38>
20004d84:	00050313          	mv	t1,a0
20004d88:	00100693          	li	a3,1
20004d8c:	00b56a63          	bltu	a0,a1,20004da0 <memmove+0x20>
20004d90:	fff00693          	li	a3,-1
20004d94:	fff60713          	addi	a4,a2,-1
20004d98:	00e30333          	add	t1,t1,a4
20004d9c:	00e585b3          	add	a1,a1,a4
20004da0:	00058383          	lb	t2,0(a1)
20004da4:	00730023          	sb	t2,0(t1) # 1000000 <_start-0x1f000000>
20004da8:	fff60613          	addi	a2,a2,-1
20004dac:	00d30333          	add	t1,t1,a3
20004db0:	00d585b3          	add	a1,a1,a3
20004db4:	fe0616e3          	bnez	a2,20004da0 <memmove+0x20>
20004db8:	00008067          	ret

20004dbc <memset>:
20004dbc:	00050313          	mv	t1,a0
20004dc0:	00060a63          	beqz	a2,20004dd4 <memset+0x18>
20004dc4:	00b30023          	sb	a1,0(t1)
20004dc8:	fff60613          	addi	a2,a2,-1
20004dcc:	00130313          	addi	t1,t1,1
20004dd0:	fe061ae3          	bnez	a2,20004dc4 <memset+0x8>
20004dd4:	00008067          	ret

20004dd8 <memcpy>:
20004dd8:	00050313          	mv	t1,a0
20004ddc:	00060e63          	beqz	a2,20004df8 <memcpy+0x20>
20004de0:	00058383          	lb	t2,0(a1)
20004de4:	00730023          	sb	t2,0(t1)
20004de8:	fff60613          	addi	a2,a2,-1
20004dec:	00130313          	addi	t1,t1,1
20004df0:	00158593          	addi	a1,a1,1
20004df4:	fe0616e3          	bnez	a2,20004de0 <memcpy+0x8>
20004df8:	00008067          	ret

20004dfc <abort>:
20004dfc:	ff010113          	addi	sp,sp,-16
20004e00:	00600513          	li	a0,6
20004e04:	00112623          	sw	ra,12(sp)
20004e08:	2e8000ef          	jal	200050f0 <raise>
20004e0c:	00100513          	li	a0,1
20004e10:	fe5fc0ef          	jal	20001df4 <_exit>

20004e14 <_realloc_r>:
20004e14:	00059663          	bnez	a1,20004e20 <_realloc_r+0xc>
20004e18:	00060593          	mv	a1,a2
20004e1c:	87cfe06f          	j	20002e98 <_malloc_r>
20004e20:	fe010113          	addi	sp,sp,-32
20004e24:	00812c23          	sw	s0,24(sp)
20004e28:	01412423          	sw	s4,8(sp)
20004e2c:	00112e23          	sw	ra,28(sp)
20004e30:	00912a23          	sw	s1,20(sp)
20004e34:	01212823          	sw	s2,16(sp)
20004e38:	01312623          	sw	s3,12(sp)
20004e3c:	00060413          	mv	s0,a2
20004e40:	00050a13          	mv	s4,a0
20004e44:	02061863          	bnez	a2,20004e74 <_realloc_r+0x60>
20004e48:	eadfd0ef          	jal	20002cf4 <_free_r>
20004e4c:	00000493          	li	s1,0
20004e50:	01c12083          	lw	ra,28(sp)
20004e54:	01812403          	lw	s0,24(sp)
20004e58:	01012903          	lw	s2,16(sp)
20004e5c:	00c12983          	lw	s3,12(sp)
20004e60:	00812a03          	lw	s4,8(sp)
20004e64:	00048513          	mv	a0,s1
20004e68:	01412483          	lw	s1,20(sp)
20004e6c:	02010113          	addi	sp,sp,32
20004e70:	00008067          	ret
20004e74:	00058493          	mv	s1,a1
20004e78:	30c000ef          	jal	20005184 <_malloc_usable_size_r>
20004e7c:	00050913          	mv	s2,a0
20004e80:	00856663          	bltu	a0,s0,20004e8c <_realloc_r+0x78>
20004e84:	00155793          	srli	a5,a0,0x1
20004e88:	fc87e4e3          	bltu	a5,s0,20004e50 <_realloc_r+0x3c>
20004e8c:	00040593          	mv	a1,s0
20004e90:	000a0513          	mv	a0,s4
20004e94:	804fe0ef          	jal	20002e98 <_malloc_r>
20004e98:	00050993          	mv	s3,a0
20004e9c:	00051663          	bnez	a0,20004ea8 <_realloc_r+0x94>
20004ea0:	00098493          	mv	s1,s3
20004ea4:	fadff06f          	j	20004e50 <_realloc_r+0x3c>
20004ea8:	00040613          	mv	a2,s0
20004eac:	00897463          	bgeu	s2,s0,20004eb4 <_realloc_r+0xa0>
20004eb0:	00090613          	mv	a2,s2
20004eb4:	00048593          	mv	a1,s1
20004eb8:	00098513          	mv	a0,s3
20004ebc:	f1dff0ef          	jal	20004dd8 <memcpy>
20004ec0:	00048593          	mv	a1,s1
20004ec4:	000a0513          	mv	a0,s4
20004ec8:	e2dfd0ef          	jal	20002cf4 <_free_r>
20004ecc:	fd5ff06f          	j	20004ea0 <_realloc_r+0x8c>

20004ed0 <_init_signal_r>:
20004ed0:	03c52703          	lw	a4,60(a0)
20004ed4:	04071663          	bnez	a4,20004f20 <_init_signal_r+0x50>
20004ed8:	fe010113          	addi	sp,sp,-32
20004edc:	08000593          	li	a1,128
20004ee0:	00112e23          	sw	ra,28(sp)
20004ee4:	00a12623          	sw	a0,12(sp)
20004ee8:	fb1fd0ef          	jal	20002e98 <_malloc_r>
20004eec:	00c12783          	lw	a5,12(sp)
20004ef0:	02a7ae23          	sw	a0,60(a5)
20004ef4:	fff00793          	li	a5,-1
20004ef8:	00050c63          	beqz	a0,20004f10 <_init_signal_r+0x40>
20004efc:	08050793          	addi	a5,a0,128
20004f00:	00052023          	sw	zero,0(a0)
20004f04:	00450513          	addi	a0,a0,4
20004f08:	fef51ce3          	bne	a0,a5,20004f00 <_init_signal_r+0x30>
20004f0c:	00000793          	li	a5,0
20004f10:	01c12083          	lw	ra,28(sp)
20004f14:	00078513          	mv	a0,a5
20004f18:	02010113          	addi	sp,sp,32
20004f1c:	00008067          	ret
20004f20:	00000793          	li	a5,0
20004f24:	00078513          	mv	a0,a5
20004f28:	00008067          	ret

20004f2c <_signal_r>:
20004f2c:	01f00713          	li	a4,31
20004f30:	00b77a63          	bgeu	a4,a1,20004f44 <_signal_r+0x18>
20004f34:	01600713          	li	a4,22
20004f38:	00e52023          	sw	a4,0(a0)
20004f3c:	fff00513          	li	a0,-1
20004f40:	00008067          	ret
20004f44:	03c52703          	lw	a4,60(a0)
20004f48:	02070e63          	beqz	a4,20004f84 <_signal_r+0x58>
20004f4c:	03c52783          	lw	a5,60(a0)
20004f50:	00259593          	slli	a1,a1,0x2
20004f54:	00b787b3          	add	a5,a5,a1
20004f58:	0007a503          	lw	a0,0(a5)
20004f5c:	00c7a023          	sw	a2,0(a5)
20004f60:	00008067          	ret
20004f64:	03c7a783          	lw	a5,60(a5)
20004f68:	00259593          	slli	a1,a1,0x2
20004f6c:	00b787b3          	add	a5,a5,a1
20004f70:	0007a503          	lw	a0,0(a5)
20004f74:	00c7a023          	sw	a2,0(a5)
20004f78:	01c12083          	lw	ra,28(sp)
20004f7c:	02010113          	addi	sp,sp,32
20004f80:	00008067          	ret
20004f84:	fe010113          	addi	sp,sp,-32
20004f88:	00c12623          	sw	a2,12(sp)
20004f8c:	00b12423          	sw	a1,8(sp)
20004f90:	00112e23          	sw	ra,28(sp)
20004f94:	00a12223          	sw	a0,4(sp)
20004f98:	f39ff0ef          	jal	20004ed0 <_init_signal_r>
20004f9c:	00412783          	lw	a5,4(sp)
20004fa0:	00812583          	lw	a1,8(sp)
20004fa4:	00c12603          	lw	a2,12(sp)
20004fa8:	fa050ee3          	beqz	a0,20004f64 <_signal_r+0x38>
20004fac:	fff00513          	li	a0,-1
20004fb0:	fc9ff06f          	j	20004f78 <_signal_r+0x4c>

20004fb4 <_raise_r>:
20004fb4:	01f00793          	li	a5,31
20004fb8:	00b7fa63          	bgeu	a5,a1,20004fcc <_raise_r+0x18>
20004fbc:	01600793          	li	a5,22
20004fc0:	00f52023          	sw	a5,0(a0)
20004fc4:	fff00513          	li	a0,-1
20004fc8:	00008067          	ret
20004fcc:	03c52783          	lw	a5,60(a0)
20004fd0:	fe010113          	addi	sp,sp,-32
20004fd4:	00812c23          	sw	s0,24(sp)
20004fd8:	00112e23          	sw	ra,28(sp)
20004fdc:	00058613          	mv	a2,a1
20004fe0:	00050413          	mv	s0,a0
20004fe4:	00078a63          	beqz	a5,20004ff8 <_raise_r+0x44>
20004fe8:	00259713          	slli	a4,a1,0x2
20004fec:	00e787b3          	add	a5,a5,a4
20004ff0:	0007a703          	lw	a4,0(a5)
20004ff4:	02071663          	bnez	a4,20005020 <_raise_r+0x6c>
20004ff8:	00040513          	mv	a0,s0
20004ffc:	00c12623          	sw	a2,12(sp)
20005000:	180000ef          	jal	20005180 <_getpid_r>
20005004:	00050593          	mv	a1,a0
20005008:	00040513          	mv	a0,s0
2000500c:	01812403          	lw	s0,24(sp)
20005010:	00c12603          	lw	a2,12(sp)
20005014:	01c12083          	lw	ra,28(sp)
20005018:	02010113          	addi	sp,sp,32
2000501c:	1140006f          	j	20005130 <_kill_r>
20005020:	00100513          	li	a0,1
20005024:	02a70863          	beq	a4,a0,20005054 <_raise_r+0xa0>
20005028:	fff00693          	li	a3,-1
2000502c:	00d71e63          	bne	a4,a3,20005048 <_raise_r+0x94>
20005030:	01600793          	li	a5,22
20005034:	00f42023          	sw	a5,0(s0)
20005038:	01c12083          	lw	ra,28(sp)
2000503c:	01812403          	lw	s0,24(sp)
20005040:	02010113          	addi	sp,sp,32
20005044:	00008067          	ret
20005048:	0007a023          	sw	zero,0(a5)
2000504c:	00058513          	mv	a0,a1
20005050:	000700e7          	jalr	a4 # 1000 <_start-0x1ffff000>
20005054:	00000513          	li	a0,0
20005058:	fe1ff06f          	j	20005038 <_raise_r+0x84>

2000505c <__sigtramp_r>:
2000505c:	01f00793          	li	a5,31
20005060:	00b7f663          	bgeu	a5,a1,2000506c <__sigtramp_r+0x10>
20005064:	fff00513          	li	a0,-1
20005068:	00008067          	ret
2000506c:	03c52783          	lw	a5,60(a0)
20005070:	ff010113          	addi	sp,sp,-16
20005074:	00812423          	sw	s0,8(sp)
20005078:	00912223          	sw	s1,4(sp)
2000507c:	00112623          	sw	ra,12(sp)
20005080:	00050493          	mv	s1,a0
20005084:	00058413          	mv	s0,a1
20005088:	04078463          	beqz	a5,200050d0 <__sigtramp_r+0x74>
2000508c:	03c4a703          	lw	a4,60(s1)
20005090:	00241793          	slli	a5,s0,0x2
20005094:	00100513          	li	a0,1
20005098:	00f70733          	add	a4,a4,a5
2000509c:	00072783          	lw	a5,0(a4)
200050a0:	02078e63          	beqz	a5,200050dc <__sigtramp_r+0x80>
200050a4:	fff00693          	li	a3,-1
200050a8:	00200513          	li	a0,2
200050ac:	02d78863          	beq	a5,a3,200050dc <__sigtramp_r+0x80>
200050b0:	00100693          	li	a3,1
200050b4:	00300513          	li	a0,3
200050b8:	02d78263          	beq	a5,a3,200050dc <__sigtramp_r+0x80>
200050bc:	00040513          	mv	a0,s0
200050c0:	00072023          	sw	zero,0(a4)
200050c4:	000780e7          	jalr	a5
200050c8:	00000513          	li	a0,0
200050cc:	0100006f          	j	200050dc <__sigtramp_r+0x80>
200050d0:	e01ff0ef          	jal	20004ed0 <_init_signal_r>
200050d4:	fa050ce3          	beqz	a0,2000508c <__sigtramp_r+0x30>
200050d8:	fff00513          	li	a0,-1
200050dc:	00c12083          	lw	ra,12(sp)
200050e0:	00812403          	lw	s0,8(sp)
200050e4:	00412483          	lw	s1,4(sp)
200050e8:	01010113          	addi	sp,sp,16
200050ec:	00008067          	ret

200050f0 <raise>:
200050f0:	200067b7          	lui	a5,0x20006
200050f4:	00050593          	mv	a1,a0
200050f8:	9507a503          	lw	a0,-1712(a5) # 20005950 <_impure_ptr>
200050fc:	eb9ff06f          	j	20004fb4 <_raise_r>

20005100 <signal>:
20005100:	200067b7          	lui	a5,0x20006
20005104:	00058613          	mv	a2,a1
20005108:	00050593          	mv	a1,a0
2000510c:	9507a503          	lw	a0,-1712(a5) # 20005950 <_impure_ptr>
20005110:	e1dff06f          	j	20004f2c <_signal_r>

20005114 <_init_signal>:
20005114:	200067b7          	lui	a5,0x20006
20005118:	9507a503          	lw	a0,-1712(a5) # 20005950 <_impure_ptr>
2000511c:	db5ff06f          	j	20004ed0 <_init_signal_r>

20005120 <__sigtramp>:
20005120:	200067b7          	lui	a5,0x20006
20005124:	00050593          	mv	a1,a0
20005128:	9507a503          	lw	a0,-1712(a5) # 20005950 <_impure_ptr>
2000512c:	f31ff06f          	j	2000505c <__sigtramp_r>

20005130 <_kill_r>:
20005130:	ff010113          	addi	sp,sp,-16
20005134:	00812423          	sw	s0,8(sp)
20005138:	00912223          	sw	s1,4(sp)
2000513c:	20006437          	lui	s0,0x20006
20005140:	00050493          	mv	s1,a0
20005144:	00058513          	mv	a0,a1
20005148:	00060593          	mv	a1,a2
2000514c:	00112623          	sw	ra,12(sp)
20005150:	f6042423          	sw	zero,-152(s0) # 20005f68 <errno>
20005154:	ee9fc0ef          	jal	2000203c <_kill>
20005158:	fff00793          	li	a5,-1
2000515c:	00f51863          	bne	a0,a5,2000516c <_kill_r+0x3c>
20005160:	f6842783          	lw	a5,-152(s0)
20005164:	00078463          	beqz	a5,2000516c <_kill_r+0x3c>
20005168:	00f4a023          	sw	a5,0(s1)
2000516c:	00c12083          	lw	ra,12(sp)
20005170:	00812403          	lw	s0,8(sp)
20005174:	00412483          	lw	s1,4(sp)
20005178:	01010113          	addi	sp,sp,16
2000517c:	00008067          	ret

20005180 <_getpid_r>:
20005180:	e95fc06f          	j	20002014 <_getpid>

20005184 <_malloc_usable_size_r>:
20005184:	ffc5a783          	lw	a5,-4(a1)
20005188:	ffc78513          	addi	a0,a5,-4
2000518c:	0007d863          	bgez	a5,2000519c <_malloc_usable_size_r+0x18>
20005190:	00a585b3          	add	a1,a1,a0
20005194:	0005a783          	lw	a5,0(a1)
20005198:	00f50533          	add	a0,a0,a5
2000519c:	00008067          	ret
200051a0:	6f59                	.insn	2, 0x6f59
200051a2:	2075                	.insn	2, 0x2075
200051a4:	6f6c                	.insn	2, 0x6f6c
200051a6:	20216573          	csrrsi	a0,0x202,2
200051aa:	726f6353          	.insn	4, 0x726f6353
200051ae:	2065                	.insn	2, 0x2065
200051b0:	203a                	.insn	2, 0x203a
200051b2:	6425                	.insn	2, 0x6425
200051b4:	0a20                	.insn	2, 0x0a20
200051b6:	0000                	.insn	2, 0x0000
200051b8:	500a                	.insn	2, 0x500a
200051ba:	6f72                	.insn	2, 0x6f72
200051bc:	6d617267          	.insn	4, 0x6d617267
200051c0:	6520                	.insn	2, 0x6520
200051c2:	6978                	.insn	2, 0x6978
200051c4:	6574                	.insn	2, 0x6574
200051c6:	2064                	.insn	2, 0x2064
200051c8:	68746977          	.insn	4, 0x68746977
200051cc:	6320                	.insn	2, 0x6320
200051ce:	2065646f          	jal	s0,2005b3d4 <__stack_top+0x54868>
200051d2:	6425                	.insn	2, 0x6425
200051d4:	000a                	.insn	2, 0x000a
	...

200051d8 <__clz_tab>:
200051d8:	0100 0202 0303 0303 0404 0404 0404 0404     ................
200051e8:	0505 0505 0505 0505 0505 0505 0505 0505     ................
200051f8:	0606 0606 0606 0606 0606 0606 0606 0606     ................
20005208:	0606 0606 0606 0606 0606 0606 0606 0606     ................
20005218:	0707 0707 0707 0707 0707 0707 0707 0707     ................
20005228:	0707 0707 0707 0707 0707 0707 0707 0707     ................
20005238:	0707 0707 0707 0707 0707 0707 0707 0707     ................
20005248:	0707 0707 0707 0707 0707 0707 0707 0707     ................
20005258:	0808 0808 0808 0808 0808 0808 0808 0808     ................
20005268:	0808 0808 0808 0808 0808 0808 0808 0808     ................
20005278:	0808 0808 0808 0808 0808 0808 0808 0808     ................
20005288:	0808 0808 0808 0808 0808 0808 0808 0808     ................
20005298:	0808 0808 0808 0808 0808 0808 0808 0808     ................
200052a8:	0808 0808 0808 0808 0808 0808 0808 0808     ................
200052b8:	0808 0808 0808 0808 0808 0808 0808 0808     ................
200052c8:	0808 0808 0808 0808 0808 0808 0808 0808     ................
200052d8:	4552 4e45 2054 616d 6c6c 636f 7320 6375     REENT malloc suc
200052e8:	6563 6465 6465 0000 3a44 672f 766d 732f     ceeded..D:/gmv/s
200052f8:	2f64 6367 2f63 6972 6373 2d76 6e67 2d75     d/gcc/riscv-gnu-
20005308:	6f74 6c6f 6863 6961 2f6e 656e 6c77 6269     toolchain/newlib
20005318:	6e2f 7765 696c 2f62 696c 6362 732f 6474     /newlib/libc/std
20005328:	696c 2f62 6172 646e 632e 0000 202c 7566     lib/rand.c.., fu
20005338:	636e 6974 6e6f 203a 0000 0000 7361 6573     nction: ....asse
20005348:	7472 6f69 206e 2522 2273 6620 6961 656c     rtion "%s" faile
20005358:	3a64 6620 6c69 2065 2522 2273 202c 696c     d: file "%s", li
20005368:	656e 2520 2564 2573 0a73 0000 2d23 2b30     ne %d%s%s...#-0+
20005378:	0020 0000 6c68 004c 6665 4567 4746 0000      ...hlL.efgEFG..
20005388:	3130 3332 3534 3736 3938 4241 4443 4645     0123456789ABCDEF
20005398:	0000 0000 3130 3332 3534 3736 3938 6261     ....0123456789ab
200053a8:	6463 6665 0000 0000 3718 2000 3738 2000     cdef.....7. 87. 
200053b8:	36e8 2000 36e8 2000 36e8 2000 36e8 2000     .6. .6. .6. .6. 
200053c8:	3738 2000 36e8 2000 36e8 2000 36e8 2000     87. .6. .6. .6. 
200053d8:	36e8 2000 3924 2000 3790 2000 389c 2000     .6. $9. .7. .8. 
200053e8:	36e8 2000 36e8 2000 396c 2000 36e8 2000     .6. .6. l9. .6. 
200053f8:	3790 2000 36e8 2000 36e8 2000 38a8 2000     .7. .6. .6. .8. 
