
build/Lab4.elf:     file format elf32-littleriscv


Disassembly of section .text:

20000000 <_start>:
20000000:	2001c137          	lui	sp,0x2001c
20000004:	42c010ef          	jal	20001430 <_crt_init>
20000008:	00001297          	auipc	t0,0x1
2000000c:	ba828293          	addi	t0,t0,-1112 # 20000bb0 <main>
20000010:	00000097          	auipc	ra,0x0
20000014:	01c08093          	addi	ra,ra,28 # 2000002c <exit>
20000018:	34129073          	csrw	mepc,t0
2000001c:	00004337          	lui	t1,0x4
20000020:	88030313          	addi	t1,t1,-1920 # 3880 <_start-0x1fffc780>
20000024:	30031073          	csrw	mstatus,t1
20000028:	30200073          	mret

2000002c <exit>:
2000002c:	64c010ef          	jal	20001678 <_crt_deinit>
20000030:	0000006f          	j	20000030 <exit+0x4>

20000034 <assignment_1>:
#define GPIO_D_OUTDR ((volatile uint32_t *)0x4001140C)
#define GPIO_D_BSHR  ((volatile uint32_t *)0x40011410)
#define GPIO_D_BCR   ((volatile uint32_t *)0x40011414)

void assignment_1(void)
{
20000034:	ff010113          	addi	sp,sp,-16 # 2001bff0 <__stack_top+0x164b4>
20000038:	00112623          	sw	ra,12(sp)
2000003c:	00812423          	sw	s0,8(sp)
20000040:	01010413          	addi	s0,sp,16
    *GPIO_D_CFGHR &= ~(0xF000);
20000044:	400117b7          	lui	a5,0x40011
20000048:	40478793          	addi	a5,a5,1028 # 40011404 <__stack_top+0x2000b8c8>
2000004c:	0007a683          	lw	a3,0(a5)
20000050:	400117b7          	lui	a5,0x40011
20000054:	40478793          	addi	a5,a5,1028 # 40011404 <__stack_top+0x2000b8c8>
20000058:	ffff1737          	lui	a4,0xffff1
2000005c:	fff70713          	addi	a4,a4,-1 # ffff0fff <__stack_top+0xdffeb4c3>
20000060:	00e6f733          	and	a4,a3,a4
20000064:	00e7a023          	sw	a4,0(a5)
    *GPIO_D_CFGHR |= (0x8000);
20000068:	400117b7          	lui	a5,0x40011
2000006c:	40478793          	addi	a5,a5,1028 # 40011404 <__stack_top+0x2000b8c8>
20000070:	0007a683          	lw	a3,0(a5)
20000074:	400117b7          	lui	a5,0x40011
20000078:	40478793          	addi	a5,a5,1028 # 40011404 <__stack_top+0x2000b8c8>
2000007c:	00008737          	lui	a4,0x8
20000080:	00e6e733          	or	a4,a3,a4
20000084:	00e7a023          	sw	a4,0(a5)
    *GPIO_D_OUTDR &= ~(1<<11);
20000088:	400117b7          	lui	a5,0x40011
2000008c:	40c78793          	addi	a5,a5,1036 # 4001140c <__stack_top+0x2000b8d0>
20000090:	0007a683          	lw	a3,0(a5)
20000094:	400117b7          	lui	a5,0x40011
20000098:	40c78793          	addi	a5,a5,1036 # 4001140c <__stack_top+0x2000b8d0>
2000009c:	fffff737          	lui	a4,0xfffff
200000a0:	7ff70713          	addi	a4,a4,2047 # fffff7ff <__stack_top+0xdfff9cc3>
200000a4:	00e6f733          	and	a4,a3,a4
200000a8:	00e7a023          	sw	a4,0(a5)
}
200000ac:	00000013          	nop
200000b0:	00c12083          	lw	ra,12(sp)
200000b4:	00812403          	lw	s0,8(sp)
200000b8:	01010113          	addi	sp,sp,16
200000bc:	00008067          	ret

200000c0 <gpio_d_set_pin_input>:

void gpio_d_set_pin_input( 
    int pin,    // The pin to configure (0-15)
    int mode    // 0 = PULLDOWN, 1 = PULLUP, 2 = FLOATING 
    )
{   
200000c0:	fd010113          	addi	sp,sp,-48
200000c4:	02112623          	sw	ra,44(sp)
200000c8:	02812423          	sw	s0,40(sp)
200000cc:	03010413          	addi	s0,sp,48
200000d0:	fca42e23          	sw	a0,-36(s0)
200000d4:	fcb42c23          	sw	a1,-40(s0)
    int altpin;
    volatile uint32_t * cfg;
    if (pin>=8) {
200000d8:	fdc42703          	lw	a4,-36(s0)
200000dc:	00700793          	li	a5,7
200000e0:	02e7d063          	bge	a5,a4,20000100 <gpio_d_set_pin_input+0x40>
        altpin = pin - 8;
200000e4:	fdc42783          	lw	a5,-36(s0)
200000e8:	ff878793          	addi	a5,a5,-8
200000ec:	fef42623          	sw	a5,-20(s0)
        cfg = GPIO_D_CFGHR;
200000f0:	400117b7          	lui	a5,0x40011
200000f4:	40478793          	addi	a5,a5,1028 # 40011404 <__stack_top+0x2000b8c8>
200000f8:	fef42423          	sw	a5,-24(s0)
200000fc:	0180006f          	j	20000114 <gpio_d_set_pin_input+0x54>
    }
    else {
        altpin = pin;
20000100:	fdc42783          	lw	a5,-36(s0)
20000104:	fef42623          	sw	a5,-20(s0)
        cfg = GPIO_D_CFGLR;
20000108:	400117b7          	lui	a5,0x40011
2000010c:	40078793          	addi	a5,a5,1024 # 40011400 <__stack_top+0x2000b8c4>
20000110:	fef42423          	sw	a5,-24(s0)
    }
    *cfg &= ~(0xF << (altpin*4));
20000114:	fe842783          	lw	a5,-24(s0)
20000118:	0007a783          	lw	a5,0(a5)
2000011c:	fec42703          	lw	a4,-20(s0)
20000120:	00271713          	slli	a4,a4,0x2
20000124:	00f00693          	li	a3,15
20000128:	00e69733          	sll	a4,a3,a4
2000012c:	fff74713          	not	a4,a4
20000130:	00e7f733          	and	a4,a5,a4
20000134:	fe842783          	lw	a5,-24(s0)
20000138:	00e7a023          	sw	a4,0(a5)
    if (mode == 2) {
2000013c:	fd842703          	lw	a4,-40(s0)
20000140:	00200793          	li	a5,2
20000144:	02f71663          	bne	a4,a5,20000170 <gpio_d_set_pin_input+0xb0>
        *cfg |= (0x4 << (altpin * 4));
20000148:	fe842783          	lw	a5,-24(s0)
2000014c:	0007a783          	lw	a5,0(a5)
20000150:	fec42703          	lw	a4,-20(s0)
20000154:	00271713          	slli	a4,a4,0x2
20000158:	00400693          	li	a3,4
2000015c:	00e69733          	sll	a4,a3,a4
20000160:	00e7e733          	or	a4,a5,a4
20000164:	fe842783          	lw	a5,-24(s0)
20000168:	00e7a023          	sw	a4,0(a5)
        else {
            *GPIO_D_OUTDR |= (1<<pin);
        }

    }
}
2000016c:	0900006f          	j	200001fc <gpio_d_set_pin_input+0x13c>
        *cfg |= (0x8 << (altpin * 4));
20000170:	fe842783          	lw	a5,-24(s0)
20000174:	0007a783          	lw	a5,0(a5)
20000178:	fec42703          	lw	a4,-20(s0)
2000017c:	00271713          	slli	a4,a4,0x2
20000180:	00800693          	li	a3,8
20000184:	00e69733          	sll	a4,a3,a4
20000188:	00e7e733          	or	a4,a5,a4
2000018c:	fe842783          	lw	a5,-24(s0)
20000190:	00e7a023          	sw	a4,0(a5)
        if (mode == 0) {
20000194:	fd842783          	lw	a5,-40(s0)
20000198:	02079c63          	bnez	a5,200001d0 <gpio_d_set_pin_input+0x110>
            *GPIO_D_OUTDR &= ~(1<<pin);
2000019c:	400117b7          	lui	a5,0x40011
200001a0:	40c78793          	addi	a5,a5,1036 # 4001140c <__stack_top+0x2000b8d0>
200001a4:	0007a703          	lw	a4,0(a5)
200001a8:	fdc42783          	lw	a5,-36(s0)
200001ac:	00100693          	li	a3,1
200001b0:	00f697b3          	sll	a5,a3,a5
200001b4:	fff7c793          	not	a5,a5
200001b8:	00078693          	mv	a3,a5
200001bc:	400117b7          	lui	a5,0x40011
200001c0:	40c78793          	addi	a5,a5,1036 # 4001140c <__stack_top+0x2000b8d0>
200001c4:	00d77733          	and	a4,a4,a3
200001c8:	00e7a023          	sw	a4,0(a5)
}
200001cc:	0300006f          	j	200001fc <gpio_d_set_pin_input+0x13c>
            *GPIO_D_OUTDR |= (1<<pin);
200001d0:	400117b7          	lui	a5,0x40011
200001d4:	40c78793          	addi	a5,a5,1036 # 4001140c <__stack_top+0x2000b8d0>
200001d8:	0007a703          	lw	a4,0(a5)
200001dc:	fdc42783          	lw	a5,-36(s0)
200001e0:	00100693          	li	a3,1
200001e4:	00f697b3          	sll	a5,a3,a5
200001e8:	00078693          	mv	a3,a5
200001ec:	400117b7          	lui	a5,0x40011
200001f0:	40c78793          	addi	a5,a5,1036 # 4001140c <__stack_top+0x2000b8d0>
200001f4:	00d76733          	or	a4,a4,a3
200001f8:	00e7a023          	sw	a4,0(a5)
}
200001fc:	00000013          	nop
20000200:	02c12083          	lw	ra,44(sp)
20000204:	02812403          	lw	s0,40(sp)
20000208:	03010113          	addi	sp,sp,48
2000020c:	00008067          	ret

20000210 <gpio_d_set_pin_output>:
///////////////////////////////////////////////////////////////////////////////
void gpio_d_set_pin_output( 
    int pin,    // The pin to configure
    int mode    // 0 = PUSHPULL, 1 = OPENDRAIN
    )
{
20000210:	fd010113          	addi	sp,sp,-48
20000214:	02112623          	sw	ra,44(sp)
20000218:	02812423          	sw	s0,40(sp)
2000021c:	03010413          	addi	s0,sp,48
20000220:	fca42e23          	sw	a0,-36(s0)
20000224:	fcb42c23          	sw	a1,-40(s0)
    int altpin;
    volatile uint32_t * cfg;
    if (pin>=8) {
20000228:	fdc42703          	lw	a4,-36(s0)
2000022c:	00700793          	li	a5,7
20000230:	02e7d063          	bge	a5,a4,20000250 <gpio_d_set_pin_output+0x40>
        altpin = pin - 8;
20000234:	fdc42783          	lw	a5,-36(s0)
20000238:	ff878793          	addi	a5,a5,-8
2000023c:	fef42623          	sw	a5,-20(s0)
        cfg = GPIO_D_CFGHR;
20000240:	400117b7          	lui	a5,0x40011
20000244:	40478793          	addi	a5,a5,1028 # 40011404 <__stack_top+0x2000b8c8>
20000248:	fef42423          	sw	a5,-24(s0)
2000024c:	0180006f          	j	20000264 <gpio_d_set_pin_output+0x54>
    }
    else {
        altpin = pin;
20000250:	fdc42783          	lw	a5,-36(s0)
20000254:	fef42623          	sw	a5,-20(s0)
        cfg = GPIO_D_CFGLR;
20000258:	400117b7          	lui	a5,0x40011
2000025c:	40078793          	addi	a5,a5,1024 # 40011400 <__stack_top+0x2000b8c4>
20000260:	fef42423          	sw	a5,-24(s0)
    }
    *cfg &= ~(0xF << (altpin*4));
20000264:	fe842783          	lw	a5,-24(s0)
20000268:	0007a783          	lw	a5,0(a5)
2000026c:	fec42703          	lw	a4,-20(s0)
20000270:	00271713          	slli	a4,a4,0x2
20000274:	00f00693          	li	a3,15
20000278:	00e69733          	sll	a4,a3,a4
2000027c:	fff74713          	not	a4,a4
20000280:	00e7f733          	and	a4,a5,a4
20000284:	fe842783          	lw	a5,-24(s0)
20000288:	00e7a023          	sw	a4,0(a5)
    if (mode == 0) {
2000028c:	fd842783          	lw	a5,-40(s0)
20000290:	02079663          	bnez	a5,200002bc <gpio_d_set_pin_output+0xac>
        *cfg |= (0x2 << (altpin * 4));
20000294:	fe842783          	lw	a5,-24(s0)
20000298:	0007a783          	lw	a5,0(a5)
2000029c:	fec42703          	lw	a4,-20(s0)
200002a0:	00271713          	slli	a4,a4,0x2
200002a4:	00200693          	li	a3,2
200002a8:	00e69733          	sll	a4,a3,a4
200002ac:	00e7e733          	or	a4,a5,a4
200002b0:	fe842783          	lw	a5,-24(s0)
200002b4:	00e7a023          	sw	a4,0(a5)
    }
    else {
        *cfg |= (0x6 << (altpin * 4));
    }
}
200002b8:	0280006f          	j	200002e0 <gpio_d_set_pin_output+0xd0>
        *cfg |= (0x6 << (altpin * 4));
200002bc:	fe842783          	lw	a5,-24(s0)
200002c0:	0007a783          	lw	a5,0(a5)
200002c4:	fec42703          	lw	a4,-20(s0)
200002c8:	00271713          	slli	a4,a4,0x2
200002cc:	00600693          	li	a3,6
200002d0:	00e69733          	sll	a4,a3,a4
200002d4:	00e7e733          	or	a4,a5,a4
200002d8:	fe842783          	lw	a5,-24(s0)
200002dc:	00e7a023          	sw	a4,0(a5)
}
200002e0:	00000013          	nop
200002e4:	02c12083          	lw	ra,44(sp)
200002e8:	02812403          	lw	s0,40(sp)
200002ec:	03010113          	addi	sp,sp,48
200002f0:	00008067          	ret

200002f4 <gpio_d_set_pin_high>:
//       that means the BSHR register does not work properly. 
//       Use the OUTDR instead, but make sure you do not overwrite
//       any other pin.
///////////////////////////////////////////////////////////////////////////////
void gpio_d_set_pin_high(int pin)
{
200002f4:	fe010113          	addi	sp,sp,-32
200002f8:	00112e23          	sw	ra,28(sp)
200002fc:	00812c23          	sw	s0,24(sp)
20000300:	02010413          	addi	s0,sp,32
20000304:	fea42623          	sw	a0,-20(s0)
    *GPIO_D_OUTDR |= (1<<pin);
20000308:	400117b7          	lui	a5,0x40011
2000030c:	40c78793          	addi	a5,a5,1036 # 4001140c <__stack_top+0x2000b8d0>
20000310:	0007a703          	lw	a4,0(a5)
20000314:	fec42783          	lw	a5,-20(s0)
20000318:	00100693          	li	a3,1
2000031c:	00f697b3          	sll	a5,a3,a5
20000320:	00078693          	mv	a3,a5
20000324:	400117b7          	lui	a5,0x40011
20000328:	40c78793          	addi	a5,a5,1036 # 4001140c <__stack_top+0x2000b8d0>
2000032c:	00d76733          	or	a4,a4,a3
20000330:	00e7a023          	sw	a4,0(a5)
}
20000334:	00000013          	nop
20000338:	01c12083          	lw	ra,28(sp)
2000033c:	01812403          	lw	s0,24(sp)
20000340:	02010113          	addi	sp,sp,32
20000344:	00008067          	ret

20000348 <gpio_d_set_pin_low>:
//       that means the BSHR register does not work properly. 
//       Use the OUTDR instead, but make sure you do not overwrite
//       any other pin.
///////////////////////////////////////////////////////////////////////////////
void gpio_d_set_pin_low(int pin)
{   
20000348:	fe010113          	addi	sp,sp,-32
2000034c:	00112e23          	sw	ra,28(sp)
20000350:	00812c23          	sw	s0,24(sp)
20000354:	02010413          	addi	s0,sp,32
20000358:	fea42623          	sw	a0,-20(s0)
    *GPIO_D_OUTDR &= ~(1<<pin);  
2000035c:	400117b7          	lui	a5,0x40011
20000360:	40c78793          	addi	a5,a5,1036 # 4001140c <__stack_top+0x2000b8d0>
20000364:	0007a703          	lw	a4,0(a5)
20000368:	fec42783          	lw	a5,-20(s0)
2000036c:	00100693          	li	a3,1
20000370:	00f697b3          	sll	a5,a3,a5
20000374:	fff7c793          	not	a5,a5
20000378:	00078693          	mv	a3,a5
2000037c:	400117b7          	lui	a5,0x40011
20000380:	40c78793          	addi	a5,a5,1036 # 4001140c <__stack_top+0x2000b8d0>
20000384:	00d77733          	and	a4,a4,a3
20000388:	00e7a023          	sw	a4,0(a5)
}    
2000038c:	00000013          	nop
20000390:	01c12083          	lw	ra,28(sp)
20000394:	01812403          	lw	s0,24(sp)
20000398:	02010113          	addi	sp,sp,32
2000039c:	00008067          	ret

200003a0 <get_keyboard_button>:
// 
// Follow the instructions in comments
// You can use the functions you have written above
///////////////////////////////////////////////////////////////////////////////
int get_keyboard_button(void)
{
200003a0:	fe010113          	addi	sp,sp,-32
200003a4:	00112e23          	sw	ra,28(sp)
200003a8:	00812c23          	sw	s0,24(sp)
200003ac:	02010413          	addi	s0,sp,32
    // Configure the row-selection pins (pins 4-7) as output, open drain, at 2 MHz
    gpio_d_set_pin_output(4, 1);
200003b0:	00100593          	li	a1,1
200003b4:	00400513          	li	a0,4
200003b8:	e59ff0ef          	jal	20000210 <gpio_d_set_pin_output>
    gpio_d_set_pin_output(5, 1);
200003bc:	00100593          	li	a1,1
200003c0:	00500513          	li	a0,5
200003c4:	e4dff0ef          	jal	20000210 <gpio_d_set_pin_output>
    gpio_d_set_pin_output(6, 1);
200003c8:	00100593          	li	a1,1
200003cc:	00600513          	li	a0,6
200003d0:	e41ff0ef          	jal	20000210 <gpio_d_set_pin_output>
    gpio_d_set_pin_output(7, 1);
200003d4:	00100593          	li	a1,1
200003d8:	00700513          	li	a0,7
200003dc:	e35ff0ef          	jal	20000210 <gpio_d_set_pin_output>

    // Configure the row-read pins (pins 0-3) as input with pull-up resistors

    gpio_d_set_pin_input(0,1);
200003e0:	00100593          	li	a1,1
200003e4:	00000513          	li	a0,0
200003e8:	cd9ff0ef          	jal	200000c0 <gpio_d_set_pin_input>
    gpio_d_set_pin_input(1,1);
200003ec:	00100593          	li	a1,1
200003f0:	00100513          	li	a0,1
200003f4:	ccdff0ef          	jal	200000c0 <gpio_d_set_pin_input>
    gpio_d_set_pin_input(2,1);
200003f8:	00100593          	li	a1,1
200003fc:	00200513          	li	a0,2
20000400:	cc1ff0ef          	jal	200000c0 <gpio_d_set_pin_input>
    gpio_d_set_pin_input(3,1);
20000404:	00100593          	li	a1,1
20000408:	00300513          	li	a0,3
2000040c:	cb5ff0ef          	jal	200000c0 <gpio_d_set_pin_input>

    // Deactivate all rows by setting pins the row selection pins  4-7 high
    // (remember that they are active low, so 0 selects a row)

    gpio_d_set_pin_high(4);
20000410:	00400513          	li	a0,4
20000414:	ee1ff0ef          	jal	200002f4 <gpio_d_set_pin_high>
    gpio_d_set_pin_high(5);
20000418:	00500513          	li	a0,5
2000041c:	ed9ff0ef          	jal	200002f4 <gpio_d_set_pin_high>
    gpio_d_set_pin_high(6);
20000420:	00600513          	li	a0,6
20000424:	ed1ff0ef          	jal	200002f4 <gpio_d_set_pin_high>
    gpio_d_set_pin_high(7);
20000428:	00700513          	li	a0,7
2000042c:	ec9ff0ef          	jal	200002f4 <gpio_d_set_pin_high>

    for(int row = 0; row < 4; row++) {
20000430:	fe042623          	sw	zero,-20(s0)
20000434:	0e40006f          	j	20000518 <get_keyboard_button+0x178>
        // Activate the current row by setting the corresponding pin low

        gpio_d_set_pin_low(row+4);
20000438:	fec42783          	lw	a5,-20(s0)
2000043c:	00478793          	addi	a5,a5,4
20000440:	00078513          	mv	a0,a5
20000444:	f05ff0ef          	jal	20000348 <gpio_d_set_pin_low>

        // Read the row (buttons 0-3, 4-7, 8-11, or 12-15) as the lower 4 bits of INDR 
        if (((*GPIO_D_INDR) & 0xF) != 0xF) {
20000448:	400117b7          	lui	a5,0x40011
2000044c:	40878793          	addi	a5,a5,1032 # 40011408 <__stack_top+0x2000b8cc>
20000450:	0007a783          	lw	a5,0(a5)
20000454:	00f7f713          	andi	a4,a5,15
20000458:	00f00793          	li	a5,15
2000045c:	0af70063          	beq	a4,a5,200004fc <get_keyboard_button+0x15c>
            if (((*GPIO_D_INDR) & 0xF) == 0b1110) {
20000460:	400117b7          	lui	a5,0x40011
20000464:	40878793          	addi	a5,a5,1032 # 40011408 <__stack_top+0x2000b8cc>
20000468:	0007a783          	lw	a5,0(a5)
2000046c:	00f7f713          	andi	a4,a5,15
20000470:	00e00793          	li	a5,14
20000474:	00f71863          	bne	a4,a5,20000484 <get_keyboard_button+0xe4>
                return 4*row;
20000478:	fec42783          	lw	a5,-20(s0)
2000047c:	00279793          	slli	a5,a5,0x2
20000480:	0a80006f          	j	20000528 <get_keyboard_button+0x188>
            }
            else if (((*GPIO_D_INDR) & 0xF) == 0b1101) {
20000484:	400117b7          	lui	a5,0x40011
20000488:	40878793          	addi	a5,a5,1032 # 40011408 <__stack_top+0x2000b8cc>
2000048c:	0007a783          	lw	a5,0(a5)
20000490:	00f7f713          	andi	a4,a5,15
20000494:	00d00793          	li	a5,13
20000498:	00f71a63          	bne	a4,a5,200004ac <get_keyboard_button+0x10c>
                return 4*row + 1;
2000049c:	fec42783          	lw	a5,-20(s0)
200004a0:	00279793          	slli	a5,a5,0x2
200004a4:	00178793          	addi	a5,a5,1
200004a8:	0800006f          	j	20000528 <get_keyboard_button+0x188>
            }
            else if (((*GPIO_D_INDR) & 0xF) == 0b1011) {
200004ac:	400117b7          	lui	a5,0x40011
200004b0:	40878793          	addi	a5,a5,1032 # 40011408 <__stack_top+0x2000b8cc>
200004b4:	0007a783          	lw	a5,0(a5)
200004b8:	00f7f713          	andi	a4,a5,15
200004bc:	00b00793          	li	a5,11
200004c0:	00f71a63          	bne	a4,a5,200004d4 <get_keyboard_button+0x134>
                return 4*row + 2;
200004c4:	fec42783          	lw	a5,-20(s0)
200004c8:	00279793          	slli	a5,a5,0x2
200004cc:	00278793          	addi	a5,a5,2
200004d0:	0580006f          	j	20000528 <get_keyboard_button+0x188>
            }
            else if (((*GPIO_D_INDR) & 0xF) == 0b0111) {
200004d4:	400117b7          	lui	a5,0x40011
200004d8:	40878793          	addi	a5,a5,1032 # 40011408 <__stack_top+0x2000b8cc>
200004dc:	0007a783          	lw	a5,0(a5)
200004e0:	00f7f713          	andi	a4,a5,15
200004e4:	00700793          	li	a5,7
200004e8:	00f71a63          	bne	a4,a5,200004fc <get_keyboard_button+0x15c>
                return 4*row + 3;
200004ec:	fec42783          	lw	a5,-20(s0)
200004f0:	00279793          	slli	a5,a5,0x2
200004f4:	00378793          	addi	a5,a5,3
200004f8:	0300006f          	j	20000528 <get_keyboard_button+0x188>
            }
        }

        gpio_d_set_pin_high(row+4);
200004fc:	fec42783          	lw	a5,-20(s0)
20000500:	00478793          	addi	a5,a5,4
20000504:	00078513          	mv	a0,a5
20000508:	dedff0ef          	jal	200002f4 <gpio_d_set_pin_high>
    for(int row = 0; row < 4; row++) {
2000050c:	fec42783          	lw	a5,-20(s0)
20000510:	00178793          	addi	a5,a5,1
20000514:	fef42623          	sw	a5,-20(s0)
20000518:	fec42703          	lw	a4,-20(s0)
2000051c:	00300793          	li	a5,3
20000520:	f0e7dce3          	bge	a5,a4,20000438 <get_keyboard_button+0x98>

        //   and, if so, return the number of the button

        // Deactivate the current row by setting the corresponding pin high
    }
    return -1; // No button pressed    return -1;  
20000524:	fff00793          	li	a5,-1
20000528:	00078513          	mv	a0,a5
2000052c:	01c12083          	lw	ra,28(sp)
20000530:	01812403          	lw	s0,24(sp)
20000534:	02010113          	addi	sp,sp,32
20000538:	00008067          	ret

2000053c <init_interrupts>:
#include "afio.h"
#include "exti.h"
#include "pfic.h"

void init_interrupts() {
2000053c:	ff010113          	addi	sp,sp,-16
20000540:	00112623          	sw	ra,12(sp)
20000544:	00812423          	sw	s0,8(sp)
20000548:	01010413          	addi	s0,sp,16
  // Enable systick interrupts
  IENR_SET(12);
2000054c:	e000e7b7          	lui	a5,0xe000e
20000550:	10078793          	addi	a5,a5,256 # e000e100 <__stack_top+0xc00085c4>
20000554:	0007a683          	lw	a3,0(a5)
20000558:	e000e7b7          	lui	a5,0xe000e
2000055c:	10078793          	addi	a5,a5,256 # e000e100 <__stack_top+0xc00085c4>
20000560:	00001737          	lui	a4,0x1
20000564:	00e6e733          	or	a4,a3,a4
20000568:	00e7a023          	sw	a4,0(a5)
  // Enable EXTI{0,1,2,3}
  IENR_SET(22);
2000056c:	e000e7b7          	lui	a5,0xe000e
20000570:	10078793          	addi	a5,a5,256 # e000e100 <__stack_top+0xc00085c4>
20000574:	0007a683          	lw	a3,0(a5)
20000578:	e000e7b7          	lui	a5,0xe000e
2000057c:	10078793          	addi	a5,a5,256 # e000e100 <__stack_top+0xc00085c4>
20000580:	00400737          	lui	a4,0x400
20000584:	00e6e733          	or	a4,a3,a4
20000588:	00e7a023          	sw	a4,0(a5)
  IENR_SET(23);
2000058c:	e000e7b7          	lui	a5,0xe000e
20000590:	10078793          	addi	a5,a5,256 # e000e100 <__stack_top+0xc00085c4>
20000594:	0007a683          	lw	a3,0(a5)
20000598:	e000e7b7          	lui	a5,0xe000e
2000059c:	10078793          	addi	a5,a5,256 # e000e100 <__stack_top+0xc00085c4>
200005a0:	00800737          	lui	a4,0x800
200005a4:	00e6e733          	or	a4,a3,a4
200005a8:	00e7a023          	sw	a4,0(a5)
  IENR_SET(24);
200005ac:	e000e7b7          	lui	a5,0xe000e
200005b0:	10078793          	addi	a5,a5,256 # e000e100 <__stack_top+0xc00085c4>
200005b4:	0007a683          	lw	a3,0(a5)
200005b8:	e000e7b7          	lui	a5,0xe000e
200005bc:	10078793          	addi	a5,a5,256 # e000e100 <__stack_top+0xc00085c4>
200005c0:	01000737          	lui	a4,0x1000
200005c4:	00e6e733          	or	a4,a3,a4
200005c8:	00e7a023          	sw	a4,0(a5)
  IENR_SET(25);
200005cc:	e000e7b7          	lui	a5,0xe000e
200005d0:	10078793          	addi	a5,a5,256 # e000e100 <__stack_top+0xc00085c4>
200005d4:	0007a683          	lw	a3,0(a5)
200005d8:	e000e7b7          	lui	a5,0xe000e
200005dc:	10078793          	addi	a5,a5,256 # e000e100 <__stack_top+0xc00085c4>
200005e0:	02000737          	lui	a4,0x2000
200005e4:	00e6e733          	or	a4,a3,a4
200005e8:	00e7a023          	sw	a4,0(a5)
  // Connect EXTI{0,1,2,3} to port D
  AFIO->EXTICR1 = 0x3333;
200005ec:	400107b7          	lui	a5,0x40010
200005f0:	00003737          	lui	a4,0x3
200005f4:	33370713          	addi	a4,a4,819 # 3333 <_start-0x1fffcccd>
200005f8:	00e79423          	sh	a4,8(a5) # 40010008 <__stack_top+0x2000a4cc>
  // Use rising and falling triggers on lines {0,1,2,3}
  EXTI->FTENR |= 0xF << 0;
200005fc:	400107b7          	lui	a5,0x40010
20000600:	40078793          	addi	a5,a5,1024 # 40010400 <__stack_top+0x2000a8c4>
20000604:	00c7a703          	lw	a4,12(a5)
20000608:	400107b7          	lui	a5,0x40010
2000060c:	40078793          	addi	a5,a5,1024 # 40010400 <__stack_top+0x2000a8c4>
20000610:	00f76713          	ori	a4,a4,15
20000614:	00e7a623          	sw	a4,12(a5)
  // Enable interrupts on lines {0,1,2,3}
  EXTI->INTENR |= 0xF << 0;
20000618:	400107b7          	lui	a5,0x40010
2000061c:	40078793          	addi	a5,a5,1024 # 40010400 <__stack_top+0x2000a8c4>
20000620:	0007a703          	lw	a4,0(a5)
20000624:	400107b7          	lui	a5,0x40010
20000628:	40078793          	addi	a5,a5,1024 # 40010400 <__stack_top+0x2000a8c4>
2000062c:	00f76713          	ori	a4,a4,15
20000630:	00e7a023          	sw	a4,0(a5)
20000634:	00000013          	nop
20000638:	00c12083          	lw	ra,12(sp)
2000063c:	00812403          	lw	s0,8(sp)
20000640:	01010113          	addi	sp,sp,16
20000644:	00008067          	ret

20000648 <init_systick>:
    uint64_t CMP;
} SysTick;

SysTick* systick = (SysTick*) 0xE000F000;

void init_systick() {
20000648:	ff010113          	addi	sp,sp,-16
2000064c:	00112623          	sw	ra,12(sp)
20000650:	00812423          	sw	s0,8(sp)
20000654:	01010413          	addi	s0,sp,16
    systick->SR = 1;
20000658:	200057b7          	lui	a5,0x20005
2000065c:	dcc7a783          	lw	a5,-564(a5) # 20004dcc <systick>
20000660:	00100713          	li	a4,1
20000664:	00e7a223          	sw	a4,4(a5)
    systick->CTLR = 0b101110;
20000668:	200057b7          	lui	a5,0x20005
2000066c:	dcc7a783          	lw	a5,-564(a5) # 20004dcc <systick>
20000670:	02e00713          	li	a4,46
20000674:	00e7a023          	sw	a4,0(a5)
    systick->CMP = 72000000;
20000678:	200057b7          	lui	a5,0x20005
2000067c:	dcc7a683          	lw	a3,-564(a5) # 20004dcc <systick>
20000680:	044aa737          	lui	a4,0x44aa
20000684:	20070713          	addi	a4,a4,512 # 44aa200 <_start-0x1bb55e00>
20000688:	00000793          	li	a5,0
2000068c:	00e6a823          	sw	a4,16(a3)
20000690:	00f6aa23          	sw	a5,20(a3)

20000694:	00000013          	nop
20000698:	00c12083          	lw	ra,12(sp)
2000069c:	00812403          	lw	s0,8(sp)
200006a0:	01010113          	addi	sp,sp,16
200006a4:	00008067          	ret

200006a8 <systick_handler>:
int center_y = 160;
Speed speed = {20,0};


__attribute__((interrupt("machine")))
void systick_handler() {
200006a8:	f4010113          	addi	sp,sp,-192
200006ac:	0a112e23          	sw	ra,188(sp)
200006b0:	0a512c23          	sw	t0,184(sp)
200006b4:	003022f3          	frcsr	t0
200006b8:	0a512a23          	sw	t0,180(sp)
200006bc:	0a612823          	sw	t1,176(sp)
200006c0:	0a712623          	sw	t2,172(sp)
200006c4:	0a812423          	sw	s0,168(sp)
200006c8:	0aa12223          	sw	a0,164(sp)
200006cc:	0ab12023          	sw	a1,160(sp)
200006d0:	08c12e23          	sw	a2,156(sp)
200006d4:	08d12c23          	sw	a3,152(sp)
200006d8:	08e12a23          	sw	a4,148(sp)
200006dc:	08f12823          	sw	a5,144(sp)
200006e0:	09012623          	sw	a6,140(sp)
200006e4:	09112423          	sw	a7,136(sp)
200006e8:	09c12223          	sw	t3,132(sp)
200006ec:	09d12023          	sw	t4,128(sp)
200006f0:	07e12e23          	sw	t5,124(sp)
200006f4:	07f12c23          	sw	t6,120(sp)
200006f8:	04012e27          	fsw	ft0,92(sp)
200006fc:	04112c27          	fsw	ft1,88(sp)
20000700:	04212a27          	fsw	ft2,84(sp)
20000704:	04312827          	fsw	ft3,80(sp)
20000708:	04412627          	fsw	ft4,76(sp)
2000070c:	04512427          	fsw	ft5,72(sp)
20000710:	04612227          	fsw	ft6,68(sp)
20000714:	04712027          	fsw	ft7,64(sp)
20000718:	02a12e27          	fsw	fa0,60(sp)
2000071c:	02b12c27          	fsw	fa1,56(sp)
20000720:	02c12a27          	fsw	fa2,52(sp)
20000724:	02d12827          	fsw	fa3,48(sp)
20000728:	02e12627          	fsw	fa4,44(sp)
2000072c:	02f12427          	fsw	fa5,40(sp)
20000730:	03012227          	fsw	fa6,36(sp)
20000734:	03112027          	fsw	fa7,32(sp)
20000738:	01c12e27          	fsw	ft8,28(sp)
2000073c:	01d12c27          	fsw	ft9,24(sp)
20000740:	01e12a27          	fsw	ft10,20(sp)
20000744:	01f12827          	fsw	ft11,16(sp)
20000748:	0c010413          	addi	s0,sp,192
    for (int i = 0; i <= wormLength; i++) {
2000074c:	f4042623          	sw	zero,-180(s0)
20000750:	1980006f          	j	200008e8 <systick_handler+0x240>
        tft_rect(worm[i].position_x, worm[i].position_y, worm[i].size, worm[i].size, COLOR_BLACK, 1);
20000754:	200057b7          	lui	a5,0x20005
20000758:	d447a803          	lw	a6,-700(a5) # 20004d44 <tft_rect>
2000075c:	200057b7          	lui	a5,0x20005
20000760:	a0878713          	addi	a4,a5,-1528 # 20004a08 <worm>
20000764:	f4c42783          	lw	a5,-180(s0)
20000768:	00479793          	slli	a5,a5,0x4
2000076c:	00f707b3          	add	a5,a4,a5
20000770:	0047a783          	lw	a5,4(a5)
20000774:	00078513          	mv	a0,a5
20000778:	200057b7          	lui	a5,0x20005
2000077c:	a0878713          	addi	a4,a5,-1528 # 20004a08 <worm>
20000780:	f4c42783          	lw	a5,-180(s0)
20000784:	00479793          	slli	a5,a5,0x4
20000788:	00f707b3          	add	a5,a4,a5
2000078c:	0087a783          	lw	a5,8(a5)
20000790:	00078593          	mv	a1,a5
20000794:	200057b7          	lui	a5,0x20005
20000798:	a0878713          	addi	a4,a5,-1528 # 20004a08 <worm>
2000079c:	f4c42783          	lw	a5,-180(s0)
200007a0:	00479793          	slli	a5,a5,0x4
200007a4:	00f707b3          	add	a5,a4,a5
200007a8:	0007a783          	lw	a5,0(a5)
200007ac:	00078613          	mv	a2,a5
200007b0:	200057b7          	lui	a5,0x20005
200007b4:	a0878713          	addi	a4,a5,-1528 # 20004a08 <worm>
200007b8:	f4c42783          	lw	a5,-180(s0)
200007bc:	00479793          	slli	a5,a5,0x4
200007c0:	00f707b3          	add	a5,a4,a5
200007c4:	0007a783          	lw	a5,0(a5)
200007c8:	00078693          	mv	a3,a5
200007cc:	00100793          	li	a5,1
200007d0:	00000713          	li	a4,0
200007d4:	000800e7          	jalr	a6
        worm[i].position_x += speed.x;
200007d8:	200057b7          	lui	a5,0x20005
200007dc:	a0878713          	addi	a4,a5,-1528 # 20004a08 <worm>
200007e0:	f4c42783          	lw	a5,-180(s0)
200007e4:	00479793          	slli	a5,a5,0x4
200007e8:	00f707b3          	add	a5,a4,a5
200007ec:	0047a783          	lw	a5,4(a5)
200007f0:	20005737          	lui	a4,0x20005
200007f4:	ddc75703          	lhu	a4,-548(a4) # 20004ddc <speed>
200007f8:	00e78733          	add	a4,a5,a4
200007fc:	200057b7          	lui	a5,0x20005
20000800:	a0878693          	addi	a3,a5,-1528 # 20004a08 <worm>
20000804:	f4c42783          	lw	a5,-180(s0)
20000808:	00479793          	slli	a5,a5,0x4
2000080c:	00f687b3          	add	a5,a3,a5
20000810:	00e7a223          	sw	a4,4(a5)
        worm[i].position_y += speed.y;
20000814:	200057b7          	lui	a5,0x20005
20000818:	a0878713          	addi	a4,a5,-1528 # 20004a08 <worm>
2000081c:	f4c42783          	lw	a5,-180(s0)
20000820:	00479793          	slli	a5,a5,0x4
20000824:	00f707b3          	add	a5,a4,a5
20000828:	0087a783          	lw	a5,8(a5)
2000082c:	20005737          	lui	a4,0x20005
20000830:	ddc70713          	addi	a4,a4,-548 # 20004ddc <speed>
20000834:	00275703          	lhu	a4,2(a4)
20000838:	00e78733          	add	a4,a5,a4
2000083c:	200057b7          	lui	a5,0x20005
20000840:	a0878693          	addi	a3,a5,-1528 # 20004a08 <worm>
20000844:	f4c42783          	lw	a5,-180(s0)
20000848:	00479793          	slli	a5,a5,0x4
2000084c:	00f687b3          	add	a5,a3,a5
20000850:	00e7a423          	sw	a4,8(a5)
        tft_rect(worm[i].position_x, worm[i].position_y, worm[i].size, worm[i].size, COLOR_WHITE, 1);
20000854:	200057b7          	lui	a5,0x20005
20000858:	d447a803          	lw	a6,-700(a5) # 20004d44 <tft_rect>
2000085c:	200057b7          	lui	a5,0x20005
20000860:	a0878713          	addi	a4,a5,-1528 # 20004a08 <worm>
20000864:	f4c42783          	lw	a5,-180(s0)
20000868:	00479793          	slli	a5,a5,0x4
2000086c:	00f707b3          	add	a5,a4,a5
20000870:	0047a783          	lw	a5,4(a5)
20000874:	00078513          	mv	a0,a5
20000878:	200057b7          	lui	a5,0x20005
2000087c:	a0878713          	addi	a4,a5,-1528 # 20004a08 <worm>
20000880:	f4c42783          	lw	a5,-180(s0)
20000884:	00479793          	slli	a5,a5,0x4
20000888:	00f707b3          	add	a5,a4,a5
2000088c:	0087a783          	lw	a5,8(a5)
20000890:	00078593          	mv	a1,a5
20000894:	200057b7          	lui	a5,0x20005
20000898:	a0878713          	addi	a4,a5,-1528 # 20004a08 <worm>
2000089c:	f4c42783          	lw	a5,-180(s0)
200008a0:	00479793          	slli	a5,a5,0x4
200008a4:	00f707b3          	add	a5,a4,a5
200008a8:	0007a783          	lw	a5,0(a5)
200008ac:	00078613          	mv	a2,a5
200008b0:	200057b7          	lui	a5,0x20005
200008b4:	a0878713          	addi	a4,a5,-1528 # 20004a08 <worm>
200008b8:	f4c42783          	lw	a5,-180(s0)
200008bc:	00479793          	slli	a5,a5,0x4
200008c0:	00f707b3          	add	a5,a4,a5
200008c4:	0007a783          	lw	a5,0(a5)
200008c8:	00078693          	mv	a3,a5
200008cc:	00100793          	li	a5,1
200008d0:	00010737          	lui	a4,0x10
200008d4:	fff70713          	addi	a4,a4,-1 # ffff <_start-0x1fff0001>
200008d8:	000800e7          	jalr	a6
    for (int i = 0; i <= wormLength; i++) {
200008dc:	f4c42783          	lw	a5,-180(s0)
200008e0:	00178793          	addi	a5,a5,1
200008e4:	f4f42623          	sw	a5,-180(s0)
200008e8:	200057b7          	lui	a5,0x20005
200008ec:	dd07a783          	lw	a5,-560(a5) # 20004dd0 <wormLength>
200008f0:	f4c42703          	lw	a4,-180(s0)
200008f4:	e6e7d0e3          	bge	a5,a4,20000754 <systick_handler+0xac>
    }
    systick->SR = 1;
200008f8:	200057b7          	lui	a5,0x20005
200008fc:	dcc7a783          	lw	a5,-564(a5) # 20004dcc <systick>
20000900:	00100713          	li	a4,1
20000904:	00e7a223          	sw	a4,4(a5)
}
20000908:	00000013          	nop
2000090c:	0bc12083          	lw	ra,188(sp)
20000910:	0b412283          	lw	t0,180(sp)
20000914:	00329073          	fscsr	t0
20000918:	0b812283          	lw	t0,184(sp)
2000091c:	0b012303          	lw	t1,176(sp)
20000920:	0ac12383          	lw	t2,172(sp)
20000924:	0a812403          	lw	s0,168(sp)
20000928:	0a412503          	lw	a0,164(sp)
2000092c:	0a012583          	lw	a1,160(sp)
20000930:	09c12603          	lw	a2,156(sp)
20000934:	09812683          	lw	a3,152(sp)
20000938:	09412703          	lw	a4,148(sp)
2000093c:	09012783          	lw	a5,144(sp)
20000940:	08c12803          	lw	a6,140(sp)
20000944:	08812883          	lw	a7,136(sp)
20000948:	08412e03          	lw	t3,132(sp)
2000094c:	08012e83          	lw	t4,128(sp)
20000950:	07c12f03          	lw	t5,124(sp)
20000954:	07812f83          	lw	t6,120(sp)
20000958:	05c12007          	flw	ft0,92(sp)
2000095c:	05812087          	flw	ft1,88(sp)
20000960:	05412107          	flw	ft2,84(sp)
20000964:	05012187          	flw	ft3,80(sp)
20000968:	04c12207          	flw	ft4,76(sp)
2000096c:	04812287          	flw	ft5,72(sp)
20000970:	04412307          	flw	ft6,68(sp)
20000974:	04012387          	flw	ft7,64(sp)
20000978:	03c12507          	flw	fa0,60(sp)
2000097c:	03812587          	flw	fa1,56(sp)
20000980:	03412607          	flw	fa2,52(sp)
20000984:	03012687          	flw	fa3,48(sp)
20000988:	02c12707          	flw	fa4,44(sp)
2000098c:	02812787          	flw	fa5,40(sp)
20000990:	02412807          	flw	fa6,36(sp)
20000994:	02012887          	flw	fa7,32(sp)
20000998:	01c12e07          	flw	ft8,28(sp)
2000099c:	01812e87          	flw	ft9,24(sp)
200009a0:	01412f07          	flw	ft10,20(sp)
200009a4:	01012f87          	flw	ft11,16(sp)
200009a8:	0c010113          	addi	sp,sp,192
200009ac:	30200073          	mret

200009b0 <exti_handler>:

__attribute__((interrupt("machine")))
void exti_handler() {
200009b0:	f4010113          	addi	sp,sp,-192
200009b4:	0a112e23          	sw	ra,188(sp)
200009b8:	0a512c23          	sw	t0,184(sp)
200009bc:	003022f3          	frcsr	t0
200009c0:	0a512a23          	sw	t0,180(sp)
200009c4:	0a612823          	sw	t1,176(sp)
200009c8:	0a712623          	sw	t2,172(sp)
200009cc:	0a812423          	sw	s0,168(sp)
200009d0:	0aa12223          	sw	a0,164(sp)
200009d4:	0ab12023          	sw	a1,160(sp)
200009d8:	08c12e23          	sw	a2,156(sp)
200009dc:	08d12c23          	sw	a3,152(sp)
200009e0:	08e12a23          	sw	a4,148(sp)
200009e4:	08f12823          	sw	a5,144(sp)
200009e8:	09012623          	sw	a6,140(sp)
200009ec:	09112423          	sw	a7,136(sp)
200009f0:	09c12223          	sw	t3,132(sp)
200009f4:	09d12023          	sw	t4,128(sp)
200009f8:	07e12e23          	sw	t5,124(sp)
200009fc:	07f12c23          	sw	t6,120(sp)
20000a00:	04012e27          	fsw	ft0,92(sp)
20000a04:	04112c27          	fsw	ft1,88(sp)
20000a08:	04212a27          	fsw	ft2,84(sp)
20000a0c:	04312827          	fsw	ft3,80(sp)
20000a10:	04412627          	fsw	ft4,76(sp)
20000a14:	04512427          	fsw	ft5,72(sp)
20000a18:	04612227          	fsw	ft6,68(sp)
20000a1c:	04712027          	fsw	ft7,64(sp)
20000a20:	02a12e27          	fsw	fa0,60(sp)
20000a24:	02b12c27          	fsw	fa1,56(sp)
20000a28:	02c12a27          	fsw	fa2,52(sp)
20000a2c:	02d12827          	fsw	fa3,48(sp)
20000a30:	02e12627          	fsw	fa4,44(sp)
20000a34:	02f12427          	fsw	fa5,40(sp)
20000a38:	03012227          	fsw	fa6,36(sp)
20000a3c:	03112027          	fsw	fa7,32(sp)
20000a40:	01c12e27          	fsw	ft8,28(sp)
20000a44:	01d12c27          	fsw	ft9,24(sp)
20000a48:	01e12a27          	fsw	ft10,20(sp)
20000a4c:	01f12827          	fsw	ft11,16(sp)
20000a50:	0c010413          	addi	s0,sp,192
    int input = get_keyboard_button();
20000a54:	94dff0ef          	jal	200003a0 <get_keyboard_button>
20000a58:	f4a42623          	sw	a0,-180(s0)
    //WASD-esque layout for comfortable inputs
    if (input == 1) {
20000a5c:	f4c42703          	lw	a4,-180(s0)
20000a60:	00100793          	li	a5,1
20000a64:	02f71063          	bne	a4,a5,20000a84 <exti_handler+0xd4>
        //up
        speed.y = 20;
20000a68:	200057b7          	lui	a5,0x20005
20000a6c:	ddc78793          	addi	a5,a5,-548 # 20004ddc <speed>
20000a70:	01400713          	li	a4,20
20000a74:	00e79123          	sh	a4,2(a5)
        speed.x = 0;
20000a78:	200057b7          	lui	a5,0x20005
20000a7c:	dc079e23          	sh	zero,-548(a5) # 20004ddc <speed>
20000a80:	0780006f          	j	20000af8 <exti_handler+0x148>
    }
    else if (input == 4) {
20000a84:	f4c42703          	lw	a4,-180(s0)
20000a88:	00400793          	li	a5,4
20000a8c:	02f71063          	bne	a4,a5,20000aac <exti_handler+0xfc>
        //left
        speed.x = 20;
20000a90:	200057b7          	lui	a5,0x20005
20000a94:	01400713          	li	a4,20
20000a98:	dce79e23          	sh	a4,-548(a5) # 20004ddc <speed>
        speed.y = 0;
20000a9c:	200057b7          	lui	a5,0x20005
20000aa0:	ddc78793          	addi	a5,a5,-548 # 20004ddc <speed>
20000aa4:	00079123          	sh	zero,2(a5)
20000aa8:	0500006f          	j	20000af8 <exti_handler+0x148>
    }
    else if (input == 5) {
20000aac:	f4c42703          	lw	a4,-180(s0)
20000ab0:	00500793          	li	a5,5
20000ab4:	02f71063          	bne	a4,a5,20000ad4 <exti_handler+0x124>
        //down
        speed.y = -20;
20000ab8:	200057b7          	lui	a5,0x20005
20000abc:	ddc78793          	addi	a5,a5,-548 # 20004ddc <speed>
20000ac0:	fec00713          	li	a4,-20
20000ac4:	00e79123          	sh	a4,2(a5)
        speed.x = 0;
20000ac8:	200057b7          	lui	a5,0x20005
20000acc:	dc079e23          	sh	zero,-548(a5) # 20004ddc <speed>
20000ad0:	0280006f          	j	20000af8 <exti_handler+0x148>
    }
    else if (input == 6) {
20000ad4:	f4c42703          	lw	a4,-180(s0)
20000ad8:	00600793          	li	a5,6
20000adc:	00f71e63          	bne	a4,a5,20000af8 <exti_handler+0x148>
        //right
        speed.x = -20;
20000ae0:	200057b7          	lui	a5,0x20005
20000ae4:	fec00713          	li	a4,-20
20000ae8:	dce79e23          	sh	a4,-548(a5) # 20004ddc <speed>
        speed.y = 0;
20000aec:	200057b7          	lui	a5,0x20005
20000af0:	ddc78793          	addi	a5,a5,-548 # 20004ddc <speed>
20000af4:	00079123          	sh	zero,2(a5)
    }
    *EXTI_INTFR = 0xFFFFFFFF;
20000af8:	400107b7          	lui	a5,0x40010
20000afc:	41478793          	addi	a5,a5,1044 # 40010414 <__stack_top+0x2000a8d8>
20000b00:	fff00713          	li	a4,-1
20000b04:	00e7a023          	sw	a4,0(a5)
}
20000b08:	00000013          	nop
20000b0c:	0bc12083          	lw	ra,188(sp)
20000b10:	0b412283          	lw	t0,180(sp)
20000b14:	00329073          	fscsr	t0
20000b18:	0b812283          	lw	t0,184(sp)
20000b1c:	0b012303          	lw	t1,176(sp)
20000b20:	0ac12383          	lw	t2,172(sp)
20000b24:	0a812403          	lw	s0,168(sp)
20000b28:	0a412503          	lw	a0,164(sp)
20000b2c:	0a012583          	lw	a1,160(sp)
20000b30:	09c12603          	lw	a2,156(sp)
20000b34:	09812683          	lw	a3,152(sp)
20000b38:	09412703          	lw	a4,148(sp)
20000b3c:	09012783          	lw	a5,144(sp)
20000b40:	08c12803          	lw	a6,140(sp)
20000b44:	08812883          	lw	a7,136(sp)
20000b48:	08412e03          	lw	t3,132(sp)
20000b4c:	08012e83          	lw	t4,128(sp)
20000b50:	07c12f03          	lw	t5,124(sp)
20000b54:	07812f83          	lw	t6,120(sp)
20000b58:	05c12007          	flw	ft0,92(sp)
20000b5c:	05812087          	flw	ft1,88(sp)
20000b60:	05412107          	flw	ft2,84(sp)
20000b64:	05012187          	flw	ft3,80(sp)
20000b68:	04c12207          	flw	ft4,76(sp)
20000b6c:	04812287          	flw	ft5,72(sp)
20000b70:	04412307          	flw	ft6,68(sp)
20000b74:	04012387          	flw	ft7,64(sp)
20000b78:	03c12507          	flw	fa0,60(sp)
20000b7c:	03812587          	flw	fa1,56(sp)
20000b80:	03412607          	flw	fa2,52(sp)
20000b84:	03012687          	flw	fa3,48(sp)
20000b88:	02c12707          	flw	fa4,44(sp)
20000b8c:	02812787          	flw	fa5,40(sp)
20000b90:	02412807          	flw	fa6,36(sp)
20000b94:	02012887          	flw	fa7,32(sp)
20000b98:	01c12e07          	flw	ft8,28(sp)
20000b9c:	01812e87          	flw	ft9,24(sp)
20000ba0:	01412f07          	flw	ft10,20(sp)
20000ba4:	01012f87          	flw	ft11,16(sp)
20000ba8:	0c010113          	addi	sp,sp,192
20000bac:	30200073          	mret

20000bb0 <main>:

int main(void)
{
20000bb0:	ff010113          	addi	sp,sp,-16
20000bb4:	00112623          	sw	ra,12(sp)
20000bb8:	00812423          	sw	s0,8(sp)
20000bbc:	01010413          	addi	s0,sp,16
    init_interrupts();
20000bc0:	97dff0ef          	jal	2000053c <init_interrupts>
    init_systick();
20000bc4:	a85ff0ef          	jal	20000648 <init_systick>
    // Note: On the simulator, w has to be given as 479, and h as 319, to fill
    //       the whole screen. 
    ///////////////////////////////////////////////////////////////////////////

    // <your code here>
    tft_init();
20000bc8:	04c000ef          	jal	20000c14 <tft_init>
    tft_rect(0, 0, 479, 319, COLOR_BLACK, 1);
20000bcc:	200057b7          	lui	a5,0x20005
20000bd0:	d447a803          	lw	a6,-700(a5) # 20004d44 <tft_rect>
20000bd4:	00100793          	li	a5,1
20000bd8:	00000713          	li	a4,0
20000bdc:	13f00693          	li	a3,319
20000be0:	1df00613          	li	a2,479
20000be4:	00000593          	li	a1,0
20000be8:	00000513          	li	a0,0
20000bec:	000800e7          	jalr	a6
    // - When you do that, there will be flickering. To reduce the flickering
    //   you can pause for a short time after drawing the ball, before erasing 
    //   it. Use SysTick, or just a simple for-loop delay. 
    // - When you run this on hardware, timings might be very different. 
    ///////////////////////////////////////////////////////////////////////////
    systick->CTLR |=1;
20000bf0:	200057b7          	lui	a5,0x20005
20000bf4:	dcc7a783          	lw	a5,-564(a5) # 20004dcc <systick>
20000bf8:	0007a703          	lw	a4,0(a5)
20000bfc:	200057b7          	lui	a5,0x20005
20000c00:	dcc7a783          	lw	a5,-564(a5) # 20004dcc <systick>
20000c04:	00176713          	ori	a4,a4,1
20000c08:	00e7a023          	sw	a4,0(a5)
    while(1) {
20000c0c:	00000013          	nop
20000c10:	ffdff06f          	j	20000c0c <main+0x5c>

20000c14 <tft_init>:
# void tft_init(void)
#   Wires all tft_* function pointers to the simulator (ecall) implementations,
#   then tail-calls sim_tft_init(1) which installs the ecall vector and returns.
.global tft_init
tft_init:
    la t0, tft_ellipse;  la t1, sim_tft_ellipse;  sw t1, 0(t0)
20000c14:	00004297          	auipc	t0,0x4
20000c18:	12c28293          	addi	t0,t0,300 # 20004d40 <tft_ellipse>
20000c1c:	00000317          	auipc	t1,0x0
20000c20:	12430313          	addi	t1,t1,292 # 20000d40 <sim_tft_ellipse>
20000c24:	0062a023          	sw	t1,0(t0)
    la t0, tft_rect;     la t1, sim_tft_rect;      sw t1, 0(t0)
20000c28:	00004297          	auipc	t0,0x4
20000c2c:	11c28293          	addi	t0,t0,284 # 20004d44 <tft_rect>
20000c30:	00000317          	auipc	t1,0x0
20000c34:	0e030313          	addi	t1,t1,224 # 20000d10 <sim_tft_rect>
20000c38:	0062a023          	sw	t1,0(t0)
    la t0, tft_line;     la t1, sim_tft_line;      sw t1, 0(t0)
20000c3c:	00004297          	auipc	t0,0x4
20000c40:	10c28293          	addi	t0,t0,268 # 20004d48 <tft_line>
20000c44:	00000317          	auipc	t1,0x0
20000c48:	0a030313          	addi	t1,t1,160 # 20000ce4 <sim_tft_line>
20000c4c:	0062a023          	sw	t1,0(t0)
    la t0, tft_pixel;    la t1, sim_tft_pixel;     sw t1, 0(t0)
20000c50:	00004297          	auipc	t0,0x4
20000c54:	0fc28293          	addi	t0,t0,252 # 20004d4c <tft_pixel>
20000c58:	00000317          	auipc	t1,0x0
20000c5c:	05c30313          	addi	t1,t1,92 # 20000cb4 <sim_tft_pixel>
20000c60:	0062a023          	sw	t1,0(t0)
    la t0, tft_sprite;   la t1, sim_tft_sprite;    sw t1, 0(t0)
20000c64:	00004297          	auipc	t0,0x4
20000c68:	0ec28293          	addi	t0,t0,236 # 20004d50 <tft_sprite>
20000c6c:	00000317          	auipc	t1,0x0
20000c70:	10430313          	addi	t1,t1,260 # 20000d70 <sim_tft_sprite>
20000c74:	0062a023          	sw	t1,0(t0)
    li a0, 1
20000c78:	00100513          	li	a0,1
    j  sim_tft_init         # tail-call; sim_tft_init will ret to our caller
20000c7c:	0040006f          	j	20000c80 <sim_tft_init>

20000c80 <sim_tft_init>:
# int sim_tft_init(int option)
#   a0 = option; returns int in a0
#   Also installs the ecall exception vector at 0x2001C014.
.global sim_tft_init
sim_tft_init:
    la  t1, tft_init_call           # address of the C ecall ISR
20000c80:	00004317          	auipc	t1,0x4
20000c84:	0d430313          	addi	t1,t1,212 # 20004d54 <tft_init_call>
    li  t2, 0x2001C014      # exception vector slot
20000c88:	2001c3b7          	lui	t2,0x2001c
20000c8c:	01438393          	addi	t2,t2,20 # 2001c014 <__stack_top+0x164d8>
    sw  t1, 0(t2)           # install handler
20000c90:	0063a023          	sw	t1,0(t2)
    la  a7, tft_init_call
20000c94:	00004897          	auipc	a7,0x4
20000c98:	0c088893          	addi	a7,a7,192 # 20004d54 <tft_init_call>
    la  t0, frame
20000c9c:	00004297          	auipc	t0,0x4
20000ca0:	08c28293          	addi	t0,t0,140 # 20004d28 <frame>
    sw  a0, 0(t0)           # option
20000ca4:	00a2a023          	sw	a0,0(t0)
    ecall
20000ca8:	00000073          	ecall
    lw  a0, 0(t0)           # return value from _tft_init (t0 survives ecall)
20000cac:	0002a503          	lw	a0,0(t0)
    ret
20000cb0:	00008067          	ret

20000cb4 <sim_tft_pixel>:

.global sim_tft_pixel
sim_tft_pixel:
    la a7, tft_line_call
20000cb4:	00004897          	auipc	a7,0x4
20000cb8:	0a888893          	addi	a7,a7,168 # 20004d5c <tft_line_call>
    la t0, frame
20000cbc:	00004297          	auipc	t0,0x4
20000cc0:	06c28293          	addi	t0,t0,108 # 20004d28 <frame>
    sw a0, 0(t0) # x
20000cc4:	00a2a023          	sw	a0,0(t0)
    sw a1, 4(t0) # y
20000cc8:	00b2a223          	sw	a1,4(t0)
    sw a0, 8(t0) # x2
20000ccc:	00a2a423          	sw	a0,8(t0)
    addi a1, a1, 1
20000cd0:	00158593          	addi	a1,a1,1
    sw a1, 12(t0) # y2
20000cd4:	00b2a623          	sw	a1,12(t0)
    sw a2, 16(t0) # colour
20000cd8:	00c2a823          	sw	a2,16(t0)
    ecall
20000cdc:	00000073          	ecall
    ret
20000ce0:	00008067          	ret

20000ce4 <sim_tft_line>:

# void tft_line(int x1, int y1, int x2, int y2, int colour)
#   a0=x1, a1=y1, a2=x2, a3=y2, a4=colour
.global sim_tft_line
sim_tft_line:
    la  a7, tft_line_call
20000ce4:	00004897          	auipc	a7,0x4
20000ce8:	07888893          	addi	a7,a7,120 # 20004d5c <tft_line_call>
    la  t0, frame
20000cec:	00004297          	auipc	t0,0x4
20000cf0:	03c28293          	addi	t0,t0,60 # 20004d28 <frame>
    sw  a0,  0(t0)  # x1
20000cf4:	00a2a023          	sw	a0,0(t0)
    sw  a1,  4(t0)  # y1
20000cf8:	00b2a223          	sw	a1,4(t0)
    sw  a2,  8(t0)  # x2
20000cfc:	00c2a423          	sw	a2,8(t0)
    sw  a3, 12(t0)  # y2
20000d00:	00d2a623          	sw	a3,12(t0)
    sw  a4, 16(t0)  # colour
20000d04:	00e2a823          	sw	a4,16(t0)
    ecall
20000d08:	00000073          	ecall
    ret
20000d0c:	00008067          	ret

20000d10 <sim_tft_rect>:

# void tft_rect(int x1, int y1, int x2, int y2, int colour, int fill)
#   a0=x1, a1=y1, a2=x2, a3=y2, a4=colour, a5=fill
.global sim_tft_rect
sim_tft_rect:
    la  a7, tft_rect_call
20000d10:	00004897          	auipc	a7,0x4
20000d14:	05488893          	addi	a7,a7,84 # 20004d64 <tft_rect_call>
    la  t0, frame
20000d18:	00004297          	auipc	t0,0x4
20000d1c:	01028293          	addi	t0,t0,16 # 20004d28 <frame>
    sw  a0,  0(t0)  # x1
20000d20:	00a2a023          	sw	a0,0(t0)
    sw  a1,  4(t0)  # y1
20000d24:	00b2a223          	sw	a1,4(t0)
    sw  a2,  8(t0)  # x2
20000d28:	00c2a423          	sw	a2,8(t0)
    sw  a3, 12(t0)  # y2
20000d2c:	00d2a623          	sw	a3,12(t0)
    sw  a4, 16(t0)  # colour
20000d30:	00e2a823          	sw	a4,16(t0)
    sw  a5, 20(t0)  # fill
20000d34:	00f2aa23          	sw	a5,20(t0)
    ecall
20000d38:	00000073          	ecall
    ret
20000d3c:	00008067          	ret

20000d40 <sim_tft_ellipse>:

# void tft_ellipse(int xc, int yc, int xw, int yw, int colour, int fill)
#   a0=xc, a1=yc, a2=xw, a3=yw, a4=colour, a5=fill
.global sim_tft_ellipse
sim_tft_ellipse:
    la  a7, tft_ellipse_call
20000d40:	00004897          	auipc	a7,0x4
20000d44:	02c88893          	addi	a7,a7,44 # 20004d6c <tft_ellipse_call>
    la  t0, frame
20000d48:	00004297          	auipc	t0,0x4
20000d4c:	fe028293          	addi	t0,t0,-32 # 20004d28 <frame>
    sw  a0,  0(t0)  # xc
20000d50:	00a2a023          	sw	a0,0(t0)
    sw  a1,  4(t0)  # yc
20000d54:	00b2a223          	sw	a1,4(t0)
    sw  a2,  8(t0)  # xw
20000d58:	00c2a423          	sw	a2,8(t0)
    sw  a3, 12(t0)  # yw
20000d5c:	00d2a623          	sw	a3,12(t0)
    sw  a4, 16(t0)  # colour
20000d60:	00e2a823          	sw	a4,16(t0)
    sw  a5, 20(t0)  # fill
20000d64:	00f2aa23          	sw	a5,20(t0)
    ecall
20000d68:	00000073          	ecall
    ret
20000d6c:	00008067          	ret

20000d70 <sim_tft_sprite>:
#   a2 = data pointer (row-major uint16_t pixels)
#   a3 = w
#   a4 = h
.global sim_tft_sprite
sim_tft_sprite:
    la  a7, tft_line_call
20000d70:	00004897          	auipc	a7,0x4
20000d74:	fec88893          	addi	a7,a7,-20 # 20004d5c <tft_line_call>
    la  t3, frame
20000d78:	00004e17          	auipc	t3,0x4
20000d7c:	fb0e0e13          	addi	t3,t3,-80 # 20004d28 <frame>
    li  t0, 0               # row = 0
20000d80:	00000293          	li	t0,0
.Lrow:
    bge t0, a4, .Ldone
20000d84:	04e2d463          	bge	t0,a4,20000dcc <sim_tft_sprite+0x5c>
    li  t1, 0               # col = 0
20000d88:	00000313          	li	t1,0
.Lcol:
    bge t1, a3, .Lnext_row
20000d8c:	02d35c63          	bge	t1,a3,20000dc4 <sim_tft_sprite+0x54>
    add t4, a0, t1          # screen_x = x + col
20000d90:	00650eb3          	add	t4,a0,t1
    add t5, a1, t0          # screen_y = y + row
20000d94:	00558f33          	add	t5,a1,t0
    lhu t6, 0(a2)           # colour = *data
20000d98:	00065f83          	lhu	t6,0(a2)
    sw  t4,  0(t3)          # x1
20000d9c:	01de2023          	sw	t4,0(t3)
    sw  t5,  4(t3)          # y1
20000da0:	01ee2223          	sw	t5,4(t3)
    sw  t4,  8(t3)          # x2 (same column)
20000da4:	01de2423          	sw	t4,8(t3)
    addi t2, t5, 1
20000da8:	001f0393          	addi	t2,t5,1
    sw  t2, 12(t3)          # y2 = screen_y + 1
20000dac:	007e2623          	sw	t2,12(t3)
    sw  t6, 16(t3)          # colour
20000db0:	01fe2823          	sw	t6,16(t3)
    ecall
20000db4:	00000073          	ecall
    addi a2, a2, 2          # data++
20000db8:	00260613          	addi	a2,a2,2
    addi t1, t1, 1          # col++
20000dbc:	00130313          	addi	t1,t1,1
    j   .Lcol
20000dc0:	fcdff06f          	j	20000d8c <sim_tft_sprite+0x1c>
.Lnext_row:
    addi t0, t0, 1          # row++
20000dc4:	00128293          	addi	t0,t0,1
    j   .Lrow
20000dc8:	fbdff06f          	j	20000d84 <sim_tft_sprite+0x14>
.Ldone:
    ret
20000dcc:	00008067          	ret

20000dd0 <_pll_init_144>:
20000dd0:	fe010113          	addi	sp,sp,-32
20000dd4:	00112e23          	sw	ra,28(sp)
20000dd8:	00812c23          	sw	s0,24(sp)
20000ddc:	02010413          	addi	s0,sp,32
20000de0:	fe042623          	sw	zero,-20(s0)
20000de4:	fe042423          	sw	zero,-24(s0)
20000de8:	400217b7          	lui	a5,0x40021
20000dec:	0007a703          	lw	a4,0(a5) # 40021000 <__stack_top+0x2001b4c4>
20000df0:	400217b7          	lui	a5,0x40021
20000df4:	00176713          	ori	a4,a4,1
20000df8:	00e7a023          	sw	a4,0(a5) # 40021000 <__stack_top+0x2001b4c4>
20000dfc:	400217b7          	lui	a5,0x40021
20000e00:	00478793          	addi	a5,a5,4 # 40021004 <__stack_top+0x2001b4c8>
20000e04:	0007a683          	lw	a3,0(a5)
20000e08:	400217b7          	lui	a5,0x40021
20000e0c:	00478793          	addi	a5,a5,4 # 40021004 <__stack_top+0x2001b4c8>
20000e10:	f8ff0737          	lui	a4,0xf8ff0
20000e14:	00e6f733          	and	a4,a3,a4
20000e18:	00e7a023          	sw	a4,0(a5)
20000e1c:	400217b7          	lui	a5,0x40021
20000e20:	0007a683          	lw	a3,0(a5) # 40021000 <__stack_top+0x2001b4c4>
20000e24:	400217b7          	lui	a5,0x40021
20000e28:	fef70737          	lui	a4,0xfef70
20000e2c:	fff70713          	addi	a4,a4,-1 # fef6ffff <__stack_top+0xdef6a4c3>
20000e30:	00e6f733          	and	a4,a3,a4
20000e34:	00e7a023          	sw	a4,0(a5) # 40021000 <__stack_top+0x2001b4c4>
20000e38:	400217b7          	lui	a5,0x40021
20000e3c:	0007a683          	lw	a3,0(a5) # 40021000 <__stack_top+0x2001b4c4>
20000e40:	400217b7          	lui	a5,0x40021
20000e44:	fffc0737          	lui	a4,0xfffc0
20000e48:	fff70713          	addi	a4,a4,-1 # fffbffff <__stack_top+0xdffba4c3>
20000e4c:	00e6f733          	and	a4,a3,a4
20000e50:	00e7a023          	sw	a4,0(a5) # 40021000 <__stack_top+0x2001b4c4>
20000e54:	400217b7          	lui	a5,0x40021
20000e58:	00478793          	addi	a5,a5,4 # 40021004 <__stack_top+0x2001b4c8>
20000e5c:	0007a683          	lw	a3,0(a5)
20000e60:	400217b7          	lui	a5,0x40021
20000e64:	00478793          	addi	a5,a5,4 # 40021004 <__stack_top+0x2001b4c8>
20000e68:	ff810737          	lui	a4,0xff810
20000e6c:	fff70713          	addi	a4,a4,-1 # ff80ffff <__stack_top+0xdf80a4c3>
20000e70:	00e6f733          	and	a4,a3,a4
20000e74:	00e7a023          	sw	a4,0(a5)
20000e78:	400217b7          	lui	a5,0x40021
20000e7c:	0007a683          	lw	a3,0(a5) # 40021000 <__stack_top+0x2001b4c4>
20000e80:	400217b7          	lui	a5,0x40021
20000e84:	ec000737          	lui	a4,0xec000
20000e88:	fff70713          	addi	a4,a4,-1 # ebffffff <__stack_top+0xcbffa4c3>
20000e8c:	00e6f733          	and	a4,a3,a4
20000e90:	00e7a023          	sw	a4,0(a5) # 40021000 <__stack_top+0x2001b4c4>
20000e94:	400217b7          	lui	a5,0x40021
20000e98:	00878793          	addi	a5,a5,8 # 40021008 <__stack_top+0x2001b4cc>
20000e9c:	00ff0737          	lui	a4,0xff0
20000ea0:	00e7a023          	sw	a4,0(a5)
20000ea4:	400217b7          	lui	a5,0x40021
20000ea8:	02c78793          	addi	a5,a5,44 # 4002102c <__stack_top+0x2001b4f0>
20000eac:	0007a023          	sw	zero,0(a5)
20000eb0:	400217b7          	lui	a5,0x40021
20000eb4:	0007a683          	lw	a3,0(a5) # 40021000 <__stack_top+0x2001b4c4>
20000eb8:	400217b7          	lui	a5,0x40021
20000ebc:	00010737          	lui	a4,0x10
20000ec0:	00e6e733          	or	a4,a3,a4
20000ec4:	00e7a023          	sw	a4,0(a5) # 40021000 <__stack_top+0x2001b4c4>
20000ec8:	400217b7          	lui	a5,0x40021
20000ecc:	0007a703          	lw	a4,0(a5) # 40021000 <__stack_top+0x2001b4c4>
20000ed0:	000207b7          	lui	a5,0x20
20000ed4:	00f777b3          	and	a5,a4,a5
20000ed8:	fef42423          	sw	a5,-24(s0)
20000edc:	fec42783          	lw	a5,-20(s0)
20000ee0:	00178793          	addi	a5,a5,1 # 20001 <_start-0x1ffdffff>
20000ee4:	fef42623          	sw	a5,-20(s0)
20000ee8:	fe842783          	lw	a5,-24(s0)
20000eec:	00079863          	bnez	a5,20000efc <_pll_init_144+0x12c>
20000ef0:	fec42703          	lw	a4,-20(s0)
20000ef4:	1f400793          	li	a5,500
20000ef8:	fcf718e3          	bne	a4,a5,20000ec8 <_pll_init_144+0xf8>
20000efc:	400217b7          	lui	a5,0x40021
20000f00:	0007a703          	lw	a4,0(a5) # 40021000 <__stack_top+0x2001b4c4>
20000f04:	000207b7          	lui	a5,0x20
20000f08:	00f777b3          	and	a5,a4,a5
20000f0c:	00079663          	bnez	a5,20000f18 <_pll_init_144+0x148>
20000f10:	00100793          	li	a5,1
20000f14:	11c0006f          	j	20001030 <_pll_init_144+0x260>
20000f18:	400217b7          	lui	a5,0x40021
20000f1c:	00478713          	addi	a4,a5,4 # 40021004 <__stack_top+0x2001b4c8>
20000f20:	400217b7          	lui	a5,0x40021
20000f24:	00478793          	addi	a5,a5,4 # 40021004 <__stack_top+0x2001b4c8>
20000f28:	00072703          	lw	a4,0(a4) # 10000 <_start-0x1fff0000>
20000f2c:	00e7a023          	sw	a4,0(a5)
20000f30:	400217b7          	lui	a5,0x40021
20000f34:	00478713          	addi	a4,a5,4 # 40021004 <__stack_top+0x2001b4c8>
20000f38:	400217b7          	lui	a5,0x40021
20000f3c:	00478793          	addi	a5,a5,4 # 40021004 <__stack_top+0x2001b4c8>
20000f40:	00072703          	lw	a4,0(a4)
20000f44:	00e7a023          	sw	a4,0(a5)
20000f48:	400217b7          	lui	a5,0x40021
20000f4c:	02c78793          	addi	a5,a5,44 # 4002102c <__stack_top+0x2001b4f0>
20000f50:	0007a703          	lw	a4,0(a5)
20000f54:	400217b7          	lui	a5,0x40021
20000f58:	02c78793          	addi	a5,a5,44 # 4002102c <__stack_top+0x2001b4f0>
20000f5c:	40076713          	ori	a4,a4,1024
20000f60:	00e7a023          	sw	a4,0(a5)
20000f64:	400217b7          	lui	a5,0x40021
20000f68:	00478793          	addi	a5,a5,4 # 40021004 <__stack_top+0x2001b4c8>
20000f6c:	0007a683          	lw	a3,0(a5)
20000f70:	400217b7          	lui	a5,0x40021
20000f74:	00478793          	addi	a5,a5,4 # 40021004 <__stack_top+0x2001b4c8>
20000f78:	ffc10737          	lui	a4,0xffc10
20000f7c:	fff70713          	addi	a4,a4,-1 # ffc0ffff <__stack_top+0xdfc0a4c3>
20000f80:	00e6f733          	and	a4,a3,a4
20000f84:	00e7a023          	sw	a4,0(a5)
20000f88:	400217b7          	lui	a5,0x40021
20000f8c:	00478793          	addi	a5,a5,4 # 40021004 <__stack_top+0x2001b4c8>
20000f90:	0007a683          	lw	a3,0(a5)
20000f94:	400217b7          	lui	a5,0x40021
20000f98:	00478793          	addi	a5,a5,4 # 40021004 <__stack_top+0x2001b4c8>
20000f9c:	00010737          	lui	a4,0x10
20000fa0:	00e6e733          	or	a4,a3,a4
20000fa4:	00e7a023          	sw	a4,0(a5)
20000fa8:	400217b7          	lui	a5,0x40021
20000fac:	0007a683          	lw	a3,0(a5) # 40021000 <__stack_top+0x2001b4c4>
20000fb0:	400217b7          	lui	a5,0x40021
20000fb4:	01000737          	lui	a4,0x1000
20000fb8:	00e6e733          	or	a4,a3,a4
20000fbc:	00e7a023          	sw	a4,0(a5) # 40021000 <__stack_top+0x2001b4c4>
20000fc0:	00000013          	nop
20000fc4:	400217b7          	lui	a5,0x40021
20000fc8:	0007a703          	lw	a4,0(a5) # 40021000 <__stack_top+0x2001b4c4>
20000fcc:	020007b7          	lui	a5,0x2000
20000fd0:	00f777b3          	and	a5,a4,a5
20000fd4:	fe0788e3          	beqz	a5,20000fc4 <_pll_init_144+0x1f4>
20000fd8:	400217b7          	lui	a5,0x40021
20000fdc:	00478793          	addi	a5,a5,4 # 40021004 <__stack_top+0x2001b4c8>
20000fe0:	0007a703          	lw	a4,0(a5)
20000fe4:	400217b7          	lui	a5,0x40021
20000fe8:	00478793          	addi	a5,a5,4 # 40021004 <__stack_top+0x2001b4c8>
20000fec:	ffc77713          	andi	a4,a4,-4
20000ff0:	00e7a023          	sw	a4,0(a5)
20000ff4:	400217b7          	lui	a5,0x40021
20000ff8:	00478793          	addi	a5,a5,4 # 40021004 <__stack_top+0x2001b4c8>
20000ffc:	0007a703          	lw	a4,0(a5)
20001000:	400217b7          	lui	a5,0x40021
20001004:	00478793          	addi	a5,a5,4 # 40021004 <__stack_top+0x2001b4c8>
20001008:	00276713          	ori	a4,a4,2
2000100c:	00e7a023          	sw	a4,0(a5)
20001010:	00000013          	nop
20001014:	400217b7          	lui	a5,0x40021
20001018:	00478793          	addi	a5,a5,4 # 40021004 <__stack_top+0x2001b4c8>
2000101c:	0007a783          	lw	a5,0(a5)
20001020:	00c7f713          	andi	a4,a5,12
20001024:	00800793          	li	a5,8
20001028:	fef716e3          	bne	a4,a5,20001014 <_pll_init_144+0x244>
2000102c:	00000793          	li	a5,0
20001030:	00078513          	mv	a0,a5
20001034:	01c12083          	lw	ra,28(sp)
20001038:	01812403          	lw	s0,24(sp)
2000103c:	02010113          	addi	sp,sp,32
20001040:	00008067          	ret

20001044 <crt_timer_interrupt>:
20001044:	fd010113          	addi	sp,sp,-48
20001048:	02112623          	sw	ra,44(sp)
2000104c:	02512423          	sw	t0,40(sp)
20001050:	02812223          	sw	s0,36(sp)
20001054:	02a12023          	sw	a0,32(sp)
20001058:	00b12e23          	sw	a1,28(sp)
2000105c:	00c12c23          	sw	a2,24(sp)
20001060:	00d12a23          	sw	a3,20(sp)
20001064:	00e12823          	sw	a4,16(sp)
20001068:	00f12623          	sw	a5,12(sp)
2000106c:	01012423          	sw	a6,8(sp)
20001070:	03010413          	addi	s0,sp,48
20001074:	400017b7          	lui	a5,0x40001
20001078:	0107d783          	lhu	a5,16(a5) # 40001010 <__stack_top+0x1fffb4d4>
2000107c:	01079713          	slli	a4,a5,0x10
20001080:	01075713          	srli	a4,a4,0x10
20001084:	400017b7          	lui	a5,0x40001
20001088:	ffe77713          	andi	a4,a4,-2
2000108c:	01071713          	slli	a4,a4,0x10
20001090:	01075713          	srli	a4,a4,0x10
20001094:	00e79823          	sh	a4,16(a5) # 40001010 <__stack_top+0x1fffb4d4>
20001098:	200057b7          	lui	a5,0x20005
2000109c:	de87a703          	lw	a4,-536(a5) # 20004de8 <current_time>
200010a0:	dec7a783          	lw	a5,-532(a5)
200010a4:	00100513          	li	a0,1
200010a8:	00000593          	li	a1,0
200010ac:	00a70633          	add	a2,a4,a0
200010b0:	00060813          	mv	a6,a2
200010b4:	00e83833          	sltu	a6,a6,a4
200010b8:	00b786b3          	add	a3,a5,a1
200010bc:	00d807b3          	add	a5,a6,a3
200010c0:	00078693          	mv	a3,a5
200010c4:	00060713          	mv	a4,a2
200010c8:	00068793          	mv	a5,a3
200010cc:	200056b7          	lui	a3,0x20005
200010d0:	dee6a423          	sw	a4,-536(a3) # 20004de8 <current_time>
200010d4:	def6a623          	sw	a5,-532(a3)
200010d8:	00000013          	nop
200010dc:	02c12083          	lw	ra,44(sp)
200010e0:	02812283          	lw	t0,40(sp)
200010e4:	02412403          	lw	s0,36(sp)
200010e8:	02012503          	lw	a0,32(sp)
200010ec:	01c12583          	lw	a1,28(sp)
200010f0:	01812603          	lw	a2,24(sp)
200010f4:	01412683          	lw	a3,20(sp)
200010f8:	01012703          	lw	a4,16(sp)
200010fc:	00c12783          	lw	a5,12(sp)
20001100:	00812803          	lw	a6,8(sp)
20001104:	03010113          	addi	sp,sp,48
20001108:	30200073          	mret

2000110c <_times>:
2000110c:	fe010113          	addi	sp,sp,-32
20001110:	00112e23          	sw	ra,28(sp)
20001114:	00812c23          	sw	s0,24(sp)
20001118:	02010413          	addi	s0,sp,32
2000111c:	fea42623          	sw	a0,-20(s0)
20001120:	200057b7          	lui	a5,0x20005
20001124:	de87a703          	lw	a4,-536(a5) # 20004de8 <current_time>
20001128:	dec7a783          	lw	a5,-532(a5)
2000112c:	fec42783          	lw	a5,-20(s0)
20001130:	00e7a223          	sw	a4,4(a5)
20001134:	fec42783          	lw	a5,-20(s0)
20001138:	0047a703          	lw	a4,4(a5)
2000113c:	fec42783          	lw	a5,-20(s0)
20001140:	00e7a023          	sw	a4,0(a5)
20001144:	200057b7          	lui	a5,0x20005
20001148:	de87a703          	lw	a4,-536(a5) # 20004de8 <current_time>
2000114c:	dec7a783          	lw	a5,-532(a5)
20001150:	00070793          	mv	a5,a4
20001154:	00078513          	mv	a0,a5
20001158:	01c12083          	lw	ra,28(sp)
2000115c:	01812403          	lw	s0,24(sp)
20001160:	02010113          	addi	sp,sp,32
20001164:	00008067          	ret

20001168 <_gettimeofday>:
20001168:	fd010113          	addi	sp,sp,-48
2000116c:	02112623          	sw	ra,44(sp)
20001170:	02812423          	sw	s0,40(sp)
20001174:	03010413          	addi	s0,sp,48
20001178:	fca42e23          	sw	a0,-36(s0)
2000117c:	fcb42c23          	sw	a1,-40(s0)
20001180:	200057b7          	lui	a5,0x20005
20001184:	de87a703          	lw	a4,-536(a5) # 20004de8 <current_time>
20001188:	dec7a783          	lw	a5,-532(a5)
2000118c:	fee42423          	sw	a4,-24(s0)
20001190:	fef42623          	sw	a5,-20(s0)
20001194:	fe842703          	lw	a4,-24(s0)
20001198:	fec42783          	lw	a5,-20(s0)
2000119c:	06400613          	li	a2,100
200011a0:	00000693          	li	a3,0
200011a4:	00070513          	mv	a0,a4
200011a8:	00078593          	mv	a1,a5
200011ac:	768000ef          	jal	20001914 <__udivdi3>
200011b0:	00050713          	mv	a4,a0
200011b4:	00058793          	mv	a5,a1
200011b8:	fdc42683          	lw	a3,-36(s0)
200011bc:	00e6a023          	sw	a4,0(a3)
200011c0:	00f6a223          	sw	a5,4(a3)
200011c4:	fe842703          	lw	a4,-24(s0)
200011c8:	fec42783          	lw	a5,-20(s0)
200011cc:	06400613          	li	a2,100
200011d0:	00000693          	li	a3,0
200011d4:	00070513          	mv	a0,a4
200011d8:	00078593          	mv	a1,a5
200011dc:	3a1000ef          	jal	20001d7c <__umoddi3>
200011e0:	00050713          	mv	a4,a0
200011e4:	00058793          	mv	a5,a1
200011e8:	fdc42783          	lw	a5,-36(s0)
200011ec:	00e7a423          	sw	a4,8(a5)
200011f0:	00000793          	li	a5,0
200011f4:	00078513          	mv	a0,a5
200011f8:	02c12083          	lw	ra,44(sp)
200011fc:	02812403          	lw	s0,40(sp)
20001200:	03010113          	addi	sp,sp,48
20001204:	00008067          	ret

20001208 <_settimeofday>:
20001208:	fe010113          	addi	sp,sp,-32
2000120c:	00112e23          	sw	ra,28(sp)
20001210:	00812c23          	sw	s0,24(sp)
20001214:	02010413          	addi	s0,sp,32
20001218:	fea42623          	sw	a0,-20(s0)
2000121c:	feb42423          	sw	a1,-24(s0)
20001220:	fec42783          	lw	a5,-20(s0)
20001224:	0007a703          	lw	a4,0(a5)
20001228:	0047a783          	lw	a5,4(a5)
2000122c:	06400593          	li	a1,100
20001230:	02b78533          	mul	a0,a5,a1
20001234:	00000593          	li	a1,0
20001238:	02b705b3          	mul	a1,a4,a1
2000123c:	00b50533          	add	a0,a0,a1
20001240:	06400593          	li	a1,100
20001244:	02b70333          	mul	t1,a4,a1
20001248:	02b738b3          	mulhu	a7,a4,a1
2000124c:	00030813          	mv	a6,t1
20001250:	011507b3          	add	a5,a0,a7
20001254:	00078893          	mv	a7,a5
20001258:	00080713          	mv	a4,a6
2000125c:	00088793          	mv	a5,a7
20001260:	200055b7          	lui	a1,0x20005
20001264:	dee5a423          	sw	a4,-536(a1) # 20004de8 <current_time>
20001268:	def5a623          	sw	a5,-532(a1)
2000126c:	fec42783          	lw	a5,-20(s0)
20001270:	0087a783          	lw	a5,8(a5)
20001274:	00078613          	mv	a2,a5
20001278:	41f7d793          	srai	a5,a5,0x1f
2000127c:	00078693          	mv	a3,a5
20001280:	200057b7          	lui	a5,0x20005
20001284:	de87a503          	lw	a0,-536(a5) # 20004de8 <current_time>
20001288:	dec7a583          	lw	a1,-532(a5)
2000128c:	00a60733          	add	a4,a2,a0
20001290:	00070813          	mv	a6,a4
20001294:	00c83833          	sltu	a6,a6,a2
20001298:	00b687b3          	add	a5,a3,a1
2000129c:	00f806b3          	add	a3,a6,a5
200012a0:	00068793          	mv	a5,a3
200012a4:	200056b7          	lui	a3,0x20005
200012a8:	dee6a423          	sw	a4,-536(a3) # 20004de8 <current_time>
200012ac:	def6a623          	sw	a5,-532(a3)
200012b0:	00000793          	li	a5,0
200012b4:	00078513          	mv	a0,a5
200012b8:	01c12083          	lw	ra,28(sp)
200012bc:	01812403          	lw	s0,24(sp)
200012c0:	02010113          	addi	sp,sp,32
200012c4:	00008067          	ret

200012c8 <_tstchar>:
200012c8:	ff010113          	addi	sp,sp,-16
200012cc:	00112623          	sw	ra,12(sp)
200012d0:	00812423          	sw	s0,8(sp)
200012d4:	01010413          	addi	s0,sp,16
200012d8:	400147b7          	lui	a5,0x40014
200012dc:	80078793          	addi	a5,a5,-2048 # 40013800 <__stack_top+0x2000dcc4>
200012e0:	0007d783          	lhu	a5,0(a5)
200012e4:	01079793          	slli	a5,a5,0x10
200012e8:	0107d793          	srli	a5,a5,0x10
200012ec:	0207f793          	andi	a5,a5,32
200012f0:	02078063          	beqz	a5,20001310 <_tstchar+0x48>
200012f4:	400147b7          	lui	a5,0x40014
200012f8:	80078793          	addi	a5,a5,-2048 # 40013800 <__stack_top+0x2000dcc4>
200012fc:	0047d783          	lhu	a5,4(a5)
20001300:	01079793          	slli	a5,a5,0x10
20001304:	0107d793          	srli	a5,a5,0x10
20001308:	0ff7f793          	zext.b	a5,a5
2000130c:	0080006f          	j	20001314 <_tstchar+0x4c>
20001310:	00000793          	li	a5,0
20001314:	00078513          	mv	a0,a5
20001318:	00c12083          	lw	ra,12(sp)
2000131c:	00812403          	lw	s0,8(sp)
20001320:	01010113          	addi	sp,sp,16
20001324:	00008067          	ret

20001328 <_outchar>:
20001328:	fe010113          	addi	sp,sp,-32
2000132c:	00112e23          	sw	ra,28(sp)
20001330:	00812c23          	sw	s0,24(sp)
20001334:	02010413          	addi	s0,sp,32
20001338:	00050793          	mv	a5,a0
2000133c:	fef407a3          	sb	a5,-17(s0)
20001340:	400147b7          	lui	a5,0x40014
20001344:	80078793          	addi	a5,a5,-2048 # 40013800 <__stack_top+0x2000dcc4>
20001348:	fef44703          	lbu	a4,-17(s0)
2000134c:	01071713          	slli	a4,a4,0x10
20001350:	01075713          	srli	a4,a4,0x10
20001354:	00e79223          	sh	a4,4(a5)
20001358:	00000013          	nop
2000135c:	400147b7          	lui	a5,0x40014
20001360:	80078793          	addi	a5,a5,-2048 # 40013800 <__stack_top+0x2000dcc4>
20001364:	0007d783          	lhu	a5,0(a5)
20001368:	01079793          	slli	a5,a5,0x10
2000136c:	0107d793          	srli	a5,a5,0x10
20001370:	0807f793          	andi	a5,a5,128
20001374:	fe0784e3          	beqz	a5,2000135c <_outchar+0x34>
20001378:	00000013          	nop
2000137c:	00000013          	nop
20001380:	01c12083          	lw	ra,28(sp)
20001384:	01812403          	lw	s0,24(sp)
20001388:	02010113          	addi	sp,sp,32
2000138c:	00008067          	ret

20001390 <_sbrk>:
20001390:	fd010113          	addi	sp,sp,-48
20001394:	02112623          	sw	ra,44(sp)
20001398:	02812423          	sw	s0,40(sp)
2000139c:	03010413          	addi	s0,sp,48
200013a0:	fca42e23          	sw	a0,-36(s0)
200013a4:	200057b7          	lui	a5,0x20005
200013a8:	df07a783          	lw	a5,-528(a5) # 20004df0 <heap_end>
200013ac:	00079a63          	bnez	a5,200013c0 <_sbrk+0x30>
200013b0:	200057b7          	lui	a5,0x20005
200013b4:	20005737          	lui	a4,0x20005
200013b8:	f3c70713          	addi	a4,a4,-196 # 20004f3c <__bss_end__>
200013bc:	dee7a823          	sw	a4,-528(a5) # 20004df0 <heap_end>
200013c0:	200057b7          	lui	a5,0x20005
200013c4:	df07a783          	lw	a5,-528(a5) # 20004df0 <heap_end>
200013c8:	fef42623          	sw	a5,-20(s0)
200013cc:	200057b7          	lui	a5,0x20005
200013d0:	df07a703          	lw	a4,-528(a5) # 20004df0 <heap_end>
200013d4:	fdc42783          	lw	a5,-36(s0)
200013d8:	00f70733          	add	a4,a4,a5
200013dc:	200057b7          	lui	a5,0x20005
200013e0:	73c78793          	addi	a5,a5,1852 # 2000573c <__heap_top>
200013e4:	00e7fe63          	bgeu	a5,a4,20001400 <_sbrk+0x70>
200013e8:	0bc010ef          	jal	200024a4 <__errno>
200013ec:	00050713          	mv	a4,a0
200013f0:	00c00793          	li	a5,12
200013f4:	00f72023          	sw	a5,0(a4)
200013f8:	fff00793          	li	a5,-1
200013fc:	0200006f          	j	2000141c <_sbrk+0x8c>
20001400:	200057b7          	lui	a5,0x20005
20001404:	df07a703          	lw	a4,-528(a5) # 20004df0 <heap_end>
20001408:	fdc42783          	lw	a5,-36(s0)
2000140c:	00f70733          	add	a4,a4,a5
20001410:	200057b7          	lui	a5,0x20005
20001414:	dee7a823          	sw	a4,-528(a5) # 20004df0 <heap_end>
20001418:	fec42783          	lw	a5,-20(s0)
2000141c:	00078513          	mv	a0,a5
20001420:	02c12083          	lw	ra,44(sp)
20001424:	02812403          	lw	s0,40(sp)
20001428:	03010113          	addi	sp,sp,48
2000142c:	00008067          	ret

20001430 <_crt_init>:
20001430:	fe010113          	addi	sp,sp,-32
20001434:	00112e23          	sw	ra,28(sp)
20001438:	00812c23          	sw	s0,24(sp)
2000143c:	02010413          	addi	s0,sp,32
20001440:	00000013          	nop
20001444:	98dff0ef          	jal	20000dd0 <_pll_init_144>
20001448:	00050793          	mv	a5,a0
2000144c:	fe079ce3          	bnez	a5,20001444 <_crt_init+0x14>
20001450:	400217b7          	lui	a5,0x40021
20001454:	0187a683          	lw	a3,24(a5) # 40021018 <__stack_top+0x2001b4dc>
20001458:	400217b7          	lui	a5,0x40021
2000145c:	00004737          	lui	a4,0x4
20001460:	00e6e733          	or	a4,a3,a4
20001464:	00e7ac23          	sw	a4,24(a5) # 40021018 <__stack_top+0x2001b4dc>
20001468:	400217b7          	lui	a5,0x40021
2000146c:	0187a703          	lw	a4,24(a5) # 40021018 <__stack_top+0x2001b4dc>
20001470:	400217b7          	lui	a5,0x40021
20001474:	00476713          	ori	a4,a4,4
20001478:	00e7ac23          	sw	a4,24(a5) # 40021018 <__stack_top+0x2001b4dc>
2000147c:	400217b7          	lui	a5,0x40021
20001480:	0187a703          	lw	a4,24(a5) # 40021018 <__stack_top+0x2001b4dc>
20001484:	400217b7          	lui	a5,0x40021
20001488:	00176713          	ori	a4,a4,1
2000148c:	00e7ac23          	sw	a4,24(a5) # 40021018 <__stack_top+0x2001b4dc>
20001490:	400217b7          	lui	a5,0x40021
20001494:	0187a703          	lw	a4,24(a5) # 40021018 <__stack_top+0x2001b4dc>
20001498:	400217b7          	lui	a5,0x40021
2000149c:	02076713          	ori	a4,a4,32
200014a0:	00e7ac23          	sw	a4,24(a5) # 40021018 <__stack_top+0x2001b4dc>
200014a4:	400217b7          	lui	a5,0x40021
200014a8:	0187a703          	lw	a4,24(a5) # 40021018 <__stack_top+0x2001b4dc>
200014ac:	400217b7          	lui	a5,0x40021
200014b0:	04076713          	ori	a4,a4,64
200014b4:	00e7ac23          	sw	a4,24(a5) # 40021018 <__stack_top+0x2001b4dc>
200014b8:	400217b7          	lui	a5,0x40021
200014bc:	00c7a683          	lw	a3,12(a5) # 4002100c <__stack_top+0x2001b4d0>
200014c0:	400217b7          	lui	a5,0x40021
200014c4:	00004737          	lui	a4,0x4
200014c8:	06070713          	addi	a4,a4,96 # 4060 <_start-0x1fffbfa0>
200014cc:	00e6e733          	or	a4,a3,a4
200014d0:	00e7a623          	sw	a4,12(a5) # 4002100c <__stack_top+0x2001b4d0>
200014d4:	400217b7          	lui	a5,0x40021
200014d8:	00c7a683          	lw	a3,12(a5) # 4002100c <__stack_top+0x2001b4d0>
200014dc:	400217b7          	lui	a5,0x40021
200014e0:	ffffc737          	lui	a4,0xffffc
200014e4:	f9f70713          	addi	a4,a4,-97 # ffffbf9f <__stack_top+0xdfff6463>
200014e8:	00e6f733          	and	a4,a3,a4
200014ec:	00e7a623          	sw	a4,12(a5) # 4002100c <__stack_top+0x2001b4d0>
200014f0:	400117b7          	lui	a5,0x40011
200014f4:	80478793          	addi	a5,a5,-2044 # 40010804 <__stack_top+0x2000acc8>
200014f8:	0007a703          	lw	a4,0(a5)
200014fc:	400117b7          	lui	a5,0x40011
20001500:	80478793          	addi	a5,a5,-2044 # 40010804 <__stack_top+0x2000acc8>
20001504:	0b076713          	ori	a4,a4,176
20001508:	00e7a023          	sw	a4,0(a5)
2000150c:	400117b7          	lui	a5,0x40011
20001510:	80478793          	addi	a5,a5,-2044 # 40010804 <__stack_top+0x2000acc8>
20001514:	0007a703          	lw	a4,0(a5)
20001518:	400117b7          	lui	a5,0x40011
2000151c:	80478793          	addi	a5,a5,-2044 # 40010804 <__stack_top+0x2000acc8>
20001520:	40076713          	ori	a4,a4,1024
20001524:	00e7a023          	sw	a4,0(a5)
20001528:	400147b7          	lui	a5,0x40014
2000152c:	80078793          	addi	a5,a5,-2048 # 40013800 <__stack_top+0x2000dcc4>
20001530:	4e200713          	li	a4,1250
20001534:	00e79423          	sh	a4,8(a5)
20001538:	400147b7          	lui	a5,0x40014
2000153c:	80078793          	addi	a5,a5,-2048 # 40013800 <__stack_top+0x2000dcc4>
20001540:	00002737          	lui	a4,0x2
20001544:	00c70713          	addi	a4,a4,12 # 200c <_start-0x1fffdff4>
20001548:	00e79623          	sh	a4,12(a5)
2000154c:	400217b7          	lui	a5,0x40021
20001550:	01c7a703          	lw	a4,28(a5) # 4002101c <__stack_top+0x2001b4e0>
20001554:	400217b7          	lui	a5,0x40021
20001558:	01076713          	ori	a4,a4,16
2000155c:	00e7ae23          	sw	a4,28(a5) # 4002101c <__stack_top+0x2001b4e0>
20001560:	400217b7          	lui	a5,0x40021
20001564:	0107a703          	lw	a4,16(a5) # 40021010 <__stack_top+0x2001b4d4>
20001568:	400217b7          	lui	a5,0x40021
2000156c:	01076713          	ori	a4,a4,16
20001570:	00e7a823          	sw	a4,16(a5) # 40021010 <__stack_top+0x2001b4d4>
20001574:	400217b7          	lui	a5,0x40021
20001578:	0107a703          	lw	a4,16(a5) # 40021010 <__stack_top+0x2001b4d4>
2000157c:	400217b7          	lui	a5,0x40021
20001580:	fef77713          	andi	a4,a4,-17
20001584:	00e7a823          	sw	a4,16(a5) # 40021010 <__stack_top+0x2001b4d4>
20001588:	400217b7          	lui	a5,0x40021
2000158c:	01c7a703          	lw	a4,28(a5) # 4002101c <__stack_top+0x2001b4e0>
20001590:	400217b7          	lui	a5,0x40021
20001594:	02076713          	ori	a4,a4,32
20001598:	00e7ae23          	sw	a4,28(a5) # 4002101c <__stack_top+0x2001b4e0>
2000159c:	400217b7          	lui	a5,0x40021
200015a0:	0107a703          	lw	a4,16(a5) # 40021010 <__stack_top+0x2001b4d4>
200015a4:	400217b7          	lui	a5,0x40021
200015a8:	02076713          	ori	a4,a4,32
200015ac:	00e7a823          	sw	a4,16(a5) # 40021010 <__stack_top+0x2001b4d4>
200015b0:	400217b7          	lui	a5,0x40021
200015b4:	0107a703          	lw	a4,16(a5) # 40021010 <__stack_top+0x2001b4d4>
200015b8:	400217b7          	lui	a5,0x40021
200015bc:	fdf77713          	andi	a4,a4,-33
200015c0:	00e7a823          	sw	a4,16(a5) # 40021010 <__stack_top+0x2001b4d4>
200015c4:	200057b7          	lui	a5,0x20005
200015c8:	de07a823          	sw	zero,-528(a5) # 20004df0 <heap_end>
200015cc:	200057b7          	lui	a5,0x20005
200015d0:	de878793          	addi	a5,a5,-536 # 20004de8 <current_time>
200015d4:	fef42623          	sw	a5,-20(s0)
200015d8:	200057b7          	lui	a5,0x20005
200015dc:	f3c78793          	addi	a5,a5,-196 # 20004f3c <__bss_end__>
200015e0:	fef42423          	sw	a5,-24(s0)
200015e4:	0140006f          	j	200015f8 <_crt_init+0x1c8>
200015e8:	fec42783          	lw	a5,-20(s0)
200015ec:	00178713          	addi	a4,a5,1
200015f0:	fee42623          	sw	a4,-20(s0)
200015f4:	00078023          	sb	zero,0(a5)
200015f8:	fec42703          	lw	a4,-20(s0)
200015fc:	fe842783          	lw	a5,-24(s0)
20001600:	fef764e3          	bltu	a4,a5,200015e8 <_crt_init+0x1b8>
20001604:	200057b7          	lui	a5,0x20005
20001608:	de07a783          	lw	a5,-544(a5) # 20004de0 <_impure_ptr>
2000160c:	0047a783          	lw	a5,4(a5)
20001610:	00000693          	li	a3,0
20001614:	00200613          	li	a2,2
20001618:	00000593          	li	a1,0
2000161c:	00078513          	mv	a0,a5
20001620:	491000ef          	jal	200022b0 <setvbuf>
20001624:	200057b7          	lui	a5,0x20005
20001628:	de07a783          	lw	a5,-544(a5) # 20004de0 <_impure_ptr>
2000162c:	0087a783          	lw	a5,8(a5)
20001630:	00000693          	li	a3,0
20001634:	00200613          	li	a2,2
20001638:	00000593          	li	a1,0
2000163c:	00078513          	mv	a0,a5
20001640:	471000ef          	jal	200022b0 <setvbuf>
20001644:	200057b7          	lui	a5,0x20005
20001648:	de07a783          	lw	a5,-544(a5) # 20004de0 <_impure_ptr>
2000164c:	00c7a783          	lw	a5,12(a5)
20001650:	00000693          	li	a3,0
20001654:	00200613          	li	a2,2
20001658:	00000593          	li	a1,0
2000165c:	00078513          	mv	a0,a5
20001660:	451000ef          	jal	200022b0 <setvbuf>
20001664:	00000013          	nop
20001668:	01c12083          	lw	ra,28(sp)
2000166c:	01812403          	lw	s0,24(sp)
20001670:	02010113          	addi	sp,sp,32
20001674:	00008067          	ret

20001678 <_crt_deinit>:
20001678:	ff010113          	addi	sp,sp,-16
2000167c:	00112623          	sw	ra,12(sp)
20001680:	00812423          	sw	s0,8(sp)
20001684:	01010413          	addi	s0,sp,16
20001688:	00000013          	nop
2000168c:	00c12083          	lw	ra,12(sp)
20001690:	00812403          	lw	s0,8(sp)
20001694:	01010113          	addi	sp,sp,16
20001698:	00008067          	ret

2000169c <_exit>:
2000169c:	fe010113          	addi	sp,sp,-32
200016a0:	00112e23          	sw	ra,28(sp)
200016a4:	00812c23          	sw	s0,24(sp)
200016a8:	02010413          	addi	s0,sp,32
200016ac:	fea42623          	sw	a0,-20(s0)
200016b0:	fec42783          	lw	a5,-20(s0)
200016b4:	00078a63          	beqz	a5,200016c8 <_exit+0x2c>
200016b8:	fec42583          	lw	a1,-20(s0)
200016bc:	200047b7          	lui	a5,0x20004
200016c0:	61878513          	addi	a0,a5,1560 # 20004618 <_malloc_usable_size_r+0x1c>
200016c4:	39d000ef          	jal	20002260 <iprintf>
200016c8:	fb1ff0ef          	jal	20001678 <_crt_deinit>
200016cc:	00000013          	nop
200016d0:	01c12083          	lw	ra,28(sp)
200016d4:	01812403          	lw	s0,24(sp)
200016d8:	02010113          	addi	sp,sp,32
200016dc:	00008067          	ret

200016e0 <_close>:
200016e0:	fe010113          	addi	sp,sp,-32
200016e4:	00112e23          	sw	ra,28(sp)
200016e8:	00812c23          	sw	s0,24(sp)
200016ec:	02010413          	addi	s0,sp,32
200016f0:	fea42623          	sw	a0,-20(s0)
200016f4:	fff00793          	li	a5,-1
200016f8:	00078513          	mv	a0,a5
200016fc:	01c12083          	lw	ra,28(sp)
20001700:	01812403          	lw	s0,24(sp)
20001704:	02010113          	addi	sp,sp,32
20001708:	00008067          	ret

2000170c <_open>:
2000170c:	fe010113          	addi	sp,sp,-32
20001710:	00112e23          	sw	ra,28(sp)
20001714:	00812c23          	sw	s0,24(sp)
20001718:	02010413          	addi	s0,sp,32
2000171c:	fea42623          	sw	a0,-20(s0)
20001720:	feb42423          	sw	a1,-24(s0)
20001724:	fec42223          	sw	a2,-28(s0)
20001728:	fff00793          	li	a5,-1
2000172c:	00078513          	mv	a0,a5
20001730:	01c12083          	lw	ra,28(sp)
20001734:	01812403          	lw	s0,24(sp)
20001738:	02010113          	addi	sp,sp,32
2000173c:	00008067          	ret

20001740 <_fstat>:
20001740:	fe010113          	addi	sp,sp,-32
20001744:	00112e23          	sw	ra,28(sp)
20001748:	00812c23          	sw	s0,24(sp)
2000174c:	02010413          	addi	s0,sp,32
20001750:	fea42623          	sw	a0,-20(s0)
20001754:	feb42423          	sw	a1,-24(s0)
20001758:	fe842783          	lw	a5,-24(s0)
2000175c:	00002737          	lui	a4,0x2
20001760:	00e7a223          	sw	a4,4(a5)
20001764:	00000793          	li	a5,0
20001768:	00078513          	mv	a0,a5
2000176c:	01c12083          	lw	ra,28(sp)
20001770:	01812403          	lw	s0,24(sp)
20001774:	02010113          	addi	sp,sp,32
20001778:	00008067          	ret

2000177c <_lseek>:
2000177c:	fe010113          	addi	sp,sp,-32
20001780:	00112e23          	sw	ra,28(sp)
20001784:	00812c23          	sw	s0,24(sp)
20001788:	02010413          	addi	s0,sp,32
2000178c:	fea42623          	sw	a0,-20(s0)
20001790:	feb42423          	sw	a1,-24(s0)
20001794:	fec42223          	sw	a2,-28(s0)
20001798:	00000793          	li	a5,0
2000179c:	00078513          	mv	a0,a5
200017a0:	01c12083          	lw	ra,28(sp)
200017a4:	01812403          	lw	s0,24(sp)
200017a8:	02010113          	addi	sp,sp,32
200017ac:	00008067          	ret

200017b0 <_isatty>:
200017b0:	fe010113          	addi	sp,sp,-32
200017b4:	00112e23          	sw	ra,28(sp)
200017b8:	00812c23          	sw	s0,24(sp)
200017bc:	02010413          	addi	s0,sp,32
200017c0:	fea42623          	sw	a0,-20(s0)
200017c4:	00000793          	li	a5,0
200017c8:	00078513          	mv	a0,a5
200017cc:	01c12083          	lw	ra,28(sp)
200017d0:	01812403          	lw	s0,24(sp)
200017d4:	02010113          	addi	sp,sp,32
200017d8:	00008067          	ret

200017dc <_write>:
200017dc:	fd010113          	addi	sp,sp,-48
200017e0:	02112623          	sw	ra,44(sp)
200017e4:	02812423          	sw	s0,40(sp)
200017e8:	03010413          	addi	s0,sp,48
200017ec:	fca42e23          	sw	a0,-36(s0)
200017f0:	fcb42c23          	sw	a1,-40(s0)
200017f4:	fcc42a23          	sw	a2,-44(s0)
200017f8:	fd442783          	lw	a5,-44(s0)
200017fc:	fef42623          	sw	a5,-20(s0)
20001800:	01c0006f          	j	2000181c <_write+0x40>
20001804:	fd842783          	lw	a5,-40(s0)
20001808:	00178713          	addi	a4,a5,1
2000180c:	fce42c23          	sw	a4,-40(s0)
20001810:	0007c783          	lbu	a5,0(a5)
20001814:	00078513          	mv	a0,a5
20001818:	b11ff0ef          	jal	20001328 <_outchar>
2000181c:	fd442783          	lw	a5,-44(s0)
20001820:	fff78713          	addi	a4,a5,-1
20001824:	fce42a23          	sw	a4,-44(s0)
20001828:	fc079ee3          	bnez	a5,20001804 <_write+0x28>
2000182c:	fec42783          	lw	a5,-20(s0)
20001830:	00078513          	mv	a0,a5
20001834:	02c12083          	lw	ra,44(sp)
20001838:	02812403          	lw	s0,40(sp)
2000183c:	03010113          	addi	sp,sp,48
20001840:	00008067          	ret

20001844 <_read>:
20001844:	fd010113          	addi	sp,sp,-48
20001848:	02112623          	sw	ra,44(sp)
2000184c:	02812423          	sw	s0,40(sp)
20001850:	03010413          	addi	s0,sp,48
20001854:	fca42e23          	sw	a0,-36(s0)
20001858:	fcb42c23          	sw	a1,-40(s0)
2000185c:	fcc42a23          	sw	a2,-44(s0)
20001860:	fe042623          	sw	zero,-20(s0)
20001864:	a65ff0ef          	jal	200012c8 <_tstchar>
20001868:	00050793          	mv	a5,a0
2000186c:	fef405a3          	sb	a5,-21(s0)
20001870:	feb44783          	lbu	a5,-21(s0)
20001874:	02078263          	beqz	a5,20001898 <_read+0x54>
20001878:	fd842783          	lw	a5,-40(s0)
2000187c:	00178713          	addi	a4,a5,1
20001880:	fce42c23          	sw	a4,-40(s0)
20001884:	feb44703          	lbu	a4,-21(s0)
20001888:	00e78023          	sb	a4,0(a5)
2000188c:	fec42783          	lw	a5,-20(s0)
20001890:	00178793          	addi	a5,a5,1
20001894:	fef42623          	sw	a5,-20(s0)
20001898:	fd442703          	lw	a4,-44(s0)
2000189c:	fec42783          	lw	a5,-20(s0)
200018a0:	fcf712e3          	bne	a4,a5,20001864 <_read+0x20>
200018a4:	fec42783          	lw	a5,-20(s0)
200018a8:	00078513          	mv	a0,a5
200018ac:	02c12083          	lw	ra,44(sp)
200018b0:	02812403          	lw	s0,40(sp)
200018b4:	03010113          	addi	sp,sp,48
200018b8:	00008067          	ret

200018bc <_getpid>:
200018bc:	ff010113          	addi	sp,sp,-16
200018c0:	00112623          	sw	ra,12(sp)
200018c4:	00812423          	sw	s0,8(sp)
200018c8:	01010413          	addi	s0,sp,16
200018cc:	00000793          	li	a5,0
200018d0:	00078513          	mv	a0,a5
200018d4:	00c12083          	lw	ra,12(sp)
200018d8:	00812403          	lw	s0,8(sp)
200018dc:	01010113          	addi	sp,sp,16
200018e0:	00008067          	ret

200018e4 <_kill>:
200018e4:	fe010113          	addi	sp,sp,-32
200018e8:	00112e23          	sw	ra,28(sp)
200018ec:	00812c23          	sw	s0,24(sp)
200018f0:	02010413          	addi	s0,sp,32
200018f4:	fea42623          	sw	a0,-20(s0)
200018f8:	feb42423          	sw	a1,-24(s0)
200018fc:	00000793          	li	a5,0
20001900:	00078513          	mv	a0,a5
20001904:	01c12083          	lw	ra,28(sp)
20001908:	01812403          	lw	s0,24(sp)
2000190c:	02010113          	addi	sp,sp,32
20001910:	00008067          	ret

20001914 <__udivdi3>:
20001914:	00060813          	mv	a6,a2
20001918:	00050793          	mv	a5,a0
2000191c:	00058893          	mv	a7,a1
20001920:	0c069c63          	bnez	a3,200019f8 <__udivdi3+0xe4>
20001924:	22c5fa63          	bgeu	a1,a2,20001b58 <__udivdi3+0x244>
20001928:	00010737          	lui	a4,0x10
2000192c:	36e66863          	bltu	a2,a4,20001c9c <__udivdi3+0x388>
20001930:	01000737          	lui	a4,0x1000
20001934:	01800313          	li	t1,24
20001938:	00e67463          	bgeu	a2,a4,20001940 <__udivdi3+0x2c>
2000193c:	01000313          	li	t1,16
20001940:	20004737          	lui	a4,0x20004
20001944:	006656b3          	srl	a3,a2,t1
20001948:	63870713          	addi	a4,a4,1592 # 20004638 <__clz_tab>
2000194c:	00d70733          	add	a4,a4,a3
20001950:	00074703          	lbu	a4,0(a4)
20001954:	02000693          	li	a3,32
20001958:	00670733          	add	a4,a4,t1
2000195c:	00d70e63          	beq	a4,a3,20001978 <__udivdi3+0x64>
20001960:	40e686b3          	sub	a3,a3,a4
20001964:	00d598b3          	sll	a7,a1,a3
20001968:	00e55733          	srl	a4,a0,a4
2000196c:	00d61833          	sll	a6,a2,a3
20001970:	00d517b3          	sll	a5,a0,a3
20001974:	011768b3          	or	a7,a4,a7
20001978:	01085613          	srli	a2,a6,0x10
2000197c:	02c8d533          	divu	a0,a7,a2
20001980:	01081693          	slli	a3,a6,0x10
20001984:	0106d693          	srli	a3,a3,0x10
20001988:	0107d713          	srli	a4,a5,0x10
2000198c:	02c8f8b3          	remu	a7,a7,a2
20001990:	02a685b3          	mul	a1,a3,a0
20001994:	01089893          	slli	a7,a7,0x10
20001998:	01176733          	or	a4,a4,a7
2000199c:	00b77c63          	bgeu	a4,a1,200019b4 <__udivdi3+0xa0>
200019a0:	00e808b3          	add	a7,a6,a4
200019a4:	00088713          	mv	a4,a7
200019a8:	00b8f463          	bgeu	a7,a1,200019b0 <__udivdi3+0x9c>
200019ac:	3908f463          	bgeu	a7,a6,20001d34 <__udivdi3+0x420>
200019b0:	fff50513          	addi	a0,a0,-1
200019b4:	40b70733          	sub	a4,a4,a1
200019b8:	02c755b3          	divu	a1,a4,a2
200019bc:	01079793          	slli	a5,a5,0x10
200019c0:	0107d793          	srli	a5,a5,0x10
200019c4:	02c77733          	remu	a4,a4,a2
200019c8:	02b686b3          	mul	a3,a3,a1
200019cc:	01071713          	slli	a4,a4,0x10
200019d0:	00e7e7b3          	or	a5,a5,a4
200019d4:	00d7fa63          	bgeu	a5,a3,200019e8 <__udivdi3+0xd4>
200019d8:	00f807b3          	add	a5,a6,a5
200019dc:	00d7f463          	bgeu	a5,a3,200019e4 <__udivdi3+0xd0>
200019e0:	3507f663          	bgeu	a5,a6,20001d2c <__udivdi3+0x418>
200019e4:	fff58593          	addi	a1,a1,-1
200019e8:	01051513          	slli	a0,a0,0x10
200019ec:	00b56533          	or	a0,a0,a1
200019f0:	00000593          	li	a1,0
200019f4:	00008067          	ret
200019f8:	00d5f863          	bgeu	a1,a3,20001a08 <__udivdi3+0xf4>
200019fc:	00000593          	li	a1,0
20001a00:	00000513          	li	a0,0
20001a04:	00008067          	ret
20001a08:	000107b7          	lui	a5,0x10
20001a0c:	2af6e663          	bltu	a3,a5,20001cb8 <__udivdi3+0x3a4>
20001a10:	010007b7          	lui	a5,0x1000
20001a14:	01800713          	li	a4,24
20001a18:	00f6f463          	bgeu	a3,a5,20001a20 <__udivdi3+0x10c>
20001a1c:	01000713          	li	a4,16
20001a20:	200047b7          	lui	a5,0x20004
20001a24:	00e6d833          	srl	a6,a3,a4
20001a28:	63878793          	addi	a5,a5,1592 # 20004638 <__clz_tab>
20001a2c:	010787b3          	add	a5,a5,a6
20001a30:	0007c783          	lbu	a5,0(a5)
20001a34:	02000813          	li	a6,32
20001a38:	00e787b3          	add	a5,a5,a4
20001a3c:	29078663          	beq	a5,a6,20001cc8 <__udivdi3+0x3b4>
20001a40:	40f80833          	sub	a6,a6,a5
20001a44:	00f658b3          	srl	a7,a2,a5
20001a48:	010696b3          	sll	a3,a3,a6
20001a4c:	00d8e8b3          	or	a7,a7,a3
20001a50:	00f5d333          	srl	t1,a1,a5
20001a54:	0108de93          	srli	t4,a7,0x10
20001a58:	03d356b3          	divu	a3,t1,t4
20001a5c:	01089e13          	slli	t3,a7,0x10
20001a60:	010595b3          	sll	a1,a1,a6
20001a64:	010e5e13          	srli	t3,t3,0x10
20001a68:	00f557b3          	srl	a5,a0,a5
20001a6c:	00b7e7b3          	or	a5,a5,a1
20001a70:	0107d713          	srli	a4,a5,0x10
20001a74:	01061633          	sll	a2,a2,a6
20001a78:	03d37333          	remu	t1,t1,t4
20001a7c:	02de05b3          	mul	a1,t3,a3
20001a80:	01031313          	slli	t1,t1,0x10
20001a84:	00676733          	or	a4,a4,t1
20001a88:	00b77c63          	bgeu	a4,a1,20001aa0 <__udivdi3+0x18c>
20001a8c:	00e88333          	add	t1,a7,a4
20001a90:	00030713          	mv	a4,t1
20001a94:	00b37463          	bgeu	t1,a1,20001a9c <__udivdi3+0x188>
20001a98:	2d137c63          	bgeu	t1,a7,20001d70 <__udivdi3+0x45c>
20001a9c:	fff68693          	addi	a3,a3,-1
20001aa0:	40b70733          	sub	a4,a4,a1
20001aa4:	03d75333          	divu	t1,a4,t4
20001aa8:	01079793          	slli	a5,a5,0x10
20001aac:	0107d793          	srli	a5,a5,0x10
20001ab0:	03d77733          	remu	a4,a4,t4
20001ab4:	026e05b3          	mul	a1,t3,t1
20001ab8:	01071713          	slli	a4,a4,0x10
20001abc:	00e7e7b3          	or	a5,a5,a4
20001ac0:	00b7fc63          	bgeu	a5,a1,20001ad8 <__udivdi3+0x1c4>
20001ac4:	00f88733          	add	a4,a7,a5
20001ac8:	00070793          	mv	a5,a4
20001acc:	00b77463          	bgeu	a4,a1,20001ad4 <__udivdi3+0x1c0>
20001ad0:	29177463          	bgeu	a4,a7,20001d58 <__udivdi3+0x444>
20001ad4:	fff30313          	addi	t1,t1,-1
20001ad8:	01069693          	slli	a3,a3,0x10
20001adc:	0066e6b3          	or	a3,a3,t1
20001ae0:	01061893          	slli	a7,a2,0x10
20001ae4:	01069713          	slli	a4,a3,0x10
20001ae8:	01075713          	srli	a4,a4,0x10
20001aec:	0108d893          	srli	a7,a7,0x10
20001af0:	01065613          	srli	a2,a2,0x10
20001af4:	0106d313          	srli	t1,a3,0x10
20001af8:	03170e33          	mul	t3,a4,a7
20001afc:	40b787b3          	sub	a5,a5,a1
20001b00:	031308b3          	mul	a7,t1,a7
20001b04:	02c705b3          	mul	a1,a4,a2
20001b08:	010e5713          	srli	a4,t3,0x10
20001b0c:	011585b3          	add	a1,a1,a7
20001b10:	00b70733          	add	a4,a4,a1
20001b14:	02c30333          	mul	t1,t1,a2
20001b18:	01177663          	bgeu	a4,a7,20001b24 <__udivdi3+0x210>
20001b1c:	00010637          	lui	a2,0x10
20001b20:	00c30333          	add	t1,t1,a2
20001b24:	01075613          	srli	a2,a4,0x10
20001b28:	00660633          	add	a2,a2,t1
20001b2c:	02c7e063          	bltu	a5,a2,20001b4c <__udivdi3+0x238>
20001b30:	010e1e13          	slli	t3,t3,0x10
20001b34:	010e5e13          	srli	t3,t3,0x10
20001b38:	01071713          	slli	a4,a4,0x10
20001b3c:	01051533          	sll	a0,a0,a6
20001b40:	01c70733          	add	a4,a4,t3
20001b44:	1ee57e63          	bgeu	a0,a4,20001d40 <__udivdi3+0x42c>
20001b48:	1ec79c63          	bne	a5,a2,20001d40 <__udivdi3+0x42c>
20001b4c:	fff68513          	addi	a0,a3,-1
20001b50:	00000593          	li	a1,0
20001b54:	00008067          	ret
20001b58:	14060a63          	beqz	a2,20001cac <__udivdi3+0x398>
20001b5c:	00010737          	lui	a4,0x10
20001b60:	18e67c63          	bgeu	a2,a4,20001cf8 <__udivdi3+0x3e4>
20001b64:	10063893          	sltiu	a7,a2,256
20001b68:	0018b893          	seqz	a7,a7
20001b6c:	00389893          	slli	a7,a7,0x3
20001b70:	011656b3          	srl	a3,a2,a7
20001b74:	20004737          	lui	a4,0x20004
20001b78:	63870713          	addi	a4,a4,1592 # 20004638 <__clz_tab>
20001b7c:	00d70733          	add	a4,a4,a3
20001b80:	00074703          	lbu	a4,0(a4)
20001b84:	02000693          	li	a3,32
20001b88:	01170733          	add	a4,a4,a7
20001b8c:	14d70a63          	beq	a4,a3,20001ce0 <__udivdi3+0x3cc>
20001b90:	40e687b3          	sub	a5,a3,a4
20001b94:	00f61833          	sll	a6,a2,a5
20001b98:	00e5d333          	srl	t1,a1,a4
20001b9c:	01085893          	srli	a7,a6,0x10
20001ba0:	03135e33          	divu	t3,t1,a7
20001ba4:	01081613          	slli	a2,a6,0x10
20001ba8:	00f595b3          	sll	a1,a1,a5
20001bac:	01065613          	srli	a2,a2,0x10
20001bb0:	00e55733          	srl	a4,a0,a4
20001bb4:	00b76733          	or	a4,a4,a1
20001bb8:	01075693          	srli	a3,a4,0x10
20001bbc:	00f517b3          	sll	a5,a0,a5
20001bc0:	03137333          	remu	t1,t1,a7
20001bc4:	03c605b3          	mul	a1,a2,t3
20001bc8:	01031313          	slli	t1,t1,0x10
20001bcc:	0066e6b3          	or	a3,a3,t1
20001bd0:	00b6fc63          	bgeu	a3,a1,20001be8 <__udivdi3+0x2d4>
20001bd4:	00d80533          	add	a0,a6,a3
20001bd8:	00050693          	mv	a3,a0
20001bdc:	00b57463          	bgeu	a0,a1,20001be4 <__udivdi3+0x2d0>
20001be0:	17057663          	bgeu	a0,a6,20001d4c <__udivdi3+0x438>
20001be4:	fffe0e13          	addi	t3,t3,-1
20001be8:	40b686b3          	sub	a3,a3,a1
20001bec:	0316d533          	divu	a0,a3,a7
20001bf0:	01071713          	slli	a4,a4,0x10
20001bf4:	01075713          	srli	a4,a4,0x10
20001bf8:	0316f6b3          	remu	a3,a3,a7
20001bfc:	02a60333          	mul	t1,a2,a0
20001c00:	01069693          	slli	a3,a3,0x10
20001c04:	00d76733          	or	a4,a4,a3
20001c08:	00677c63          	bgeu	a4,t1,20001c20 <__udivdi3+0x30c>
20001c0c:	00e806b3          	add	a3,a6,a4
20001c10:	00068713          	mv	a4,a3
20001c14:	0066f463          	bgeu	a3,t1,20001c1c <__udivdi3+0x308>
20001c18:	1506f663          	bgeu	a3,a6,20001d64 <__udivdi3+0x450>
20001c1c:	fff50513          	addi	a0,a0,-1
20001c20:	010e1593          	slli	a1,t3,0x10
20001c24:	00a5e5b3          	or	a1,a1,a0
20001c28:	40670733          	sub	a4,a4,t1
20001c2c:	03175533          	divu	a0,a4,a7
20001c30:	0107d693          	srli	a3,a5,0x10
20001c34:	03177733          	remu	a4,a4,a7
20001c38:	02c50333          	mul	t1,a0,a2
20001c3c:	01071713          	slli	a4,a4,0x10
20001c40:	00e6e733          	or	a4,a3,a4
20001c44:	00677c63          	bgeu	a4,t1,20001c5c <__udivdi3+0x348>
20001c48:	00e806b3          	add	a3,a6,a4
20001c4c:	00068713          	mv	a4,a3
20001c50:	0066f463          	bgeu	a3,t1,20001c58 <__udivdi3+0x344>
20001c54:	0d06f663          	bgeu	a3,a6,20001d20 <__udivdi3+0x40c>
20001c58:	fff50513          	addi	a0,a0,-1
20001c5c:	40670733          	sub	a4,a4,t1
20001c60:	031756b3          	divu	a3,a4,a7
20001c64:	01079793          	slli	a5,a5,0x10
20001c68:	0107d793          	srli	a5,a5,0x10
20001c6c:	03177733          	remu	a4,a4,a7
20001c70:	02c68633          	mul	a2,a3,a2
20001c74:	01071713          	slli	a4,a4,0x10
20001c78:	00e7e7b3          	or	a5,a5,a4
20001c7c:	00c7fa63          	bgeu	a5,a2,20001c90 <__udivdi3+0x37c>
20001c80:	00f807b3          	add	a5,a6,a5
20001c84:	00c7f463          	bgeu	a5,a2,20001c8c <__udivdi3+0x378>
20001c88:	0907f863          	bgeu	a5,a6,20001d18 <__udivdi3+0x404>
20001c8c:	fff68693          	addi	a3,a3,-1
20001c90:	01051513          	slli	a0,a0,0x10
20001c94:	00d56533          	or	a0,a0,a3
20001c98:	00008067          	ret
20001c9c:	10063313          	sltiu	t1,a2,256
20001ca0:	00133313          	seqz	t1,t1
20001ca4:	00331313          	slli	t1,t1,0x3
20001ca8:	c99ff06f          	j	20001940 <__udivdi3+0x2c>
20001cac:	00000693          	li	a3,0
20001cb0:	00000893          	li	a7,0
20001cb4:	ec1ff06f          	j	20001b74 <__udivdi3+0x260>
20001cb8:	1006b713          	sltiu	a4,a3,256
20001cbc:	00173713          	seqz	a4,a4
20001cc0:	00371713          	slli	a4,a4,0x3
20001cc4:	d5dff06f          	j	20001a20 <__udivdi3+0x10c>
20001cc8:	00c53633          	sltu	a2,a0,a2
20001ccc:	00b6b6b3          	sltu	a3,a3,a1
20001cd0:	00163613          	seqz	a2,a2
20001cd4:	00c6e533          	or	a0,a3,a2
20001cd8:	00000593          	li	a1,0
20001cdc:	00008067          	ret
20001ce0:	40c58733          	sub	a4,a1,a2
20001ce4:	01065893          	srli	a7,a2,0x10
20001ce8:	01061613          	slli	a2,a2,0x10
20001cec:	01065613          	srli	a2,a2,0x10
20001cf0:	00100593          	li	a1,1
20001cf4:	f39ff06f          	j	20001c2c <__udivdi3+0x318>
20001cf8:	01000737          	lui	a4,0x1000
20001cfc:	00e67863          	bgeu	a2,a4,20001d0c <__udivdi3+0x3f8>
20001d00:	01065693          	srli	a3,a2,0x10
20001d04:	01000893          	li	a7,16
20001d08:	e6dff06f          	j	20001b74 <__udivdi3+0x260>
20001d0c:	01865693          	srli	a3,a2,0x18
20001d10:	01800893          	li	a7,24
20001d14:	e61ff06f          	j	20001b74 <__udivdi3+0x260>
20001d18:	ffe68693          	addi	a3,a3,-2
20001d1c:	f75ff06f          	j	20001c90 <__udivdi3+0x37c>
20001d20:	ffe50513          	addi	a0,a0,-2
20001d24:	01068733          	add	a4,a3,a6
20001d28:	f35ff06f          	j	20001c5c <__udivdi3+0x348>
20001d2c:	ffe58593          	addi	a1,a1,-2
20001d30:	cb9ff06f          	j	200019e8 <__udivdi3+0xd4>
20001d34:	ffe50513          	addi	a0,a0,-2
20001d38:	01088733          	add	a4,a7,a6
20001d3c:	c79ff06f          	j	200019b4 <__udivdi3+0xa0>
20001d40:	00068513          	mv	a0,a3
20001d44:	00000593          	li	a1,0
20001d48:	00008067          	ret
20001d4c:	ffee0e13          	addi	t3,t3,-2
20001d50:	010506b3          	add	a3,a0,a6
20001d54:	e95ff06f          	j	20001be8 <__udivdi3+0x2d4>
20001d58:	ffe30313          	addi	t1,t1,-2
20001d5c:	011707b3          	add	a5,a4,a7
20001d60:	d79ff06f          	j	20001ad8 <__udivdi3+0x1c4>
20001d64:	ffe50513          	addi	a0,a0,-2
20001d68:	01068733          	add	a4,a3,a6
20001d6c:	eb5ff06f          	j	20001c20 <__udivdi3+0x30c>
20001d70:	ffe68693          	addi	a3,a3,-2
20001d74:	01130733          	add	a4,t1,a7
20001d78:	d29ff06f          	j	20001aa0 <__udivdi3+0x18c>

20001d7c <__umoddi3>:
20001d7c:	00060813          	mv	a6,a2
20001d80:	00050893          	mv	a7,a0
20001d84:	00058313          	mv	t1,a1
20001d88:	00058713          	mv	a4,a1
20001d8c:	0e069a63          	bnez	a3,20001e80 <__umoddi3+0x104>
20001d90:	26c5fe63          	bgeu	a1,a2,2000200c <__umoddi3+0x290>
20001d94:	000107b7          	lui	a5,0x10
20001d98:	3ef66463          	bltu	a2,a5,20002180 <__umoddi3+0x404>
20001d9c:	010007b7          	lui	a5,0x1000
20001da0:	01800693          	li	a3,24
20001da4:	00f67463          	bgeu	a2,a5,20001dac <__umoddi3+0x30>
20001da8:	01000693          	li	a3,16
20001dac:	200047b7          	lui	a5,0x20004
20001db0:	00d65333          	srl	t1,a2,a3
20001db4:	63878793          	addi	a5,a5,1592 # 20004638 <__clz_tab>
20001db8:	006787b3          	add	a5,a5,t1
20001dbc:	0007c783          	lbu	a5,0(a5)
20001dc0:	02000313          	li	t1,32
20001dc4:	00d787b3          	add	a5,a5,a3
20001dc8:	40f306b3          	sub	a3,t1,a5
20001dcc:	00678c63          	beq	a5,t1,20001de4 <__umoddi3+0x68>
20001dd0:	00d59733          	sll	a4,a1,a3
20001dd4:	00f557b3          	srl	a5,a0,a5
20001dd8:	00e7e733          	or	a4,a5,a4
20001ddc:	00d61833          	sll	a6,a2,a3
20001de0:	00d518b3          	sll	a7,a0,a3
20001de4:	01085593          	srli	a1,a6,0x10
20001de8:	02b75633          	divu	a2,a4,a1
20001dec:	01081313          	slli	t1,a6,0x10
20001df0:	01035313          	srli	t1,t1,0x10
20001df4:	0108d793          	srli	a5,a7,0x10
20001df8:	02b77733          	remu	a4,a4,a1
20001dfc:	02660633          	mul	a2,a2,t1
20001e00:	01071713          	slli	a4,a4,0x10
20001e04:	00e7e7b3          	or	a5,a5,a4
20001e08:	02c7f263          	bgeu	a5,a2,20001e2c <__umoddi3+0xb0>
20001e0c:	00f807b3          	add	a5,a6,a5
20001e10:	0107b533          	sltu	a0,a5,a6
20001e14:	00c7b733          	sltu	a4,a5,a2
20001e18:	00153513          	seqz	a0,a0
20001e1c:	00a77733          	and	a4,a4,a0
20001e20:	40e00733          	neg	a4,a4
20001e24:	01077733          	and	a4,a4,a6
20001e28:	00f707b3          	add	a5,a4,a5
20001e2c:	40c787b3          	sub	a5,a5,a2
20001e30:	02b7d733          	divu	a4,a5,a1
20001e34:	01089513          	slli	a0,a7,0x10
20001e38:	01055513          	srli	a0,a0,0x10
20001e3c:	02b7f7b3          	remu	a5,a5,a1
20001e40:	02670733          	mul	a4,a4,t1
20001e44:	01079793          	slli	a5,a5,0x10
20001e48:	00f56533          	or	a0,a0,a5
20001e4c:	02e57263          	bgeu	a0,a4,20001e70 <__umoddi3+0xf4>
20001e50:	00a80533          	add	a0,a6,a0
20001e54:	01053633          	sltu	a2,a0,a6
20001e58:	00e537b3          	sltu	a5,a0,a4
20001e5c:	00163613          	seqz	a2,a2
20001e60:	00c7f7b3          	and	a5,a5,a2
20001e64:	40f007b3          	neg	a5,a5
20001e68:	0107f7b3          	and	a5,a5,a6
20001e6c:	00a78533          	add	a0,a5,a0
20001e70:	40e50533          	sub	a0,a0,a4
20001e74:	00d55533          	srl	a0,a0,a3
20001e78:	00000593          	li	a1,0
20001e7c:	00008067          	ret
20001e80:	00050e13          	mv	t3,a0
20001e84:	00d5f463          	bgeu	a1,a3,20001e8c <__umoddi3+0x110>
20001e88:	00008067          	ret
20001e8c:	000107b7          	lui	a5,0x10
20001e90:	30f6e663          	bltu	a3,a5,2000219c <__umoddi3+0x420>
20001e94:	010007b7          	lui	a5,0x1000
20001e98:	01800713          	li	a4,24
20001e9c:	00f6f463          	bgeu	a3,a5,20001ea4 <__umoddi3+0x128>
20001ea0:	01000713          	li	a4,16
20001ea4:	200047b7          	lui	a5,0x20004
20001ea8:	00e6d833          	srl	a6,a3,a4
20001eac:	63878793          	addi	a5,a5,1592 # 20004638 <__clz_tab>
20001eb0:	010787b3          	add	a5,a5,a6
20001eb4:	0007c883          	lbu	a7,0(a5)
20001eb8:	02000813          	li	a6,32
20001ebc:	00e888b3          	add	a7,a7,a4
20001ec0:	2f088663          	beq	a7,a6,200021ac <__umoddi3+0x430>
20001ec4:	41180833          	sub	a6,a6,a7
20001ec8:	010696b3          	sll	a3,a3,a6
20001ecc:	01165333          	srl	t1,a2,a7
20001ed0:	00d36333          	or	t1,t1,a3
20001ed4:	0115deb3          	srl	t4,a1,a7
20001ed8:	01035f93          	srli	t6,t1,0x10
20001edc:	03fed7b3          	divu	a5,t4,t6
20001ee0:	01031f13          	slli	t5,t1,0x10
20001ee4:	010595b3          	sll	a1,a1,a6
20001ee8:	010f5f13          	srli	t5,t5,0x10
20001eec:	011556b3          	srl	a3,a0,a7
20001ef0:	00b6e6b3          	or	a3,a3,a1
20001ef4:	0106d713          	srli	a4,a3,0x10
20001ef8:	01061633          	sll	a2,a2,a6
20001efc:	01051e33          	sll	t3,a0,a6
20001f00:	03fefeb3          	remu	t4,t4,t6
20001f04:	02ff05b3          	mul	a1,t5,a5
20001f08:	010e9e93          	slli	t4,t4,0x10
20001f0c:	01d76733          	or	a4,a4,t4
20001f10:	00b77c63          	bgeu	a4,a1,20001f28 <__umoddi3+0x1ac>
20001f14:	00e30533          	add	a0,t1,a4
20001f18:	00050713          	mv	a4,a0
20001f1c:	00b57463          	bgeu	a0,a1,20001f24 <__umoddi3+0x1a8>
20001f20:	2e657a63          	bgeu	a0,t1,20002214 <__umoddi3+0x498>
20001f24:	fff78793          	addi	a5,a5,-1
20001f28:	40b70733          	sub	a4,a4,a1
20001f2c:	03f75533          	divu	a0,a4,t6
20001f30:	01069693          	slli	a3,a3,0x10
20001f34:	0106d693          	srli	a3,a3,0x10
20001f38:	03f77733          	remu	a4,a4,t6
20001f3c:	02af05b3          	mul	a1,t5,a0
20001f40:	01071713          	slli	a4,a4,0x10
20001f44:	00e6e733          	or	a4,a3,a4
20001f48:	00b77c63          	bgeu	a4,a1,20001f60 <__umoddi3+0x1e4>
20001f4c:	00e306b3          	add	a3,t1,a4
20001f50:	00068713          	mv	a4,a3
20001f54:	00b6f463          	bgeu	a3,a1,20001f5c <__umoddi3+0x1e0>
20001f58:	2a66f863          	bgeu	a3,t1,20002208 <__umoddi3+0x48c>
20001f5c:	fff50513          	addi	a0,a0,-1
20001f60:	01079793          	slli	a5,a5,0x10
20001f64:	00a7e7b3          	or	a5,a5,a0
20001f68:	40b70733          	sub	a4,a4,a1
20001f6c:	01061693          	slli	a3,a2,0x10
20001f70:	01079593          	slli	a1,a5,0x10
20001f74:	0105d593          	srli	a1,a1,0x10
20001f78:	0106d693          	srli	a3,a3,0x10
20001f7c:	0107d793          	srli	a5,a5,0x10
20001f80:	01065f13          	srli	t5,a2,0x10
20001f84:	02d58eb3          	mul	t4,a1,a3
20001f88:	02d786b3          	mul	a3,a5,a3
20001f8c:	010ed513          	srli	a0,t4,0x10
20001f90:	03e585b3          	mul	a1,a1,t5
20001f94:	00d585b3          	add	a1,a1,a3
20001f98:	00b50533          	add	a0,a0,a1
20001f9c:	03e787b3          	mul	a5,a5,t5
20001fa0:	00d57663          	bgeu	a0,a3,20001fac <__umoddi3+0x230>
20001fa4:	000106b7          	lui	a3,0x10
20001fa8:	00d787b3          	add	a5,a5,a3
20001fac:	01055693          	srli	a3,a0,0x10
20001fb0:	010e9e93          	slli	t4,t4,0x10
20001fb4:	010ede93          	srli	t4,t4,0x10
20001fb8:	01051513          	slli	a0,a0,0x10
20001fbc:	00f687b3          	add	a5,a3,a5
20001fc0:	01d50533          	add	a0,a0,t4
20001fc4:	00f76863          	bltu	a4,a5,20001fd4 <__umoddi3+0x258>
20001fc8:	40f705b3          	sub	a1,a4,a5
20001fcc:	02059063          	bnez	a1,20001fec <__umoddi3+0x270>
20001fd0:	00ae7e63          	bgeu	t3,a0,20001fec <__umoddi3+0x270>
20001fd4:	40c50633          	sub	a2,a0,a2
20001fd8:	00c53533          	sltu	a0,a0,a2
20001fdc:	00650533          	add	a0,a0,t1
20001fe0:	40a787b3          	sub	a5,a5,a0
20001fe4:	40f705b3          	sub	a1,a4,a5
20001fe8:	00060513          	mv	a0,a2
20001fec:	40ae0533          	sub	a0,t3,a0
20001ff0:	00ae3e33          	sltu	t3,t3,a0
20001ff4:	41c585b3          	sub	a1,a1,t3
20001ff8:	011598b3          	sll	a7,a1,a7
20001ffc:	01055533          	srl	a0,a0,a6
20002000:	0105d5b3          	srl	a1,a1,a6
20002004:	00a8e533          	or	a0,a7,a0
20002008:	00008067          	ret
2000200c:	18060263          	beqz	a2,20002190 <__umoddi3+0x414>
20002010:	000107b7          	lui	a5,0x10
20002014:	1cf67063          	bgeu	a2,a5,200021d4 <__umoddi3+0x458>
20002018:	10063713          	sltiu	a4,a2,256
2000201c:	00173713          	seqz	a4,a4
20002020:	00371713          	slli	a4,a4,0x3
20002024:	00e656b3          	srl	a3,a2,a4
20002028:	200047b7          	lui	a5,0x20004
2000202c:	63878793          	addi	a5,a5,1592 # 20004638 <__clz_tab>
20002030:	00d787b3          	add	a5,a5,a3
20002034:	0007c783          	lbu	a5,0(a5)
20002038:	02000313          	li	t1,32
2000203c:	00e787b3          	add	a5,a5,a4
20002040:	40f306b3          	sub	a3,t1,a5
20002044:	16678e63          	beq	a5,t1,200021c0 <__umoddi3+0x444>
20002048:	00d61833          	sll	a6,a2,a3
2000204c:	00f5de33          	srl	t3,a1,a5
20002050:	01085313          	srli	t1,a6,0x10
20002054:	026e5eb3          	divu	t4,t3,t1
20002058:	01081613          	slli	a2,a6,0x10
2000205c:	00d595b3          	sll	a1,a1,a3
20002060:	00f55733          	srl	a4,a0,a5
20002064:	01065613          	srli	a2,a2,0x10
20002068:	00b76733          	or	a4,a4,a1
2000206c:	01075793          	srli	a5,a4,0x10
20002070:	00d518b3          	sll	a7,a0,a3
20002074:	026e7e33          	remu	t3,t3,t1
20002078:	02ce85b3          	mul	a1,t4,a2
2000207c:	010e1e13          	slli	t3,t3,0x10
20002080:	01c7e7b3          	or	a5,a5,t3
20002084:	02b7f263          	bgeu	a5,a1,200020a8 <__umoddi3+0x32c>
20002088:	00f807b3          	add	a5,a6,a5
2000208c:	0107be33          	sltu	t3,a5,a6
20002090:	00b7b533          	sltu	a0,a5,a1
20002094:	001e3e13          	seqz	t3,t3
20002098:	01c57533          	and	a0,a0,t3
2000209c:	40a00533          	neg	a0,a0
200020a0:	01057533          	and	a0,a0,a6
200020a4:	00f507b3          	add	a5,a0,a5
200020a8:	40b787b3          	sub	a5,a5,a1
200020ac:	0267d5b3          	divu	a1,a5,t1
200020b0:	01071713          	slli	a4,a4,0x10
200020b4:	01075713          	srli	a4,a4,0x10
200020b8:	0267f7b3          	remu	a5,a5,t1
200020bc:	02c585b3          	mul	a1,a1,a2
200020c0:	01079793          	slli	a5,a5,0x10
200020c4:	00f76733          	or	a4,a4,a5
200020c8:	02b77263          	bgeu	a4,a1,200020ec <__umoddi3+0x370>
200020cc:	00e80733          	add	a4,a6,a4
200020d0:	01073533          	sltu	a0,a4,a6
200020d4:	00b737b3          	sltu	a5,a4,a1
200020d8:	00153513          	seqz	a0,a0
200020dc:	00a7f7b3          	and	a5,a5,a0
200020e0:	40f007b3          	neg	a5,a5
200020e4:	0107f7b3          	and	a5,a5,a6
200020e8:	00e78733          	add	a4,a5,a4
200020ec:	40b70733          	sub	a4,a4,a1
200020f0:	026755b3          	divu	a1,a4,t1
200020f4:	0108d793          	srli	a5,a7,0x10
200020f8:	02677733          	remu	a4,a4,t1
200020fc:	02c585b3          	mul	a1,a1,a2
20002100:	01071713          	slli	a4,a4,0x10
20002104:	00e7e7b3          	or	a5,a5,a4
20002108:	02b7f263          	bgeu	a5,a1,2000212c <__umoddi3+0x3b0>
2000210c:	00f807b3          	add	a5,a6,a5
20002110:	0107b533          	sltu	a0,a5,a6
20002114:	00b7b733          	sltu	a4,a5,a1
20002118:	00153513          	seqz	a0,a0
2000211c:	00a77733          	and	a4,a4,a0
20002120:	40e00733          	neg	a4,a4
20002124:	01077733          	and	a4,a4,a6
20002128:	00f707b3          	add	a5,a4,a5
2000212c:	40b787b3          	sub	a5,a5,a1
20002130:	0267d733          	divu	a4,a5,t1
20002134:	01089893          	slli	a7,a7,0x10
20002138:	0108d893          	srli	a7,a7,0x10
2000213c:	0267f533          	remu	a0,a5,t1
20002140:	02c707b3          	mul	a5,a4,a2
20002144:	01051513          	slli	a0,a0,0x10
20002148:	00a8e533          	or	a0,a7,a0
2000214c:	02f57263          	bgeu	a0,a5,20002170 <__umoddi3+0x3f4>
20002150:	00a80533          	add	a0,a6,a0
20002154:	01053633          	sltu	a2,a0,a6
20002158:	00f53733          	sltu	a4,a0,a5
2000215c:	00163613          	seqz	a2,a2
20002160:	00c77733          	and	a4,a4,a2
20002164:	40e00733          	neg	a4,a4
20002168:	01077733          	and	a4,a4,a6
2000216c:	00a70533          	add	a0,a4,a0
20002170:	40f50533          	sub	a0,a0,a5
20002174:	00d55533          	srl	a0,a0,a3
20002178:	00000593          	li	a1,0
2000217c:	00008067          	ret
20002180:	10063693          	sltiu	a3,a2,256
20002184:	0016b693          	seqz	a3,a3
20002188:	00369693          	slli	a3,a3,0x3
2000218c:	c21ff06f          	j	20001dac <__umoddi3+0x30>
20002190:	00000693          	li	a3,0
20002194:	00000713          	li	a4,0
20002198:	e91ff06f          	j	20002028 <__umoddi3+0x2ac>
2000219c:	1006b713          	sltiu	a4,a3,256
200021a0:	00173713          	seqz	a4,a4
200021a4:	00371713          	slli	a4,a4,0x3
200021a8:	cfdff06f          	j	20001ea4 <__umoddi3+0x128>
200021ac:	04b6e463          	bltu	a3,a1,200021f4 <__umoddi3+0x478>
200021b0:	04c57263          	bgeu	a0,a2,200021f4 <__umoddi3+0x478>
200021b4:	000e0513          	mv	a0,t3
200021b8:	00030593          	mv	a1,t1
200021bc:	00008067          	ret
200021c0:	40c58733          	sub	a4,a1,a2
200021c4:	01065313          	srli	t1,a2,0x10
200021c8:	01061613          	slli	a2,a2,0x10
200021cc:	01065613          	srli	a2,a2,0x10
200021d0:	f21ff06f          	j	200020f0 <__umoddi3+0x374>
200021d4:	010007b7          	lui	a5,0x1000
200021d8:	00f67863          	bgeu	a2,a5,200021e8 <__umoddi3+0x46c>
200021dc:	01065693          	srli	a3,a2,0x10
200021e0:	01000713          	li	a4,16
200021e4:	e45ff06f          	j	20002028 <__umoddi3+0x2ac>
200021e8:	01865693          	srli	a3,a2,0x18
200021ec:	01800713          	li	a4,24
200021f0:	e39ff06f          	j	20002028 <__umoddi3+0x2ac>
200021f4:	40c50e33          	sub	t3,a0,a2
200021f8:	01c53333          	sltu	t1,a0,t3
200021fc:	40d586b3          	sub	a3,a1,a3
20002200:	40668333          	sub	t1,a3,t1
20002204:	fb1ff06f          	j	200021b4 <__umoddi3+0x438>
20002208:	ffe50513          	addi	a0,a0,-2
2000220c:	00668733          	add	a4,a3,t1
20002210:	d51ff06f          	j	20001f60 <__umoddi3+0x1e4>
20002214:	ffe78793          	addi	a5,a5,-2 # fffffe <_start-0x1f000002>
20002218:	00650733          	add	a4,a0,t1
2000221c:	d0dff06f          	j	20001f28 <__umoddi3+0x1ac>

20002220 <_iprintf_r>:
20002220:	fc010113          	addi	sp,sp,-64
20002224:	02c12423          	sw	a2,40(sp)
20002228:	02d12623          	sw	a3,44(sp)
2000222c:	02e12823          	sw	a4,48(sp)
20002230:	02f12a23          	sw	a5,52(sp)
20002234:	03012c23          	sw	a6,56(sp)
20002238:	03112e23          	sw	a7,60(sp)
2000223c:	00058613          	mv	a2,a1
20002240:	00852583          	lw	a1,8(a0)
20002244:	02810693          	addi	a3,sp,40
20002248:	00112e23          	sw	ra,28(sp)
2000224c:	00d12623          	sw	a3,12(sp)
20002250:	6c8000ef          	jal	20002918 <_vfiprintf_r>
20002254:	01c12083          	lw	ra,28(sp)
20002258:	04010113          	addi	sp,sp,64
2000225c:	00008067          	ret

20002260 <iprintf>:
20002260:	fc010113          	addi	sp,sp,-64
20002264:	02f12a23          	sw	a5,52(sp)
20002268:	00003797          	auipc	a5,0x3
2000226c:	b787a783          	lw	a5,-1160(a5) # 20004de0 <_impure_ptr>
20002270:	02c12423          	sw	a2,40(sp)
20002274:	02d12623          	sw	a3,44(sp)
20002278:	02b12223          	sw	a1,36(sp)
2000227c:	02e12823          	sw	a4,48(sp)
20002280:	03012c23          	sw	a6,56(sp)
20002284:	03112e23          	sw	a7,60(sp)
20002288:	0087a583          	lw	a1,8(a5)
2000228c:	02410693          	addi	a3,sp,36
20002290:	00050613          	mv	a2,a0
20002294:	00078513          	mv	a0,a5
20002298:	00112e23          	sw	ra,28(sp)
2000229c:	00d12623          	sw	a3,12(sp)
200022a0:	678000ef          	jal	20002918 <_vfiprintf_r>
200022a4:	01c12083          	lw	ra,28(sp)
200022a8:	04010113          	addi	sp,sp,64
200022ac:	00008067          	ret

200022b0 <setvbuf>:
200022b0:	fd010113          	addi	sp,sp,-48
200022b4:	01312e23          	sw	s3,28(sp)
200022b8:	00003997          	auipc	s3,0x3
200022bc:	b289a983          	lw	s3,-1240(s3) # 20004de0 <_impure_ptr>
200022c0:	02812423          	sw	s0,40(sp)
200022c4:	02912223          	sw	s1,36(sp)
200022c8:	03212023          	sw	s2,32(sp)
200022cc:	01412c23          	sw	s4,24(sp)
200022d0:	02112623          	sw	ra,44(sp)
200022d4:	01512a23          	sw	s5,20(sp)
200022d8:	00050413          	mv	s0,a0
200022dc:	00058913          	mv	s2,a1
200022e0:	00060a13          	mv	s4,a2
200022e4:	00068493          	mv	s1,a3
200022e8:	00098a63          	beqz	s3,200022fc <setvbuf+0x4c>
200022ec:	0209a783          	lw	a5,32(s3)
200022f0:	00079663          	bnez	a5,200022fc <setvbuf+0x4c>
200022f4:	00098513          	mv	a0,s3
200022f8:	3f0010ef          	jal	200036e8 <__sinit>
200022fc:	00200793          	li	a5,2
20002300:	00fa0863          	beq	s4,a5,20002310 <setvbuf+0x60>
20002304:	002a3793          	sltiu	a5,s4,2
20002308:	18078a63          	beqz	a5,2000249c <setvbuf+0x1ec>
2000230c:	1804c863          	bltz	s1,2000249c <setvbuf+0x1ec>
20002310:	00040593          	mv	a1,s0
20002314:	00098513          	mv	a0,s3
20002318:	0ac010ef          	jal	200033c4 <_fflush_r>
2000231c:	03442583          	lw	a1,52(s0)
20002320:	00058c63          	beqz	a1,20002338 <setvbuf+0x88>
20002324:	04440793          	addi	a5,s0,68
20002328:	00f58663          	beq	a1,a5,20002334 <setvbuf+0x84>
2000232c:	00098513          	mv	a0,s3
20002330:	180000ef          	jal	200024b0 <_free_r>
20002334:	02042a23          	sw	zero,52(s0)
20002338:	00c45783          	lhu	a5,12(s0)
2000233c:	00042c23          	sw	zero,24(s0)
20002340:	00042223          	sw	zero,4(s0)
20002344:	0807f793          	andi	a5,a5,128
20002348:	00078863          	beqz	a5,20002358 <setvbuf+0xa8>
2000234c:	01042583          	lw	a1,16(s0)
20002350:	00098513          	mv	a0,s3
20002354:	15c000ef          	jal	200024b0 <_free_r>
20002358:	00c45783          	lhu	a5,12(s0)
2000235c:	fffff737          	lui	a4,0xfffff
20002360:	35c70713          	addi	a4,a4,860 # fffff35c <__stack_top+0xdfff9820>
20002364:	00e7f7b3          	and	a5,a5,a4
20002368:	00f41623          	sh	a5,12(s0)
2000236c:	00200793          	li	a5,2
20002370:	10fa0a63          	beq	s4,a5,20002484 <setvbuf+0x1d4>
20002374:	00c10693          	addi	a3,sp,12
20002378:	00810613          	addi	a2,sp,8
2000237c:	00040593          	mv	a1,s0
20002380:	00098513          	mv	a0,s3
20002384:	0cd010ef          	jal	20003c50 <__swhatbuf_r>
20002388:	00c45783          	lhu	a5,12(s0)
2000238c:	00a7e7b3          	or	a5,a5,a0
20002390:	00f41623          	sh	a5,12(s0)
20002394:	06049863          	bnez	s1,20002404 <setvbuf+0x154>
20002398:	00812483          	lw	s1,8(sp)
2000239c:	00048513          	mv	a0,s1
200023a0:	210000ef          	jal	200025b0 <malloc>
200023a4:	00050913          	mv	s2,a0
200023a8:	00048a93          	mv	s5,s1
200023ac:	0c051263          	bnez	a0,20002470 <setvbuf+0x1c0>
200023b0:	00812a83          	lw	s5,8(sp)
200023b4:	0a9a9663          	bne	s5,s1,20002460 <setvbuf+0x1b0>
200023b8:	fff00513          	li	a0,-1
200023bc:	00c45783          	lhu	a5,12(s0)
200023c0:	00042423          	sw	zero,8(s0)
200023c4:	0027e793          	ori	a5,a5,2
200023c8:	00f41623          	sh	a5,12(s0)
200023cc:	04740793          	addi	a5,s0,71
200023d0:	00f42023          	sw	a5,0(s0)
200023d4:	00f42823          	sw	a5,16(s0)
200023d8:	00100793          	li	a5,1
200023dc:	00f42a23          	sw	a5,20(s0)
200023e0:	02c12083          	lw	ra,44(sp)
200023e4:	02812403          	lw	s0,40(sp)
200023e8:	02412483          	lw	s1,36(sp)
200023ec:	02012903          	lw	s2,32(sp)
200023f0:	01c12983          	lw	s3,28(sp)
200023f4:	01812a03          	lw	s4,24(sp)
200023f8:	01412a83          	lw	s5,20(sp)
200023fc:	03010113          	addi	sp,sp,48
20002400:	00008067          	ret
20002404:	f8090ce3          	beqz	s2,2000239c <setvbuf+0xec>
20002408:	0209a783          	lw	a5,32(s3)
2000240c:	00079663          	bnez	a5,20002418 <setvbuf+0x168>
20002410:	00098513          	mv	a0,s3
20002414:	2d4010ef          	jal	200036e8 <__sinit>
20002418:	00100793          	li	a5,1
2000241c:	00fa1863          	bne	s4,a5,2000242c <setvbuf+0x17c>
20002420:	00c45783          	lhu	a5,12(s0)
20002424:	0147e7b3          	or	a5,a5,s4
20002428:	00f41623          	sh	a5,12(s0)
2000242c:	00c41783          	lh	a5,12(s0)
20002430:	01242023          	sw	s2,0(s0)
20002434:	01242823          	sw	s2,16(s0)
20002438:	00942a23          	sw	s1,20(s0)
2000243c:	0087f713          	andi	a4,a5,8
20002440:	04070a63          	beqz	a4,20002494 <setvbuf+0x1e4>
20002444:	0017f793          	andi	a5,a5,1
20002448:	04078263          	beqz	a5,2000248c <setvbuf+0x1dc>
2000244c:	409004b3          	neg	s1,s1
20002450:	00042423          	sw	zero,8(s0)
20002454:	00942c23          	sw	s1,24(s0)
20002458:	00000513          	li	a0,0
2000245c:	f85ff06f          	j	200023e0 <setvbuf+0x130>
20002460:	000a8513          	mv	a0,s5
20002464:	14c000ef          	jal	200025b0 <malloc>
20002468:	00050913          	mv	s2,a0
2000246c:	f40506e3          	beqz	a0,200023b8 <setvbuf+0x108>
20002470:	00c45783          	lhu	a5,12(s0)
20002474:	000a8493          	mv	s1,s5
20002478:	0807e793          	ori	a5,a5,128
2000247c:	00f41623          	sh	a5,12(s0)
20002480:	f89ff06f          	j	20002408 <setvbuf+0x158>
20002484:	00000513          	li	a0,0
20002488:	f35ff06f          	j	200023bc <setvbuf+0x10c>
2000248c:	00942423          	sw	s1,8(s0)
20002490:	fc9ff06f          	j	20002458 <setvbuf+0x1a8>
20002494:	00042423          	sw	zero,8(s0)
20002498:	fc1ff06f          	j	20002458 <setvbuf+0x1a8>
2000249c:	fff00513          	li	a0,-1
200024a0:	f41ff06f          	j	200023e0 <setvbuf+0x130>

200024a4 <__errno>:
200024a4:	00003517          	auipc	a0,0x3
200024a8:	93c52503          	lw	a0,-1732(a0) # 20004de0 <_impure_ptr>
200024ac:	00008067          	ret

200024b0 <_free_r>:
200024b0:	0e058e63          	beqz	a1,200025ac <_free_r+0xfc>
200024b4:	ffc5a783          	lw	a5,-4(a1)
200024b8:	fe010113          	addi	sp,sp,-32
200024bc:	00812c23          	sw	s0,24(sp)
200024c0:	00112e23          	sw	ra,28(sp)
200024c4:	ffc58413          	addi	s0,a1,-4
200024c8:	0007d463          	bgez	a5,200024d0 <_free_r+0x20>
200024cc:	00f40433          	add	s0,s0,a5
200024d0:	00a12623          	sw	a0,12(sp)
200024d4:	350000ef          	jal	20002824 <__malloc_lock>
200024d8:	00003797          	auipc	a5,0x3
200024dc:	a587a783          	lw	a5,-1448(a5) # 20004f30 <__malloc_free_list>
200024e0:	00c12503          	lw	a0,12(sp)
200024e4:	02079063          	bnez	a5,20002504 <_free_r+0x54>
200024e8:	00042223          	sw	zero,4(s0)
200024ec:	00003797          	auipc	a5,0x3
200024f0:	a487a223          	sw	s0,-1468(a5) # 20004f30 <__malloc_free_list>
200024f4:	01812403          	lw	s0,24(sp)
200024f8:	01c12083          	lw	ra,28(sp)
200024fc:	02010113          	addi	sp,sp,32
20002500:	3280006f          	j	20002828 <__malloc_unlock>
20002504:	02f47463          	bgeu	s0,a5,2000252c <_free_r+0x7c>
20002508:	00042683          	lw	a3,0(s0)
2000250c:	00d40733          	add	a4,s0,a3
20002510:	00e79a63          	bne	a5,a4,20002524 <_free_r+0x74>
20002514:	0007a703          	lw	a4,0(a5)
20002518:	0047a783          	lw	a5,4(a5)
2000251c:	00d70733          	add	a4,a4,a3
20002520:	00e42023          	sw	a4,0(s0)
20002524:	00f42223          	sw	a5,4(s0)
20002528:	fc5ff06f          	j	200024ec <_free_r+0x3c>
2000252c:	00078713          	mv	a4,a5
20002530:	0047a783          	lw	a5,4(a5)
20002534:	00078463          	beqz	a5,2000253c <_free_r+0x8c>
20002538:	fef47ae3          	bgeu	s0,a5,2000252c <_free_r+0x7c>
2000253c:	00072683          	lw	a3,0(a4)
20002540:	00d70633          	add	a2,a4,a3
20002544:	02861863          	bne	a2,s0,20002574 <_free_r+0xc4>
20002548:	00042603          	lw	a2,0(s0)
2000254c:	00c686b3          	add	a3,a3,a2
20002550:	00d72023          	sw	a3,0(a4)
20002554:	00d70633          	add	a2,a4,a3
20002558:	f8c79ee3          	bne	a5,a2,200024f4 <_free_r+0x44>
2000255c:	0007a603          	lw	a2,0(a5)
20002560:	0047a783          	lw	a5,4(a5)
20002564:	00d606b3          	add	a3,a2,a3
20002568:	00d72023          	sw	a3,0(a4)
2000256c:	00f72223          	sw	a5,4(a4)
20002570:	f85ff06f          	j	200024f4 <_free_r+0x44>
20002574:	00c47863          	bgeu	s0,a2,20002584 <_free_r+0xd4>
20002578:	00c00793          	li	a5,12
2000257c:	00f52023          	sw	a5,0(a0)
20002580:	f75ff06f          	j	200024f4 <_free_r+0x44>
20002584:	00042603          	lw	a2,0(s0)
20002588:	00c406b3          	add	a3,s0,a2
2000258c:	00d79a63          	bne	a5,a3,200025a0 <_free_r+0xf0>
20002590:	0007a683          	lw	a3,0(a5)
20002594:	0047a783          	lw	a5,4(a5)
20002598:	00c686b3          	add	a3,a3,a2
2000259c:	00d42023          	sw	a3,0(s0)
200025a0:	00f42223          	sw	a5,4(s0)
200025a4:	00872223          	sw	s0,4(a4)
200025a8:	f4dff06f          	j	200024f4 <_free_r+0x44>
200025ac:	00008067          	ret

200025b0 <malloc>:
200025b0:	00050593          	mv	a1,a0
200025b4:	00003517          	auipc	a0,0x3
200025b8:	82c52503          	lw	a0,-2004(a0) # 20004de0 <_impure_ptr>
200025bc:	0a00006f          	j	2000265c <_malloc_r>

200025c0 <free>:
200025c0:	00050593          	mv	a1,a0
200025c4:	00003517          	auipc	a0,0x3
200025c8:	81c52503          	lw	a0,-2020(a0) # 20004de0 <_impure_ptr>
200025cc:	ee5ff06f          	j	200024b0 <_free_r>

200025d0 <sbrk_aligned>:
200025d0:	00003797          	auipc	a5,0x3
200025d4:	95c7a783          	lw	a5,-1700(a5) # 20004f2c <__malloc_sbrk_start>
200025d8:	ff010113          	addi	sp,sp,-16
200025dc:	00812423          	sw	s0,8(sp)
200025e0:	01212023          	sw	s2,0(sp)
200025e4:	00112623          	sw	ra,12(sp)
200025e8:	00912223          	sw	s1,4(sp)
200025ec:	00050913          	mv	s2,a0
200025f0:	00058413          	mv	s0,a1
200025f4:	00079a63          	bnez	a5,20002608 <sbrk_aligned+0x38>
200025f8:	00000593          	li	a1,0
200025fc:	631010ef          	jal	2000442c <_sbrk_r>
20002600:	00003797          	auipc	a5,0x3
20002604:	92a7a623          	sw	a0,-1748(a5) # 20004f2c <__malloc_sbrk_start>
20002608:	00040593          	mv	a1,s0
2000260c:	00090513          	mv	a0,s2
20002610:	61d010ef          	jal	2000442c <_sbrk_r>
20002614:	fff00493          	li	s1,-1
20002618:	02951263          	bne	a0,s1,2000263c <sbrk_aligned+0x6c>
2000261c:	fff00413          	li	s0,-1
20002620:	00c12083          	lw	ra,12(sp)
20002624:	00040513          	mv	a0,s0
20002628:	00812403          	lw	s0,8(sp)
2000262c:	00412483          	lw	s1,4(sp)
20002630:	00012903          	lw	s2,0(sp)
20002634:	01010113          	addi	sp,sp,16
20002638:	00008067          	ret
2000263c:	00350413          	addi	s0,a0,3
20002640:	ffc47413          	andi	s0,s0,-4
20002644:	fc850ee3          	beq	a0,s0,20002620 <sbrk_aligned+0x50>
20002648:	40a405b3          	sub	a1,s0,a0
2000264c:	00090513          	mv	a0,s2
20002650:	5dd010ef          	jal	2000442c <_sbrk_r>
20002654:	fc9516e3          	bne	a0,s1,20002620 <sbrk_aligned+0x50>
20002658:	fc5ff06f          	j	2000261c <sbrk_aligned+0x4c>

2000265c <_malloc_r>:
2000265c:	fe010113          	addi	sp,sp,-32
20002660:	00912a23          	sw	s1,20(sp)
20002664:	00358493          	addi	s1,a1,3
20002668:	ffc4f493          	andi	s1,s1,-4
2000266c:	00112e23          	sw	ra,28(sp)
20002670:	00812c23          	sw	s0,24(sp)
20002674:	01212823          	sw	s2,16(sp)
20002678:	01312623          	sw	s3,12(sp)
2000267c:	01412423          	sw	s4,8(sp)
20002680:	00848493          	addi	s1,s1,8
20002684:	00c00793          	li	a5,12
20002688:	00f4f463          	bgeu	s1,a5,20002690 <_malloc_r+0x34>
2000268c:	00078493          	mv	s1,a5
20002690:	0004c463          	bltz	s1,20002698 <_malloc_r+0x3c>
20002694:	02b4f863          	bgeu	s1,a1,200026c4 <_malloc_r+0x68>
20002698:	00c00793          	li	a5,12
2000269c:	00f52023          	sw	a5,0(a0)
200026a0:	00000513          	li	a0,0
200026a4:	01c12083          	lw	ra,28(sp)
200026a8:	01812403          	lw	s0,24(sp)
200026ac:	01412483          	lw	s1,20(sp)
200026b0:	01012903          	lw	s2,16(sp)
200026b4:	00c12983          	lw	s3,12(sp)
200026b8:	00812a03          	lw	s4,8(sp)
200026bc:	02010113          	addi	sp,sp,32
200026c0:	00008067          	ret
200026c4:	00050913          	mv	s2,a0
200026c8:	00003997          	auipc	s3,0x3
200026cc:	86898993          	addi	s3,s3,-1944 # 20004f30 <__malloc_free_list>
200026d0:	154000ef          	jal	20002824 <__malloc_lock>
200026d4:	0009a783          	lw	a5,0(s3)
200026d8:	00078413          	mv	s0,a5
200026dc:	08041263          	bnez	s0,20002760 <_malloc_r+0x104>
200026e0:	00048593          	mv	a1,s1
200026e4:	00090513          	mv	a0,s2
200026e8:	ee9ff0ef          	jal	200025d0 <sbrk_aligned>
200026ec:	fff00793          	li	a5,-1
200026f0:	00050413          	mv	s0,a0
200026f4:	12f51463          	bne	a0,a5,2000281c <_malloc_r+0x1c0>
200026f8:	0009a403          	lw	s0,0(s3)
200026fc:	00040793          	mv	a5,s0
20002700:	0e079463          	bnez	a5,200027e8 <_malloc_r+0x18c>
20002704:	10040263          	beqz	s0,20002808 <_malloc_r+0x1ac>
20002708:	00042a03          	lw	s4,0(s0)
2000270c:	00000593          	li	a1,0
20002710:	00090513          	mv	a0,s2
20002714:	01440a33          	add	s4,s0,s4
20002718:	515010ef          	jal	2000442c <_sbrk_r>
2000271c:	0eaa1663          	bne	s4,a0,20002808 <_malloc_r+0x1ac>
20002720:	00042783          	lw	a5,0(s0)
20002724:	00090513          	mv	a0,s2
20002728:	40f484b3          	sub	s1,s1,a5
2000272c:	00048593          	mv	a1,s1
20002730:	ea1ff0ef          	jal	200025d0 <sbrk_aligned>
20002734:	fff00793          	li	a5,-1
20002738:	0cf50863          	beq	a0,a5,20002808 <_malloc_r+0x1ac>
2000273c:	00042783          	lw	a5,0(s0)
20002740:	009787b3          	add	a5,a5,s1
20002744:	00f42023          	sw	a5,0(s0)
20002748:	0009a783          	lw	a5,0(s3)
2000274c:	0047a703          	lw	a4,4(a5)
20002750:	0a071263          	bnez	a4,200027f4 <_malloc_r+0x198>
20002754:	00002797          	auipc	a5,0x2
20002758:	7c07ae23          	sw	zero,2012(a5) # 20004f30 <__malloc_free_list>
2000275c:	0340006f          	j	20002790 <_malloc_r+0x134>
20002760:	00042683          	lw	a3,0(s0)
20002764:	409686b3          	sub	a3,a3,s1
20002768:	0606ca63          	bltz	a3,200027dc <_malloc_r+0x180>
2000276c:	00b00713          	li	a4,11
20002770:	04d77a63          	bgeu	a4,a3,200027c4 <_malloc_r+0x168>
20002774:	00942023          	sw	s1,0(s0)
20002778:	00940733          	add	a4,s0,s1
2000277c:	04879063          	bne	a5,s0,200027bc <_malloc_r+0x160>
20002780:	00e9a023          	sw	a4,0(s3)
20002784:	00442783          	lw	a5,4(s0)
20002788:	00d72023          	sw	a3,0(a4)
2000278c:	00f72223          	sw	a5,4(a4)
20002790:	00090513          	mv	a0,s2
20002794:	094000ef          	jal	20002828 <__malloc_unlock>
20002798:	00b40513          	addi	a0,s0,11
2000279c:	00440793          	addi	a5,s0,4
200027a0:	ff857513          	andi	a0,a0,-8
200027a4:	40f50733          	sub	a4,a0,a5
200027a8:	ee070ee3          	beqz	a4,200026a4 <_malloc_r+0x48>
200027ac:	00e40433          	add	s0,s0,a4
200027b0:	40a787b3          	sub	a5,a5,a0
200027b4:	00f42023          	sw	a5,0(s0)
200027b8:	eedff06f          	j	200026a4 <_malloc_r+0x48>
200027bc:	00e7a223          	sw	a4,4(a5)
200027c0:	fc5ff06f          	j	20002784 <_malloc_r+0x128>
200027c4:	00442703          	lw	a4,4(s0)
200027c8:	00879663          	bne	a5,s0,200027d4 <_malloc_r+0x178>
200027cc:	00e9a023          	sw	a4,0(s3)
200027d0:	fc1ff06f          	j	20002790 <_malloc_r+0x134>
200027d4:	00e7a223          	sw	a4,4(a5)
200027d8:	fb9ff06f          	j	20002790 <_malloc_r+0x134>
200027dc:	00040793          	mv	a5,s0
200027e0:	00442403          	lw	s0,4(s0)
200027e4:	ef9ff06f          	j	200026dc <_malloc_r+0x80>
200027e8:	00078413          	mv	s0,a5
200027ec:	0047a783          	lw	a5,4(a5)
200027f0:	f11ff06f          	j	20002700 <_malloc_r+0xa4>
200027f4:	00078713          	mv	a4,a5
200027f8:	0047a783          	lw	a5,4(a5)
200027fc:	fe879ce3          	bne	a5,s0,200027f4 <_malloc_r+0x198>
20002800:	00072223          	sw	zero,4(a4)
20002804:	f8dff06f          	j	20002790 <_malloc_r+0x134>
20002808:	00c00793          	li	a5,12
2000280c:	00f92023          	sw	a5,0(s2)
20002810:	00090513          	mv	a0,s2
20002814:	014000ef          	jal	20002828 <__malloc_unlock>
20002818:	e89ff06f          	j	200026a0 <_malloc_r+0x44>
2000281c:	00952023          	sw	s1,0(a0)
20002820:	f71ff06f          	j	20002790 <_malloc_r+0x134>

20002824 <__malloc_lock>:
20002824:	00008067          	ret

20002828 <__malloc_unlock>:
20002828:	00008067          	ret

2000282c <__sfputc_r>:
2000282c:	00862783          	lw	a5,8(a2) # 10008 <_start-0x1ffefff8>
20002830:	fff78793          	addi	a5,a5,-1
20002834:	00f62423          	sw	a5,8(a2)
20002838:	0007dc63          	bgez	a5,20002850 <__sfputc_r+0x24>
2000283c:	01862703          	lw	a4,24(a2)
20002840:	00e7c663          	blt	a5,a4,2000284c <__sfputc_r+0x20>
20002844:	ff658793          	addi	a5,a1,-10
20002848:	00079463          	bnez	a5,20002850 <__sfputc_r+0x24>
2000284c:	6980106f          	j	20003ee4 <__swbuf_r>
20002850:	00062783          	lw	a5,0(a2)
20002854:	00058513          	mv	a0,a1
20002858:	00178713          	addi	a4,a5,1
2000285c:	00e62023          	sw	a4,0(a2)
20002860:	00b78023          	sb	a1,0(a5)
20002864:	00008067          	ret

20002868 <__sfputs_r>:
20002868:	fe010113          	addi	sp,sp,-32
2000286c:	00812c23          	sw	s0,24(sp)
20002870:	00912a23          	sw	s1,20(sp)
20002874:	01212823          	sw	s2,16(sp)
20002878:	01312623          	sw	s3,12(sp)
2000287c:	01412423          	sw	s4,8(sp)
20002880:	00112e23          	sw	ra,28(sp)
20002884:	00050993          	mv	s3,a0
20002888:	00058a13          	mv	s4,a1
2000288c:	00060413          	mv	s0,a2
20002890:	00d604b3          	add	s1,a2,a3
20002894:	fff00913          	li	s2,-1
20002898:	00941663          	bne	s0,s1,200028a4 <__sfputs_r+0x3c>
2000289c:	00000513          	li	a0,0
200028a0:	01c0006f          	j	200028bc <__sfputs_r+0x54>
200028a4:	00044583          	lbu	a1,0(s0)
200028a8:	000a0613          	mv	a2,s4
200028ac:	00098513          	mv	a0,s3
200028b0:	f7dff0ef          	jal	2000282c <__sfputc_r>
200028b4:	00140413          	addi	s0,s0,1
200028b8:	ff2510e3          	bne	a0,s2,20002898 <__sfputs_r+0x30>
200028bc:	01c12083          	lw	ra,28(sp)
200028c0:	01812403          	lw	s0,24(sp)
200028c4:	01412483          	lw	s1,20(sp)
200028c8:	01012903          	lw	s2,16(sp)
200028cc:	00c12983          	lw	s3,12(sp)
200028d0:	00812a03          	lw	s4,8(sp)
200028d4:	02010113          	addi	sp,sp,32
200028d8:	00008067          	ret

200028dc <__sprint_r>:
200028dc:	00862783          	lw	a5,8(a2)
200028e0:	ff010113          	addi	sp,sp,-16
200028e4:	00812423          	sw	s0,8(sp)
200028e8:	00112623          	sw	ra,12(sp)
200028ec:	00060413          	mv	s0,a2
200028f0:	02078063          	beqz	a5,20002910 <__sprint_r+0x34>
200028f4:	655000ef          	jal	20003748 <__sfvwrite_r>
200028f8:	00042423          	sw	zero,8(s0)
200028fc:	00c12083          	lw	ra,12(sp)
20002900:	00042223          	sw	zero,4(s0)
20002904:	00812403          	lw	s0,8(sp)
20002908:	01010113          	addi	sp,sp,16
2000290c:	00008067          	ret
20002910:	00000513          	li	a0,0
20002914:	fe9ff06f          	j	200028fc <__sprint_r+0x20>

20002918 <_vfiprintf_r>:
20002918:	f5010113          	addi	sp,sp,-176
2000291c:	0a812423          	sw	s0,168(sp)
20002920:	0a912223          	sw	s1,164(sp)
20002924:	09312e23          	sw	s3,156(sp)
20002928:	09412c23          	sw	s4,152(sp)
2000292c:	0a112623          	sw	ra,172(sp)
20002930:	0b212023          	sw	s2,160(sp)
20002934:	09512a23          	sw	s5,148(sp)
20002938:	09612823          	sw	s6,144(sp)
2000293c:	09712623          	sw	s7,140(sp)
20002940:	09812423          	sw	s8,136(sp)
20002944:	09912223          	sw	s9,132(sp)
20002948:	00050993          	mv	s3,a0
2000294c:	00058493          	mv	s1,a1
20002950:	00060413          	mv	s0,a2
20002954:	00068a13          	mv	s4,a3
20002958:	00050863          	beqz	a0,20002968 <_vfiprintf_r+0x50>
2000295c:	02052783          	lw	a5,32(a0)
20002960:	00079463          	bnez	a5,20002968 <_vfiprintf_r+0x50>
20002964:	585000ef          	jal	200036e8 <__sinit>
20002968:	00c4d783          	lhu	a5,12(s1)
2000296c:	0087f793          	andi	a5,a5,8
20002970:	10078c63          	beqz	a5,20002a88 <_vfiprintf_r+0x170>
20002974:	0104a783          	lw	a5,16(s1)
20002978:	10078863          	beqz	a5,20002a88 <_vfiprintf_r+0x170>
2000297c:	02000793          	li	a5,32
20002980:	02f10ca3          	sb	a5,57(sp)
20002984:	03000793          	li	a5,48
20002988:	01412e23          	sw	s4,28(sp)
2000298c:	02012a23          	sw	zero,52(sp)
20002990:	02f10d23          	sb	a5,58(sp)
20002994:	fff00a13          	li	s4,-1
20002998:	00002b17          	auipc	s6,0x2
2000299c:	da0b0b13          	addi	s6,s6,-608 # 20004738 <__clz_tab+0x100>
200029a0:	00100b93          	li	s7,1
200029a4:	00a00a93          	li	s5,10
200029a8:	00040c13          	mv	s8,s0
200029ac:	000c4783          	lbu	a5,0(s8)
200029b0:	00f03cb3          	snez	s9,a5
200029b4:	fdb78793          	addi	a5,a5,-37
200029b8:	00f037b3          	snez	a5,a5
200029bc:	00fcfcb3          	and	s9,s9,a5
200029c0:	100c9863          	bnez	s9,20002ad0 <_vfiprintf_r+0x1b8>
200029c4:	408c06b3          	sub	a3,s8,s0
200029c8:	02068663          	beqz	a3,200029f4 <_vfiprintf_r+0xdc>
200029cc:	00040613          	mv	a2,s0
200029d0:	00048593          	mv	a1,s1
200029d4:	00098513          	mv	a0,s3
200029d8:	00d12623          	sw	a3,12(sp)
200029dc:	e8dff0ef          	jal	20002868 <__sfputs_r>
200029e0:	29450463          	beq	a0,s4,20002c68 <_vfiprintf_r+0x350>
200029e4:	03412783          	lw	a5,52(sp)
200029e8:	00c12683          	lw	a3,12(sp)
200029ec:	00d787b3          	add	a5,a5,a3
200029f0:	02f12a23          	sw	a5,52(sp)
200029f4:	000c4783          	lbu	a5,0(s8)
200029f8:	26078863          	beqz	a5,20002c68 <_vfiprintf_r+0x350>
200029fc:	001c0413          	addi	s0,s8,1
20002a00:	02012023          	sw	zero,32(sp)
20002a04:	02012623          	sw	zero,44(sp)
20002a08:	03412223          	sw	s4,36(sp)
20002a0c:	02012423          	sw	zero,40(sp)
20002a10:	060101a3          	sb	zero,99(sp)
20002a14:	06012c23          	sw	zero,120(sp)
20002a18:	00044583          	lbu	a1,0(s0)
20002a1c:	00500613          	li	a2,5
20002a20:	00002517          	auipc	a0,0x2
20002a24:	d1850513          	addi	a0,a0,-744 # 20004738 <__clz_tab+0x100>
20002a28:	6e8010ef          	jal	20004110 <memchr>
20002a2c:	02012783          	lw	a5,32(sp)
20002a30:	00140693          	addi	a3,s0,1
20002a34:	0a051263          	bnez	a0,20002ad8 <_vfiprintf_r+0x1c0>
20002a38:	0107f713          	andi	a4,a5,16
20002a3c:	00070663          	beqz	a4,20002a48 <_vfiprintf_r+0x130>
20002a40:	02000713          	li	a4,32
20002a44:	06e101a3          	sb	a4,99(sp)
20002a48:	0087f713          	andi	a4,a5,8
20002a4c:	00070663          	beqz	a4,20002a58 <_vfiprintf_r+0x140>
20002a50:	02b00713          	li	a4,43
20002a54:	06e101a3          	sb	a4,99(sp)
20002a58:	00044603          	lbu	a2,0(s0)
20002a5c:	02a00713          	li	a4,42
20002a60:	08e60863          	beq	a2,a4,20002af0 <_vfiprintf_r+0x1d8>
20002a64:	02c12783          	lw	a5,44(sp)
20002a68:	00000693          	li	a3,0
20002a6c:	00900613          	li	a2,9
20002a70:	00044703          	lbu	a4,0(s0)
20002a74:	fd070713          	addi	a4,a4,-48
20002a78:	0ee67263          	bgeu	a2,a4,20002b5c <_vfiprintf_r+0x244>
20002a7c:	08068863          	beqz	a3,20002b0c <_vfiprintf_r+0x1f4>
20002a80:	02f12623          	sw	a5,44(sp)
20002a84:	0880006f          	j	20002b0c <_vfiprintf_r+0x1f4>
20002a88:	00048593          	mv	a1,s1
20002a8c:	00098513          	mv	a0,s3
20002a90:	564010ef          	jal	20003ff4 <__swsetup_r>
20002a94:	ee0504e3          	beqz	a0,2000297c <_vfiprintf_r+0x64>
20002a98:	fff00513          	li	a0,-1
20002a9c:	0ac12083          	lw	ra,172(sp)
20002aa0:	0a812403          	lw	s0,168(sp)
20002aa4:	0a412483          	lw	s1,164(sp)
20002aa8:	0a012903          	lw	s2,160(sp)
20002aac:	09c12983          	lw	s3,156(sp)
20002ab0:	09812a03          	lw	s4,152(sp)
20002ab4:	09412a83          	lw	s5,148(sp)
20002ab8:	09012b03          	lw	s6,144(sp)
20002abc:	08c12b83          	lw	s7,140(sp)
20002ac0:	08812c03          	lw	s8,136(sp)
20002ac4:	08412c83          	lw	s9,132(sp)
20002ac8:	0b010113          	addi	sp,sp,176
20002acc:	00008067          	ret
20002ad0:	001c0c13          	addi	s8,s8,1
20002ad4:	ed9ff06f          	j	200029ac <_vfiprintf_r+0x94>
20002ad8:	41650533          	sub	a0,a0,s6
20002adc:	00ab9533          	sll	a0,s7,a0
20002ae0:	00f56533          	or	a0,a0,a5
20002ae4:	02a12023          	sw	a0,32(sp)
20002ae8:	00068413          	mv	s0,a3
20002aec:	f2dff06f          	j	20002a18 <_vfiprintf_r+0x100>
20002af0:	01c12703          	lw	a4,28(sp)
20002af4:	00470613          	addi	a2,a4,4
20002af8:	00072703          	lw	a4,0(a4)
20002afc:	00c12e23          	sw	a2,28(sp)
20002b00:	04074463          	bltz	a4,20002b48 <_vfiprintf_r+0x230>
20002b04:	02e12623          	sw	a4,44(sp)
20002b08:	00068413          	mv	s0,a3
20002b0c:	00044703          	lbu	a4,0(s0)
20002b10:	02e00793          	li	a5,46
20002b14:	06f71e63          	bne	a4,a5,20002b90 <_vfiprintf_r+0x278>
20002b18:	00144703          	lbu	a4,1(s0)
20002b1c:	02a00793          	li	a5,42
20002b20:	04f71863          	bne	a4,a5,20002b70 <_vfiprintf_r+0x258>
20002b24:	01c12783          	lw	a5,28(sp)
20002b28:	00240413          	addi	s0,s0,2
20002b2c:	00478713          	addi	a4,a5,4
20002b30:	0007a783          	lw	a5,0(a5)
20002b34:	00e12e23          	sw	a4,28(sp)
20002b38:	0007d463          	bgez	a5,20002b40 <_vfiprintf_r+0x228>
20002b3c:	fff00793          	li	a5,-1
20002b40:	02f12223          	sw	a5,36(sp)
20002b44:	04c0006f          	j	20002b90 <_vfiprintf_r+0x278>
20002b48:	40e00733          	neg	a4,a4
20002b4c:	0027e793          	ori	a5,a5,2
20002b50:	02e12623          	sw	a4,44(sp)
20002b54:	02f12023          	sw	a5,32(sp)
20002b58:	fb1ff06f          	j	20002b08 <_vfiprintf_r+0x1f0>
20002b5c:	035787b3          	mul	a5,a5,s5
20002b60:	00140413          	addi	s0,s0,1
20002b64:	00100693          	li	a3,1
20002b68:	00e787b3          	add	a5,a5,a4
20002b6c:	f05ff06f          	j	20002a70 <_vfiprintf_r+0x158>
20002b70:	00140413          	addi	s0,s0,1
20002b74:	02012223          	sw	zero,36(sp)
20002b78:	00000793          	li	a5,0
20002b7c:	00900693          	li	a3,9
20002b80:	00044703          	lbu	a4,0(s0)
20002b84:	fd070713          	addi	a4,a4,-48
20002b88:	08e6fa63          	bgeu	a3,a4,20002c1c <_vfiprintf_r+0x304>
20002b8c:	fa0c9ae3          	bnez	s9,20002b40 <_vfiprintf_r+0x228>
20002b90:	00044583          	lbu	a1,0(s0)
20002b94:	00300613          	li	a2,3
20002b98:	00002517          	auipc	a0,0x2
20002b9c:	ba850513          	addi	a0,a0,-1112 # 20004740 <__clz_tab+0x108>
20002ba0:	570010ef          	jal	20004110 <memchr>
20002ba4:	02050463          	beqz	a0,20002bcc <_vfiprintf_r+0x2b4>
20002ba8:	00002797          	auipc	a5,0x2
20002bac:	b9878793          	addi	a5,a5,-1128 # 20004740 <__clz_tab+0x108>
20002bb0:	40f50533          	sub	a0,a0,a5
20002bb4:	02012783          	lw	a5,32(sp)
20002bb8:	04000713          	li	a4,64
20002bbc:	00a71733          	sll	a4,a4,a0
20002bc0:	00e7e7b3          	or	a5,a5,a4
20002bc4:	00140413          	addi	s0,s0,1
20002bc8:	02f12023          	sw	a5,32(sp)
20002bcc:	00044583          	lbu	a1,0(s0)
20002bd0:	00600613          	li	a2,6
20002bd4:	00002517          	auipc	a0,0x2
20002bd8:	b7050513          	addi	a0,a0,-1168 # 20004744 <__clz_tab+0x10c>
20002bdc:	02b10c23          	sb	a1,56(sp)
20002be0:	530010ef          	jal	20004110 <memchr>
20002be4:	08050c63          	beqz	a0,20002c7c <_vfiprintf_r+0x364>
20002be8:	00000793          	li	a5,0
20002bec:	04079a63          	bnez	a5,20002c40 <_vfiprintf_r+0x328>
20002bf0:	02012703          	lw	a4,32(sp)
20002bf4:	01c12783          	lw	a5,28(sp)
20002bf8:	10077713          	andi	a4,a4,256
20002bfc:	02070a63          	beqz	a4,20002c30 <_vfiprintf_r+0x318>
20002c00:	00478793          	addi	a5,a5,4
20002c04:	00f12e23          	sw	a5,28(sp)
20002c08:	03412783          	lw	a5,52(sp)
20002c0c:	00140413          	addi	s0,s0,1
20002c10:	012787b3          	add	a5,a5,s2
20002c14:	02f12a23          	sw	a5,52(sp)
20002c18:	d91ff06f          	j	200029a8 <_vfiprintf_r+0x90>
20002c1c:	035787b3          	mul	a5,a5,s5
20002c20:	00140413          	addi	s0,s0,1
20002c24:	00100c93          	li	s9,1
20002c28:	00e787b3          	add	a5,a5,a4
20002c2c:	f55ff06f          	j	20002b80 <_vfiprintf_r+0x268>
20002c30:	00778793          	addi	a5,a5,7
20002c34:	ff87f793          	andi	a5,a5,-8
20002c38:	00878793          	addi	a5,a5,8
20002c3c:	fc9ff06f          	j	20002c04 <_vfiprintf_r+0x2ec>
20002c40:	01c10713          	addi	a4,sp,28
20002c44:	00000697          	auipc	a3,0x0
20002c48:	c2468693          	addi	a3,a3,-988 # 20002868 <__sfputs_r>
20002c4c:	00048613          	mv	a2,s1
20002c50:	02010593          	addi	a1,sp,32
20002c54:	00098513          	mv	a0,s3
20002c58:	00000097          	auipc	ra,0x0
20002c5c:	000000e7          	jalr	zero # 0 <_start-0x20000000>
20002c60:	00050913          	mv	s2,a0
20002c64:	fb4512e3          	bne	a0,s4,20002c08 <_vfiprintf_r+0x2f0>
20002c68:	00c4d783          	lhu	a5,12(s1)
20002c6c:	0407f793          	andi	a5,a5,64
20002c70:	e20794e3          	bnez	a5,20002a98 <_vfiprintf_r+0x180>
20002c74:	03412503          	lw	a0,52(sp)
20002c78:	e25ff06f          	j	20002a9c <_vfiprintf_r+0x184>
20002c7c:	01c10713          	addi	a4,sp,28
20002c80:	00000697          	auipc	a3,0x0
20002c84:	be868693          	addi	a3,a3,-1048 # 20002868 <__sfputs_r>
20002c88:	00048613          	mv	a2,s1
20002c8c:	02010593          	addi	a1,sp,32
20002c90:	00098513          	mv	a0,s3
20002c94:	1d4000ef          	jal	20002e68 <_printf_i>
20002c98:	fc9ff06f          	j	20002c60 <_vfiprintf_r+0x348>

20002c9c <vfiprintf>:
20002c9c:	00060693          	mv	a3,a2
20002ca0:	00058613          	mv	a2,a1
20002ca4:	00050593          	mv	a1,a0
20002ca8:	00002517          	auipc	a0,0x2
20002cac:	13852503          	lw	a0,312(a0) # 20004de0 <_impure_ptr>
20002cb0:	c69ff06f          	j	20002918 <_vfiprintf_r>

20002cb4 <_printf_common>:
20002cb4:	fd010113          	addi	sp,sp,-48
20002cb8:	01312e23          	sw	s3,28(sp)
20002cbc:	0105a783          	lw	a5,16(a1)
20002cc0:	00070993          	mv	s3,a4
20002cc4:	0085a703          	lw	a4,8(a1)
20002cc8:	02812423          	sw	s0,40(sp)
20002ccc:	03212023          	sw	s2,32(sp)
20002cd0:	01612823          	sw	s6,16(sp)
20002cd4:	01712623          	sw	s7,12(sp)
20002cd8:	02112623          	sw	ra,44(sp)
20002cdc:	02912223          	sw	s1,36(sp)
20002ce0:	01412c23          	sw	s4,24(sp)
20002ce4:	01512a23          	sw	s5,20(sp)
20002ce8:	00050b13          	mv	s6,a0
20002cec:	00058413          	mv	s0,a1
20002cf0:	00060913          	mv	s2,a2
20002cf4:	00068b93          	mv	s7,a3
20002cf8:	00e7d463          	bge	a5,a4,20002d00 <_printf_common+0x4c>
20002cfc:	00070793          	mv	a5,a4
20002d00:	00f92023          	sw	a5,0(s2)
20002d04:	04344703          	lbu	a4,67(s0)
20002d08:	00070663          	beqz	a4,20002d14 <_printf_common+0x60>
20002d0c:	00178793          	addi	a5,a5,1
20002d10:	00f92023          	sw	a5,0(s2)
20002d14:	00042783          	lw	a5,0(s0)
20002d18:	0207f793          	andi	a5,a5,32
20002d1c:	00078863          	beqz	a5,20002d2c <_printf_common+0x78>
20002d20:	00092783          	lw	a5,0(s2)
20002d24:	00278793          	addi	a5,a5,2
20002d28:	00f92023          	sw	a5,0(s2)
20002d2c:	00042483          	lw	s1,0(s0)
20002d30:	0064f493          	andi	s1,s1,6
20002d34:	00049e63          	bnez	s1,20002d50 <_printf_common+0x9c>
20002d38:	01940a13          	addi	s4,s0,25
20002d3c:	fff00a93          	li	s5,-1
20002d40:	00c42783          	lw	a5,12(s0)
20002d44:	00092703          	lw	a4,0(s2)
20002d48:	40e787b3          	sub	a5,a5,a4
20002d4c:	08f4c463          	blt	s1,a5,20002dd4 <_printf_common+0x120>
20002d50:	00042783          	lw	a5,0(s0)
20002d54:	04344683          	lbu	a3,67(s0)
20002d58:	0207f793          	andi	a5,a5,32
20002d5c:	00d036b3          	snez	a3,a3
20002d60:	0c079263          	bnez	a5,20002e24 <_printf_common+0x170>
20002d64:	04340613          	addi	a2,s0,67
20002d68:	000b8593          	mv	a1,s7
20002d6c:	000b0513          	mv	a0,s6
20002d70:	000980e7          	jalr	s3
20002d74:	fff00793          	li	a5,-1
20002d78:	06f50a63          	beq	a0,a5,20002dec <_printf_common+0x138>
20002d7c:	00042783          	lw	a5,0(s0)
20002d80:	00400713          	li	a4,4
20002d84:	00000493          	li	s1,0
20002d88:	0067f793          	andi	a5,a5,6
20002d8c:	00e79e63          	bne	a5,a4,20002da8 <_printf_common+0xf4>
20002d90:	00092783          	lw	a5,0(s2)
20002d94:	00c42483          	lw	s1,12(s0)
20002d98:	40f484b3          	sub	s1,s1,a5
20002d9c:	fff4c793          	not	a5,s1
20002da0:	41f7d793          	srai	a5,a5,0x1f
20002da4:	00f4f4b3          	and	s1,s1,a5
20002da8:	00842783          	lw	a5,8(s0)
20002dac:	01042703          	lw	a4,16(s0)
20002db0:	00f75663          	bge	a4,a5,20002dbc <_printf_common+0x108>
20002db4:	40e787b3          	sub	a5,a5,a4
20002db8:	00f484b3          	add	s1,s1,a5
20002dbc:	00000913          	li	s2,0
20002dc0:	01a40413          	addi	s0,s0,26
20002dc4:	fff00a13          	li	s4,-1
20002dc8:	09249063          	bne	s1,s2,20002e48 <_printf_common+0x194>
20002dcc:	00000513          	li	a0,0
20002dd0:	0200006f          	j	20002df0 <_printf_common+0x13c>
20002dd4:	00100693          	li	a3,1
20002dd8:	000a0613          	mv	a2,s4
20002ddc:	000b8593          	mv	a1,s7
20002de0:	000b0513          	mv	a0,s6
20002de4:	000980e7          	jalr	s3
20002de8:	03551a63          	bne	a0,s5,20002e1c <_printf_common+0x168>
20002dec:	fff00513          	li	a0,-1
20002df0:	02c12083          	lw	ra,44(sp)
20002df4:	02812403          	lw	s0,40(sp)
20002df8:	02412483          	lw	s1,36(sp)
20002dfc:	02012903          	lw	s2,32(sp)
20002e00:	01c12983          	lw	s3,28(sp)
20002e04:	01812a03          	lw	s4,24(sp)
20002e08:	01412a83          	lw	s5,20(sp)
20002e0c:	01012b03          	lw	s6,16(sp)
20002e10:	00c12b83          	lw	s7,12(sp)
20002e14:	03010113          	addi	sp,sp,48
20002e18:	00008067          	ret
20002e1c:	00148493          	addi	s1,s1,1
20002e20:	f21ff06f          	j	20002d40 <_printf_common+0x8c>
20002e24:	00d40733          	add	a4,s0,a3
20002e28:	03000613          	li	a2,48
20002e2c:	04c701a3          	sb	a2,67(a4)
20002e30:	04544703          	lbu	a4,69(s0)
20002e34:	00168793          	addi	a5,a3,1
20002e38:	00f407b3          	add	a5,s0,a5
20002e3c:	00268693          	addi	a3,a3,2
20002e40:	04e781a3          	sb	a4,67(a5)
20002e44:	f21ff06f          	j	20002d64 <_printf_common+0xb0>
20002e48:	00100693          	li	a3,1
20002e4c:	00040613          	mv	a2,s0
20002e50:	000b8593          	mv	a1,s7
20002e54:	000b0513          	mv	a0,s6
20002e58:	000980e7          	jalr	s3
20002e5c:	f94508e3          	beq	a0,s4,20002dec <_printf_common+0x138>
20002e60:	00190913          	addi	s2,s2,1
20002e64:	f65ff06f          	j	20002dc8 <_printf_common+0x114>

20002e68 <_printf_i>:
20002e68:	fc010113          	addi	sp,sp,-64
20002e6c:	02812c23          	sw	s0,56(sp)
20002e70:	02912a23          	sw	s1,52(sp)
20002e74:	03412423          	sw	s4,40(sp)
20002e78:	03512223          	sw	s5,36(sp)
20002e7c:	02112e23          	sw	ra,60(sp)
20002e80:	03212823          	sw	s2,48(sp)
20002e84:	03312623          	sw	s3,44(sp)
20002e88:	0185c783          	lbu	a5,24(a1)
20002e8c:	00068493          	mv	s1,a3
20002e90:	07800693          	li	a3,120
20002e94:	00050a13          	mv	s4,a0
20002e98:	00058413          	mv	s0,a1
20002e9c:	00060a93          	mv	s5,a2
20002ea0:	02f6e263          	bltu	a3,a5,20002ec4 <_printf_i+0x5c>
20002ea4:	06200693          	li	a3,98
20002ea8:	04358613          	addi	a2,a1,67
20002eac:	02f6e063          	bltu	a3,a5,20002ecc <_printf_i+0x64>
20002eb0:	28078663          	beqz	a5,2000313c <_printf_i+0x2d4>
20002eb4:	05800593          	li	a1,88
20002eb8:	00002697          	auipc	a3,0x2
20002ebc:	89468693          	addi	a3,a3,-1900 # 2000474c <__clz_tab+0x114>
20002ec0:	1cb78a63          	beq	a5,a1,20003094 <_printf_i+0x22c>
20002ec4:	04240913          	addi	s2,s0,66
20002ec8:	0440006f          	j	20002f0c <_printf_i+0xa4>
20002ecc:	f9d78693          	addi	a3,a5,-99
20002ed0:	0ff6f693          	zext.b	a3,a3
20002ed4:	01500593          	li	a1,21
20002ed8:	fed5e6e3          	bltu	a1,a3,20002ec4 <_printf_i+0x5c>
20002edc:	00002597          	auipc	a1,0x2
20002ee0:	89858593          	addi	a1,a1,-1896 # 20004774 <__clz_tab+0x13c>
20002ee4:	00269693          	slli	a3,a3,0x2
20002ee8:	00b686b3          	add	a3,a3,a1
20002eec:	0006a683          	lw	a3,0(a3)
20002ef0:	00b686b3          	add	a3,a3,a1
20002ef4:	00068067          	jr	a3
20002ef8:	00072783          	lw	a5,0(a4)
20002efc:	04240913          	addi	s2,s0,66
20002f00:	00478693          	addi	a3,a5,4
20002f04:	0007a783          	lw	a5,0(a5)
20002f08:	00d72023          	sw	a3,0(a4)
20002f0c:	04f40123          	sb	a5,66(s0)
20002f10:	00100793          	li	a5,1
20002f14:	2640006f          	j	20003178 <_printf_i+0x310>
20002f18:	00042783          	lw	a5,0(s0)
20002f1c:	00072503          	lw	a0,0(a4)
20002f20:	0807f693          	andi	a3,a5,128
20002f24:	00450593          	addi	a1,a0,4
20002f28:	02068663          	beqz	a3,20002f54 <_printf_i+0xec>
20002f2c:	00052783          	lw	a5,0(a0)
20002f30:	00b72023          	sw	a1,0(a4)
20002f34:	0007d863          	bgez	a5,20002f44 <_printf_i+0xdc>
20002f38:	02d00713          	li	a4,45
20002f3c:	40f007b3          	neg	a5,a5
20002f40:	04e401a3          	sb	a4,67(s0)
20002f44:	00002697          	auipc	a3,0x2
20002f48:	80868693          	addi	a3,a3,-2040 # 2000474c <__clz_tab+0x114>
20002f4c:	00a00713          	li	a4,10
20002f50:	0680006f          	j	20002fb8 <_printf_i+0x150>
20002f54:	0407f693          	andi	a3,a5,64
20002f58:	00052783          	lw	a5,0(a0)
20002f5c:	00b72023          	sw	a1,0(a4)
20002f60:	fc068ae3          	beqz	a3,20002f34 <_printf_i+0xcc>
20002f64:	01079793          	slli	a5,a5,0x10
20002f68:	4107d793          	srai	a5,a5,0x10
20002f6c:	fc9ff06f          	j	20002f34 <_printf_i+0xcc>
20002f70:	00042583          	lw	a1,0(s0)
20002f74:	00072683          	lw	a3,0(a4)
20002f78:	0805f513          	andi	a0,a1,128
20002f7c:	0006a783          	lw	a5,0(a3)
20002f80:	00468693          	addi	a3,a3,4
20002f84:	00051a63          	bnez	a0,20002f98 <_printf_i+0x130>
20002f88:	0405f593          	andi	a1,a1,64
20002f8c:	00058663          	beqz	a1,20002f98 <_printf_i+0x130>
20002f90:	01079793          	slli	a5,a5,0x10
20002f94:	0107d793          	srli	a5,a5,0x10
20002f98:	00d72023          	sw	a3,0(a4)
20002f9c:	01844683          	lbu	a3,24(s0)
20002fa0:	06f00713          	li	a4,111
20002fa4:	14e69663          	bne	a3,a4,200030f0 <_printf_i+0x288>
20002fa8:	00001697          	auipc	a3,0x1
20002fac:	7a468693          	addi	a3,a3,1956 # 2000474c <__clz_tab+0x114>
20002fb0:	00800713          	li	a4,8
20002fb4:	040401a3          	sb	zero,67(s0)
20002fb8:	00442583          	lw	a1,4(s0)
20002fbc:	00b42423          	sw	a1,8(s0)
20002fc0:	0005ce63          	bltz	a1,20002fdc <_printf_i+0x174>
20002fc4:	00042503          	lw	a0,0(s0)
20002fc8:	00b7e5b3          	or	a1,a5,a1
20002fcc:	00060913          	mv	s2,a2
20002fd0:	ffb57513          	andi	a0,a0,-5
20002fd4:	00a42023          	sw	a0,0(s0)
20002fd8:	02058463          	beqz	a1,20003000 <_printf_i+0x198>
20002fdc:	00060913          	mv	s2,a2
20002fe0:	02e7f5b3          	remu	a1,a5,a4
20002fe4:	fff90913          	addi	s2,s2,-1
20002fe8:	00b685b3          	add	a1,a3,a1
20002fec:	0005c583          	lbu	a1,0(a1)
20002ff0:	00b90023          	sb	a1,0(s2)
20002ff4:	00078593          	mv	a1,a5
20002ff8:	02e7d7b3          	divu	a5,a5,a4
20002ffc:	fee5f2e3          	bgeu	a1,a4,20002fe0 <_printf_i+0x178>
20003000:	00800793          	li	a5,8
20003004:	02f71463          	bne	a4,a5,2000302c <_printf_i+0x1c4>
20003008:	00042783          	lw	a5,0(s0)
2000300c:	0017f793          	andi	a5,a5,1
20003010:	00078e63          	beqz	a5,2000302c <_printf_i+0x1c4>
20003014:	00442703          	lw	a4,4(s0)
20003018:	01042783          	lw	a5,16(s0)
2000301c:	00e7c863          	blt	a5,a4,2000302c <_printf_i+0x1c4>
20003020:	03000793          	li	a5,48
20003024:	fef90fa3          	sb	a5,-1(s2)
20003028:	fff90913          	addi	s2,s2,-1
2000302c:	41260633          	sub	a2,a2,s2
20003030:	00c42823          	sw	a2,16(s0)
20003034:	00048713          	mv	a4,s1
20003038:	000a8693          	mv	a3,s5
2000303c:	01c10613          	addi	a2,sp,28
20003040:	00040593          	mv	a1,s0
20003044:	000a0513          	mv	a0,s4
20003048:	c6dff0ef          	jal	20002cb4 <_printf_common>
2000304c:	fff00993          	li	s3,-1
20003050:	13351a63          	bne	a0,s3,20003184 <_printf_i+0x31c>
20003054:	fff00513          	li	a0,-1
20003058:	03c12083          	lw	ra,60(sp)
2000305c:	03812403          	lw	s0,56(sp)
20003060:	03412483          	lw	s1,52(sp)
20003064:	03012903          	lw	s2,48(sp)
20003068:	02c12983          	lw	s3,44(sp)
2000306c:	02812a03          	lw	s4,40(sp)
20003070:	02412a83          	lw	s5,36(sp)
20003074:	04010113          	addi	sp,sp,64
20003078:	00008067          	ret
2000307c:	00042783          	lw	a5,0(s0)
20003080:	0207e793          	ori	a5,a5,32
20003084:	00f42023          	sw	a5,0(s0)
20003088:	07800793          	li	a5,120
2000308c:	00001697          	auipc	a3,0x1
20003090:	6d468693          	addi	a3,a3,1748 # 20004760 <__clz_tab+0x128>
20003094:	04f402a3          	sb	a5,69(s0)
20003098:	00042583          	lw	a1,0(s0)
2000309c:	00072503          	lw	a0,0(a4)
200030a0:	0805f813          	andi	a6,a1,128
200030a4:	00052783          	lw	a5,0(a0)
200030a8:	00450513          	addi	a0,a0,4
200030ac:	00081a63          	bnez	a6,200030c0 <_printf_i+0x258>
200030b0:	0405f813          	andi	a6,a1,64
200030b4:	00080663          	beqz	a6,200030c0 <_printf_i+0x258>
200030b8:	01079793          	slli	a5,a5,0x10
200030bc:	0107d793          	srli	a5,a5,0x10
200030c0:	00a72023          	sw	a0,0(a4)
200030c4:	0015f713          	andi	a4,a1,1
200030c8:	00070663          	beqz	a4,200030d4 <_printf_i+0x26c>
200030cc:	0205e593          	ori	a1,a1,32
200030d0:	00b42023          	sw	a1,0(s0)
200030d4:	00078663          	beqz	a5,200030e0 <_printf_i+0x278>
200030d8:	01000713          	li	a4,16
200030dc:	ed9ff06f          	j	20002fb4 <_printf_i+0x14c>
200030e0:	00042703          	lw	a4,0(s0)
200030e4:	fdf77713          	andi	a4,a4,-33
200030e8:	00e42023          	sw	a4,0(s0)
200030ec:	fedff06f          	j	200030d8 <_printf_i+0x270>
200030f0:	00001697          	auipc	a3,0x1
200030f4:	65c68693          	addi	a3,a3,1628 # 2000474c <__clz_tab+0x114>
200030f8:	00a00713          	li	a4,10
200030fc:	eb9ff06f          	j	20002fb4 <_printf_i+0x14c>
20003100:	00042683          	lw	a3,0(s0)
20003104:	00072783          	lw	a5,0(a4)
20003108:	01442583          	lw	a1,20(s0)
2000310c:	0806f813          	andi	a6,a3,128
20003110:	00478513          	addi	a0,a5,4
20003114:	00080a63          	beqz	a6,20003128 <_printf_i+0x2c0>
20003118:	00a72023          	sw	a0,0(a4)
2000311c:	0007a783          	lw	a5,0(a5)
20003120:	00b7a023          	sw	a1,0(a5)
20003124:	0180006f          	j	2000313c <_printf_i+0x2d4>
20003128:	00a72023          	sw	a0,0(a4)
2000312c:	0406f693          	andi	a3,a3,64
20003130:	0007a783          	lw	a5,0(a5)
20003134:	fe0686e3          	beqz	a3,20003120 <_printf_i+0x2b8>
20003138:	00b79023          	sh	a1,0(a5)
2000313c:	00042823          	sw	zero,16(s0)
20003140:	00060913          	mv	s2,a2
20003144:	ef1ff06f          	j	20003034 <_printf_i+0x1cc>
20003148:	00072783          	lw	a5,0(a4)
2000314c:	00442603          	lw	a2,4(s0)
20003150:	00000593          	li	a1,0
20003154:	00478693          	addi	a3,a5,4
20003158:	00d72023          	sw	a3,0(a4)
2000315c:	0007a903          	lw	s2,0(a5)
20003160:	00090513          	mv	a0,s2
20003164:	7ad000ef          	jal	20004110 <memchr>
20003168:	00050663          	beqz	a0,20003174 <_printf_i+0x30c>
2000316c:	41250533          	sub	a0,a0,s2
20003170:	00a42223          	sw	a0,4(s0)
20003174:	00442783          	lw	a5,4(s0)
20003178:	00f42823          	sw	a5,16(s0)
2000317c:	040401a3          	sb	zero,67(s0)
20003180:	eb5ff06f          	j	20003034 <_printf_i+0x1cc>
20003184:	01042683          	lw	a3,16(s0)
20003188:	00090613          	mv	a2,s2
2000318c:	000a8593          	mv	a1,s5
20003190:	000a0513          	mv	a0,s4
20003194:	000480e7          	jalr	s1
20003198:	eb350ee3          	beq	a0,s3,20003054 <_printf_i+0x1ec>
2000319c:	00042783          	lw	a5,0(s0)
200031a0:	0027f793          	andi	a5,a5,2
200031a4:	04079663          	bnez	a5,200031f0 <_printf_i+0x388>
200031a8:	01c12783          	lw	a5,28(sp)
200031ac:	00c42503          	lw	a0,12(s0)
200031b0:	eaf554e3          	bge	a0,a5,20003058 <_printf_i+0x1f0>
200031b4:	00078513          	mv	a0,a5
200031b8:	ea1ff06f          	j	20003058 <_printf_i+0x1f0>
200031bc:	00100693          	li	a3,1
200031c0:	000a8593          	mv	a1,s5
200031c4:	000a0513          	mv	a0,s4
200031c8:	00c12623          	sw	a2,12(sp)
200031cc:	000480e7          	jalr	s1
200031d0:	e93502e3          	beq	a0,s3,20003054 <_printf_i+0x1ec>
200031d4:	00c12603          	lw	a2,12(sp)
200031d8:	00190913          	addi	s2,s2,1
200031dc:	00c42783          	lw	a5,12(s0)
200031e0:	01c12703          	lw	a4,28(sp)
200031e4:	40e787b3          	sub	a5,a5,a4
200031e8:	fcf94ae3          	blt	s2,a5,200031bc <_printf_i+0x354>
200031ec:	fbdff06f          	j	200031a8 <_printf_i+0x340>
200031f0:	00000913          	li	s2,0
200031f4:	01940613          	addi	a2,s0,25
200031f8:	fe5ff06f          	j	200031dc <_printf_i+0x374>

200031fc <__sflush_r>:
200031fc:	00c59783          	lh	a5,12(a1)
20003200:	fe010113          	addi	sp,sp,-32
20003204:	00812c23          	sw	s0,24(sp)
20003208:	00912a23          	sw	s1,20(sp)
2000320c:	00112e23          	sw	ra,28(sp)
20003210:	01212823          	sw	s2,16(sp)
20003214:	0087f713          	andi	a4,a5,8
20003218:	00050493          	mv	s1,a0
2000321c:	00058413          	mv	s0,a1
20003220:	12071263          	bnez	a4,20003344 <__sflush_r+0x148>
20003224:	0045a703          	lw	a4,4(a1)
20003228:	00e04663          	bgtz	a4,20003234 <__sflush_r+0x38>
2000322c:	0405a703          	lw	a4,64(a1)
20003230:	10e05663          	blez	a4,2000333c <__sflush_r+0x140>
20003234:	02c42703          	lw	a4,44(s0)
20003238:	10070263          	beqz	a4,2000333c <__sflush_r+0x140>
2000323c:	0004a903          	lw	s2,0(s1)
20003240:	01379693          	slli	a3,a5,0x13
20003244:	0004a023          	sw	zero,0(s1)
20003248:	0a06dc63          	bgez	a3,20003300 <__sflush_r+0x104>
2000324c:	05442603          	lw	a2,84(s0)
20003250:	00c45783          	lhu	a5,12(s0)
20003254:	0047f793          	andi	a5,a5,4
20003258:	00078e63          	beqz	a5,20003274 <__sflush_r+0x78>
2000325c:	00442783          	lw	a5,4(s0)
20003260:	40f60633          	sub	a2,a2,a5
20003264:	03442783          	lw	a5,52(s0)
20003268:	00078663          	beqz	a5,20003274 <__sflush_r+0x78>
2000326c:	04042783          	lw	a5,64(s0)
20003270:	40f60633          	sub	a2,a2,a5
20003274:	02c42783          	lw	a5,44(s0)
20003278:	02042583          	lw	a1,32(s0)
2000327c:	00000693          	li	a3,0
20003280:	00048513          	mv	a0,s1
20003284:	000780e7          	jalr	a5
20003288:	fff00713          	li	a4,-1
2000328c:	00c41783          	lh	a5,12(s0)
20003290:	02e51263          	bne	a0,a4,200032b4 <__sflush_r+0xb8>
20003294:	0004a683          	lw	a3,0(s1)
20003298:	01d00713          	li	a4,29
2000329c:	0ed76c63          	bltu	a4,a3,20003394 <__sflush_r+0x198>
200032a0:	20400737          	lui	a4,0x20400
200032a4:	00170713          	addi	a4,a4,1 # 20400001 <__stack_top+0x3fa4c5>
200032a8:	00d75733          	srl	a4,a4,a3
200032ac:	00177713          	andi	a4,a4,1
200032b0:	0e070263          	beqz	a4,20003394 <__sflush_r+0x198>
200032b4:	01042703          	lw	a4,16(s0)
200032b8:	00042223          	sw	zero,4(s0)
200032bc:	00e42023          	sw	a4,0(s0)
200032c0:	01379713          	slli	a4,a5,0x13
200032c4:	00075c63          	bgez	a4,200032dc <__sflush_r+0xe0>
200032c8:	fff00793          	li	a5,-1
200032cc:	00f51663          	bne	a0,a5,200032d8 <__sflush_r+0xdc>
200032d0:	0004a783          	lw	a5,0(s1)
200032d4:	00079463          	bnez	a5,200032dc <__sflush_r+0xe0>
200032d8:	04a42a23          	sw	a0,84(s0)
200032dc:	03442583          	lw	a1,52(s0)
200032e0:	0124a023          	sw	s2,0(s1)
200032e4:	04058c63          	beqz	a1,2000333c <__sflush_r+0x140>
200032e8:	04440793          	addi	a5,s0,68
200032ec:	00f58663          	beq	a1,a5,200032f8 <__sflush_r+0xfc>
200032f0:	00048513          	mv	a0,s1
200032f4:	9bcff0ef          	jal	200024b0 <_free_r>
200032f8:	02042a23          	sw	zero,52(s0)
200032fc:	0400006f          	j	2000333c <__sflush_r+0x140>
20003300:	02042583          	lw	a1,32(s0)
20003304:	00000613          	li	a2,0
20003308:	00100693          	li	a3,1
2000330c:	00048513          	mv	a0,s1
20003310:	000700e7          	jalr	a4
20003314:	fff00793          	li	a5,-1
20003318:	00050613          	mv	a2,a0
2000331c:	f2f51ae3          	bne	a0,a5,20003250 <__sflush_r+0x54>
20003320:	0004a783          	lw	a5,0(s1)
20003324:	f20786e3          	beqz	a5,20003250 <__sflush_r+0x54>
20003328:	fe378713          	addi	a4,a5,-29
2000332c:	00070663          	beqz	a4,20003338 <__sflush_r+0x13c>
20003330:	fea78793          	addi	a5,a5,-22
20003334:	04079e63          	bnez	a5,20003390 <__sflush_r+0x194>
20003338:	0124a023          	sw	s2,0(s1)
2000333c:	00000513          	li	a0,0
20003340:	0600006f          	j	200033a0 <__sflush_r+0x1a4>
20003344:	0105a603          	lw	a2,16(a1)
20003348:	fe060ae3          	beqz	a2,2000333c <__sflush_r+0x140>
2000334c:	0005a683          	lw	a3,0(a1)
20003350:	0037f793          	andi	a5,a5,3
20003354:	00c5a023          	sw	a2,0(a1)
20003358:	40c68933          	sub	s2,a3,a2
2000335c:	00000713          	li	a4,0
20003360:	00079463          	bnez	a5,20003368 <__sflush_r+0x16c>
20003364:	0145a703          	lw	a4,20(a1)
20003368:	00e42423          	sw	a4,8(s0)
2000336c:	fd2058e3          	blez	s2,2000333c <__sflush_r+0x140>
20003370:	02842783          	lw	a5,40(s0)
20003374:	02042583          	lw	a1,32(s0)
20003378:	00090693          	mv	a3,s2
2000337c:	00048513          	mv	a0,s1
20003380:	00c12623          	sw	a2,12(sp)
20003384:	000780e7          	jalr	a5
20003388:	00c12603          	lw	a2,12(sp)
2000338c:	02a04663          	bgtz	a0,200033b8 <__sflush_r+0x1bc>
20003390:	00c45783          	lhu	a5,12(s0)
20003394:	0407e793          	ori	a5,a5,64
20003398:	00f41623          	sh	a5,12(s0)
2000339c:	fff00513          	li	a0,-1
200033a0:	01c12083          	lw	ra,28(sp)
200033a4:	01812403          	lw	s0,24(sp)
200033a8:	01412483          	lw	s1,20(sp)
200033ac:	01012903          	lw	s2,16(sp)
200033b0:	02010113          	addi	sp,sp,32
200033b4:	00008067          	ret
200033b8:	00a60633          	add	a2,a2,a0
200033bc:	40a90933          	sub	s2,s2,a0
200033c0:	fadff06f          	j	2000336c <__sflush_r+0x170>

200033c4 <_fflush_r>:
200033c4:	0105a783          	lw	a5,16(a1)
200033c8:	04078e63          	beqz	a5,20003424 <_fflush_r+0x60>
200033cc:	fe010113          	addi	sp,sp,-32
200033d0:	00812c23          	sw	s0,24(sp)
200033d4:	00112e23          	sw	ra,28(sp)
200033d8:	00050413          	mv	s0,a0
200033dc:	00050c63          	beqz	a0,200033f4 <_fflush_r+0x30>
200033e0:	02052783          	lw	a5,32(a0)
200033e4:	00079863          	bnez	a5,200033f4 <_fflush_r+0x30>
200033e8:	00b12623          	sw	a1,12(sp)
200033ec:	2fc000ef          	jal	200036e8 <__sinit>
200033f0:	00c12583          	lw	a1,12(sp)
200033f4:	00c59783          	lh	a5,12(a1)
200033f8:	00078c63          	beqz	a5,20003410 <_fflush_r+0x4c>
200033fc:	00040513          	mv	a0,s0
20003400:	01812403          	lw	s0,24(sp)
20003404:	01c12083          	lw	ra,28(sp)
20003408:	02010113          	addi	sp,sp,32
2000340c:	df1ff06f          	j	200031fc <__sflush_r>
20003410:	01c12083          	lw	ra,28(sp)
20003414:	01812403          	lw	s0,24(sp)
20003418:	00000513          	li	a0,0
2000341c:	02010113          	addi	sp,sp,32
20003420:	00008067          	ret
20003424:	00000513          	li	a0,0
20003428:	00008067          	ret

2000342c <fflush>:
2000342c:	00050593          	mv	a1,a0
20003430:	02051063          	bnez	a0,20003450 <fflush+0x24>
20003434:	00002617          	auipc	a2,0x2
20003438:	98c60613          	addi	a2,a2,-1652 # 20004dc0 <__sglue>
2000343c:	00000597          	auipc	a1,0x0
20003440:	f8858593          	addi	a1,a1,-120 # 200033c4 <_fflush_r>
20003444:	00002517          	auipc	a0,0x2
20003448:	93050513          	addi	a0,a0,-1744 # 20004d74 <_impure_data>
2000344c:	75c0006f          	j	20003ba8 <_fwalk_sglue>
20003450:	00002517          	auipc	a0,0x2
20003454:	99052503          	lw	a0,-1648(a0) # 20004de0 <_impure_ptr>
20003458:	f6dff06f          	j	200033c4 <_fflush_r>

2000345c <__fp_lock>:
2000345c:	00000513          	li	a0,0
20003460:	00008067          	ret

20003464 <std>:
20003464:	ff010113          	addi	sp,sp,-16
20003468:	00812423          	sw	s0,8(sp)
2000346c:	00112623          	sw	ra,12(sp)
20003470:	00050413          	mv	s0,a0
20003474:	00b51623          	sh	a1,12(a0)
20003478:	00c51723          	sh	a2,14(a0)
2000347c:	00052023          	sw	zero,0(a0)
20003480:	00052223          	sw	zero,4(a0)
20003484:	00052423          	sw	zero,8(a0)
20003488:	06052223          	sw	zero,100(a0)
2000348c:	00052823          	sw	zero,16(a0)
20003490:	00052a23          	sw	zero,20(a0)
20003494:	00052c23          	sw	zero,24(a0)
20003498:	00800613          	li	a2,8
2000349c:	00000593          	li	a1,0
200034a0:	05c50513          	addi	a0,a0,92
200034a4:	05c010ef          	jal	20004500 <memset>
200034a8:	00001797          	auipc	a5,0x1
200034ac:	90078793          	addi	a5,a5,-1792 # 20003da8 <__sread>
200034b0:	02f42223          	sw	a5,36(s0)
200034b4:	00001797          	auipc	a5,0x1
200034b8:	94c78793          	addi	a5,a5,-1716 # 20003e00 <__swrite>
200034bc:	02f42423          	sw	a5,40(s0)
200034c0:	00001797          	auipc	a5,0x1
200034c4:	9c478793          	addi	a5,a5,-1596 # 20003e84 <__sseek>
200034c8:	02f42623          	sw	a5,44(s0)
200034cc:	00001797          	auipc	a5,0x1
200034d0:	a1078793          	addi	a5,a5,-1520 # 20003edc <__sclose>
200034d4:	00c12083          	lw	ra,12(sp)
200034d8:	02842023          	sw	s0,32(s0)
200034dc:	02f42823          	sw	a5,48(s0)
200034e0:	00812403          	lw	s0,8(sp)
200034e4:	01010113          	addi	sp,sp,16
200034e8:	00008067          	ret

200034ec <stdio_exit_handler>:
200034ec:	00002617          	auipc	a2,0x2
200034f0:	8d460613          	addi	a2,a2,-1836 # 20004dc0 <__sglue>
200034f4:	00000597          	auipc	a1,0x0
200034f8:	ed058593          	addi	a1,a1,-304 # 200033c4 <_fflush_r>
200034fc:	00002517          	auipc	a0,0x2
20003500:	87850513          	addi	a0,a0,-1928 # 20004d74 <_impure_data>
20003504:	6a40006f          	j	20003ba8 <_fwalk_sglue>

20003508 <cleanup_stdio>:
20003508:	00452583          	lw	a1,4(a0)
2000350c:	ff010113          	addi	sp,sp,-16
20003510:	00812423          	sw	s0,8(sp)
20003514:	00112623          	sw	ra,12(sp)
20003518:	00002797          	auipc	a5,0x2
2000351c:	8dc78793          	addi	a5,a5,-1828 # 20004df4 <__sf>
20003520:	00050413          	mv	s0,a0
20003524:	00f58463          	beq	a1,a5,2000352c <cleanup_stdio+0x24>
20003528:	e9dff0ef          	jal	200033c4 <_fflush_r>
2000352c:	00842583          	lw	a1,8(s0)
20003530:	00002797          	auipc	a5,0x2
20003534:	92c78793          	addi	a5,a5,-1748 # 20004e5c <__sf+0x68>
20003538:	00f58663          	beq	a1,a5,20003544 <cleanup_stdio+0x3c>
2000353c:	00040513          	mv	a0,s0
20003540:	e85ff0ef          	jal	200033c4 <_fflush_r>
20003544:	00c42583          	lw	a1,12(s0)
20003548:	00002797          	auipc	a5,0x2
2000354c:	97c78793          	addi	a5,a5,-1668 # 20004ec4 <__sf+0xd0>
20003550:	00f58c63          	beq	a1,a5,20003568 <cleanup_stdio+0x60>
20003554:	00040513          	mv	a0,s0
20003558:	00812403          	lw	s0,8(sp)
2000355c:	00c12083          	lw	ra,12(sp)
20003560:	01010113          	addi	sp,sp,16
20003564:	e61ff06f          	j	200033c4 <_fflush_r>
20003568:	00c12083          	lw	ra,12(sp)
2000356c:	00812403          	lw	s0,8(sp)
20003570:	01010113          	addi	sp,sp,16
20003574:	00008067          	ret

20003578 <global_stdio_init.part.0>:
20003578:	ff010113          	addi	sp,sp,-16
2000357c:	00000797          	auipc	a5,0x0
20003580:	f7078793          	addi	a5,a5,-144 # 200034ec <stdio_exit_handler>
20003584:	00000613          	li	a2,0
20003588:	00400593          	li	a1,4
2000358c:	00002517          	auipc	a0,0x2
20003590:	86850513          	addi	a0,a0,-1944 # 20004df4 <__sf>
20003594:	00112623          	sw	ra,12(sp)
20003598:	00002717          	auipc	a4,0x2
2000359c:	98f72e23          	sw	a5,-1636(a4) # 20004f34 <__stdio_exit_handler>
200035a0:	ec5ff0ef          	jal	20003464 <std>
200035a4:	00100613          	li	a2,1
200035a8:	00900593          	li	a1,9
200035ac:	00002517          	auipc	a0,0x2
200035b0:	8b050513          	addi	a0,a0,-1872 # 20004e5c <__sf+0x68>
200035b4:	eb1ff0ef          	jal	20003464 <std>
200035b8:	00c12083          	lw	ra,12(sp)
200035bc:	00200613          	li	a2,2
200035c0:	01200593          	li	a1,18
200035c4:	00002517          	auipc	a0,0x2
200035c8:	90050513          	addi	a0,a0,-1792 # 20004ec4 <__sf+0xd0>
200035cc:	01010113          	addi	sp,sp,16
200035d0:	e95ff06f          	j	20003464 <std>

200035d4 <__fp_unlock>:
200035d4:	00000513          	li	a0,0
200035d8:	00008067          	ret

200035dc <__sfp>:
200035dc:	00002797          	auipc	a5,0x2
200035e0:	9587a783          	lw	a5,-1704(a5) # 20004f34 <__stdio_exit_handler>
200035e4:	ff010113          	addi	sp,sp,-16
200035e8:	01212023          	sw	s2,0(sp)
200035ec:	00112623          	sw	ra,12(sp)
200035f0:	00812423          	sw	s0,8(sp)
200035f4:	00912223          	sw	s1,4(sp)
200035f8:	00050913          	mv	s2,a0
200035fc:	00079463          	bnez	a5,20003604 <__sfp+0x28>
20003600:	f79ff0ef          	jal	20003578 <global_stdio_init.part.0>
20003604:	00001497          	auipc	s1,0x1
20003608:	7bc48493          	addi	s1,s1,1980 # 20004dc0 <__sglue>
2000360c:	0084a403          	lw	s0,8(s1)
20003610:	0044a783          	lw	a5,4(s1)
20003614:	fff78793          	addi	a5,a5,-1
20003618:	0207d863          	bgez	a5,20003648 <__sfp+0x6c>
2000361c:	0004a403          	lw	s0,0(s1)
20003620:	0c041063          	bnez	s0,200036e0 <__sfp+0x104>
20003624:	1ac00593          	li	a1,428
20003628:	00090513          	mv	a0,s2
2000362c:	830ff0ef          	jal	2000265c <_malloc_r>
20003630:	00050413          	mv	s0,a0
20003634:	08051463          	bnez	a0,200036bc <__sfp+0xe0>
20003638:	0004a023          	sw	zero,0(s1)
2000363c:	00c00793          	li	a5,12
20003640:	00f92023          	sw	a5,0(s2)
20003644:	0540006f          	j	20003698 <__sfp+0xbc>
20003648:	00c41703          	lh	a4,12(s0)
2000364c:	06071463          	bnez	a4,200036b4 <__sfp+0xd8>
20003650:	ffff07b7          	lui	a5,0xffff0
20003654:	00178793          	addi	a5,a5,1 # ffff0001 <__stack_top+0xdffea4c5>
20003658:	06042223          	sw	zero,100(s0)
2000365c:	00042023          	sw	zero,0(s0)
20003660:	00042223          	sw	zero,4(s0)
20003664:	00042423          	sw	zero,8(s0)
20003668:	00f42623          	sw	a5,12(s0)
2000366c:	00042823          	sw	zero,16(s0)
20003670:	00042a23          	sw	zero,20(s0)
20003674:	00042c23          	sw	zero,24(s0)
20003678:	00800613          	li	a2,8
2000367c:	00000593          	li	a1,0
20003680:	05c40513          	addi	a0,s0,92
20003684:	67d000ef          	jal	20004500 <memset>
20003688:	02042a23          	sw	zero,52(s0)
2000368c:	02042c23          	sw	zero,56(s0)
20003690:	04042423          	sw	zero,72(s0)
20003694:	04042623          	sw	zero,76(s0)
20003698:	00c12083          	lw	ra,12(sp)
2000369c:	00040513          	mv	a0,s0
200036a0:	00812403          	lw	s0,8(sp)
200036a4:	00412483          	lw	s1,4(sp)
200036a8:	00012903          	lw	s2,0(sp)
200036ac:	01010113          	addi	sp,sp,16
200036b0:	00008067          	ret
200036b4:	06840413          	addi	s0,s0,104
200036b8:	f5dff06f          	j	20003614 <__sfp+0x38>
200036bc:	00400793          	li	a5,4
200036c0:	00052023          	sw	zero,0(a0)
200036c4:	00f52223          	sw	a5,4(a0)
200036c8:	00c50513          	addi	a0,a0,12
200036cc:	00a42423          	sw	a0,8(s0)
200036d0:	1a000613          	li	a2,416
200036d4:	00000593          	li	a1,0
200036d8:	629000ef          	jal	20004500 <memset>
200036dc:	0084a023          	sw	s0,0(s1)
200036e0:	00040493          	mv	s1,s0
200036e4:	f29ff06f          	j	2000360c <__sfp+0x30>

200036e8 <__sinit>:
200036e8:	02052783          	lw	a5,32(a0)
200036ec:	02079063          	bnez	a5,2000370c <__sinit+0x24>
200036f0:	00000797          	auipc	a5,0x0
200036f4:	e1878793          	addi	a5,a5,-488 # 20003508 <cleanup_stdio>
200036f8:	02f52023          	sw	a5,32(a0)
200036fc:	00002797          	auipc	a5,0x2
20003700:	8387a783          	lw	a5,-1992(a5) # 20004f34 <__stdio_exit_handler>
20003704:	00079463          	bnez	a5,2000370c <__sinit+0x24>
20003708:	e71ff06f          	j	20003578 <global_stdio_init.part.0>
2000370c:	00008067          	ret

20003710 <__sfp_lock_acquire>:
20003710:	00008067          	ret

20003714 <__sfp_lock_release>:
20003714:	00008067          	ret

20003718 <__fp_lock_all>:
20003718:	00001617          	auipc	a2,0x1
2000371c:	6a860613          	addi	a2,a2,1704 # 20004dc0 <__sglue>
20003720:	00000597          	auipc	a1,0x0
20003724:	d3c58593          	addi	a1,a1,-708 # 2000345c <__fp_lock>
20003728:	00000513          	li	a0,0
2000372c:	47c0006f          	j	20003ba8 <_fwalk_sglue>

20003730 <__fp_unlock_all>:
20003730:	00001617          	auipc	a2,0x1
20003734:	69060613          	addi	a2,a2,1680 # 20004dc0 <__sglue>
20003738:	00000597          	auipc	a1,0x0
2000373c:	e9c58593          	addi	a1,a1,-356 # 200035d4 <__fp_unlock>
20003740:	00000513          	li	a0,0
20003744:	4640006f          	j	20003ba8 <_fwalk_sglue>

20003748 <__sfvwrite_r>:
20003748:	00862783          	lw	a5,8(a2)
2000374c:	04079663          	bnez	a5,20003798 <__sfvwrite_r+0x50>
20003750:	00000513          	li	a0,0
20003754:	00008067          	ret
20003758:	00000513          	li	a0,0
2000375c:	03c12083          	lw	ra,60(sp)
20003760:	03812403          	lw	s0,56(sp)
20003764:	03412483          	lw	s1,52(sp)
20003768:	03012903          	lw	s2,48(sp)
2000376c:	02c12983          	lw	s3,44(sp)
20003770:	02812a03          	lw	s4,40(sp)
20003774:	02412a83          	lw	s5,36(sp)
20003778:	02012b03          	lw	s6,32(sp)
2000377c:	01c12b83          	lw	s7,28(sp)
20003780:	01812c03          	lw	s8,24(sp)
20003784:	01412c83          	lw	s9,20(sp)
20003788:	01012d03          	lw	s10,16(sp)
2000378c:	00c12d83          	lw	s11,12(sp)
20003790:	04010113          	addi	sp,sp,64
20003794:	00008067          	ret
20003798:	00c5d783          	lhu	a5,12(a1)
2000379c:	fc010113          	addi	sp,sp,-64
200037a0:	02812c23          	sw	s0,56(sp)
200037a4:	03312623          	sw	s3,44(sp)
200037a8:	03512223          	sw	s5,36(sp)
200037ac:	02112e23          	sw	ra,60(sp)
200037b0:	02912a23          	sw	s1,52(sp)
200037b4:	03212823          	sw	s2,48(sp)
200037b8:	03412423          	sw	s4,40(sp)
200037bc:	03612023          	sw	s6,32(sp)
200037c0:	01712e23          	sw	s7,28(sp)
200037c4:	01812c23          	sw	s8,24(sp)
200037c8:	01912a23          	sw	s9,20(sp)
200037cc:	01a12823          	sw	s10,16(sp)
200037d0:	01b12623          	sw	s11,12(sp)
200037d4:	0087f793          	andi	a5,a5,8
200037d8:	00060a93          	mv	s5,a2
200037dc:	00058413          	mv	s0,a1
200037e0:	00050993          	mv	s3,a0
200037e4:	0e078263          	beqz	a5,200038c8 <__sfvwrite_r+0x180>
200037e8:	0105a783          	lw	a5,16(a1)
200037ec:	0c078e63          	beqz	a5,200038c8 <__sfvwrite_r+0x180>
200037f0:	00c41783          	lh	a5,12(s0)
200037f4:	000aaa03          	lw	s4,0(s5)
200037f8:	0027f713          	andi	a4,a5,2
200037fc:	12071c63          	bnez	a4,20003934 <__sfvwrite_r+0x1ec>
20003800:	0017f793          	andi	a5,a5,1
20003804:	1c078c63          	beqz	a5,200039dc <__sfvwrite_r+0x294>
20003808:	00000b93          	li	s7,0
2000380c:	00000513          	li	a0,0
20003810:	00000b13          	li	s6,0
20003814:	00000913          	li	s2,0
20003818:	32090663          	beqz	s2,20003b44 <__sfvwrite_r+0x3fc>
2000381c:	02051263          	bnez	a0,20003840 <__sfvwrite_r+0xf8>
20003820:	00090613          	mv	a2,s2
20003824:	00a00593          	li	a1,10
20003828:	000b0513          	mv	a0,s6
2000382c:	0e5000ef          	jal	20004110 <memchr>
20003830:	00190b93          	addi	s7,s2,1
20003834:	00050663          	beqz	a0,20003840 <__sfvwrite_r+0xf8>
20003838:	00150513          	addi	a0,a0,1
2000383c:	41650bb3          	sub	s7,a0,s6
20003840:	000b8c13          	mv	s8,s7
20003844:	01797463          	bgeu	s2,s7,2000384c <__sfvwrite_r+0x104>
20003848:	00090c13          	mv	s8,s2
2000384c:	01442683          	lw	a3,20(s0)
20003850:	00842483          	lw	s1,8(s0)
20003854:	00042503          	lw	a0,0(s0)
20003858:	01042783          	lw	a5,16(s0)
2000385c:	009684b3          	add	s1,a3,s1
20003860:	2ea7fc63          	bgeu	a5,a0,20003b58 <__sfvwrite_r+0x410>
20003864:	2f84da63          	bge	s1,s8,20003b58 <__sfvwrite_r+0x410>
20003868:	000b0593          	mv	a1,s6
2000386c:	00048613          	mv	a2,s1
20003870:	455000ef          	jal	200044c4 <memmove>
20003874:	00042783          	lw	a5,0(s0)
20003878:	00040593          	mv	a1,s0
2000387c:	00098513          	mv	a0,s3
20003880:	009787b3          	add	a5,a5,s1
20003884:	00f42023          	sw	a5,0(s0)
20003888:	b3dff0ef          	jal	200033c4 <_fflush_r>
2000388c:	14051063          	bnez	a0,200039cc <__sfvwrite_r+0x284>
20003890:	409b8bb3          	sub	s7,s7,s1
20003894:	00100513          	li	a0,1
20003898:	000b9a63          	bnez	s7,200038ac <__sfvwrite_r+0x164>
2000389c:	00040593          	mv	a1,s0
200038a0:	00098513          	mv	a0,s3
200038a4:	b21ff0ef          	jal	200033c4 <_fflush_r>
200038a8:	12051263          	bnez	a0,200039cc <__sfvwrite_r+0x284>
200038ac:	008aa783          	lw	a5,8(s5)
200038b0:	409787b3          	sub	a5,a5,s1
200038b4:	00faa423          	sw	a5,8(s5)
200038b8:	ea0780e3          	beqz	a5,20003758 <__sfvwrite_r+0x10>
200038bc:	009b0b33          	add	s6,s6,s1
200038c0:	40990933          	sub	s2,s2,s1
200038c4:	f55ff06f          	j	20003818 <__sfvwrite_r+0xd0>
200038c8:	00040593          	mv	a1,s0
200038cc:	00098513          	mv	a0,s3
200038d0:	724000ef          	jal	20003ff4 <__swsetup_r>
200038d4:	f0050ee3          	beqz	a0,200037f0 <__sfvwrite_r+0xa8>
200038d8:	fff00513          	li	a0,-1
200038dc:	e81ff06f          	j	2000375c <__sfvwrite_r+0x14>
200038e0:	000a2903          	lw	s2,0(s4)
200038e4:	004a2483          	lw	s1,4(s4)
200038e8:	008a0a13          	addi	s4,s4,8
200038ec:	fe048ae3          	beqz	s1,200038e0 <__sfvwrite_r+0x198>
200038f0:	00048693          	mv	a3,s1
200038f4:	009b7663          	bgeu	s6,s1,20003900 <__sfvwrite_r+0x1b8>
200038f8:	800006b7          	lui	a3,0x80000
200038fc:	c0068693          	addi	a3,a3,-1024 # 7ffffc00 <__stack_top+0x5fffa0c4>
20003900:	02842783          	lw	a5,40(s0)
20003904:	02042583          	lw	a1,32(s0)
20003908:	00090613          	mv	a2,s2
2000390c:	00098513          	mv	a0,s3
20003910:	000780e7          	jalr	a5
20003914:	0aa05c63          	blez	a0,200039cc <__sfvwrite_r+0x284>
20003918:	008aa783          	lw	a5,8(s5)
2000391c:	40a787b3          	sub	a5,a5,a0
20003920:	00faa423          	sw	a5,8(s5)
20003924:	e2078ae3          	beqz	a5,20003758 <__sfvwrite_r+0x10>
20003928:	00a90933          	add	s2,s2,a0
2000392c:	40a484b3          	sub	s1,s1,a0
20003930:	fbdff06f          	j	200038ec <__sfvwrite_r+0x1a4>
20003934:	80000b37          	lui	s6,0x80000
20003938:	00000913          	li	s2,0
2000393c:	00000493          	li	s1,0
20003940:	c00b0b13          	addi	s6,s6,-1024 # 7ffffc00 <__stack_top+0x5fffa0c4>
20003944:	fa9ff06f          	j	200038ec <__sfvwrite_r+0x1a4>
20003948:	000a2b03          	lw	s6,0(s4)
2000394c:	004a2483          	lw	s1,4(s4)
20003950:	008a0a13          	addi	s4,s4,8
20003954:	fe048ae3          	beqz	s1,20003948 <__sfvwrite_r+0x200>
20003958:	00c41783          	lh	a5,12(s0)
2000395c:	00842d03          	lw	s10,8(s0)
20003960:	00042503          	lw	a0,0(s0)
20003964:	2007f713          	andi	a4,a5,512
20003968:	14070863          	beqz	a4,20003ab8 <__sfvwrite_r+0x370>
2000396c:	000d0d93          	mv	s11,s10
20003970:	13a4ec63          	bltu	s1,s10,20003aa8 <__sfvwrite_r+0x360>
20003974:	4807f713          	andi	a4,a5,1152
20003978:	12070c63          	beqz	a4,20003ab0 <__sfvwrite_r+0x368>
2000397c:	01442903          	lw	s2,20(s0)
20003980:	01042583          	lw	a1,16(s0)
20003984:	03890933          	mul	s2,s2,s8
20003988:	40b50db3          	sub	s11,a0,a1
2000398c:	001d8713          	addi	a4,s11,1
20003990:	00970733          	add	a4,a4,s1
20003994:	03994933          	div	s2,s2,s9
20003998:	00090613          	mv	a2,s2
2000399c:	00e97663          	bgeu	s2,a4,200039a8 <__sfvwrite_r+0x260>
200039a0:	00070913          	mv	s2,a4
200039a4:	00070613          	mv	a2,a4
200039a8:	4007f793          	andi	a5,a5,1024
200039ac:	0c078863          	beqz	a5,20003a7c <__sfvwrite_r+0x334>
200039b0:	00060593          	mv	a1,a2
200039b4:	00098513          	mv	a0,s3
200039b8:	ca5fe0ef          	jal	2000265c <_malloc_r>
200039bc:	00050d13          	mv	s10,a0
200039c0:	02051c63          	bnez	a0,200039f8 <__sfvwrite_r+0x2b0>
200039c4:	00c00793          	li	a5,12
200039c8:	00f9a023          	sw	a5,0(s3)
200039cc:	00c45783          	lhu	a5,12(s0)
200039d0:	0407e793          	ori	a5,a5,64
200039d4:	00f41623          	sh	a5,12(s0)
200039d8:	f01ff06f          	j	200038d8 <__sfvwrite_r+0x190>
200039dc:	80000bb7          	lui	s7,0x80000
200039e0:	00000b13          	li	s6,0
200039e4:	00000493          	li	s1,0
200039e8:	fffb8b93          	addi	s7,s7,-1 # 7fffffff <__stack_top+0x5fffa4c3>
200039ec:	00300c13          	li	s8,3
200039f0:	00200c93          	li	s9,2
200039f4:	f61ff06f          	j	20003954 <__sfvwrite_r+0x20c>
200039f8:	01042583          	lw	a1,16(s0)
200039fc:	000d8613          	mv	a2,s11
20003a00:	31d000ef          	jal	2000451c <memcpy>
20003a04:	00c45783          	lhu	a5,12(s0)
20003a08:	b7f7f793          	andi	a5,a5,-1153
20003a0c:	0807e793          	ori	a5,a5,128
20003a10:	00f41623          	sh	a5,12(s0)
20003a14:	01a42823          	sw	s10,16(s0)
20003a18:	01242a23          	sw	s2,20(s0)
20003a1c:	01bd0d33          	add	s10,s10,s11
20003a20:	41b90933          	sub	s2,s2,s11
20003a24:	01a42023          	sw	s10,0(s0)
20003a28:	01242423          	sw	s2,8(s0)
20003a2c:	00048d13          	mv	s10,s1
20003a30:	00048913          	mv	s2,s1
20003a34:	00048d93          	mv	s11,s1
20003a38:	00042503          	lw	a0,0(s0)
20003a3c:	000d8613          	mv	a2,s11
20003a40:	000b0593          	mv	a1,s6
20003a44:	281000ef          	jal	200044c4 <memmove>
20003a48:	00842783          	lw	a5,8(s0)
20003a4c:	41a787b3          	sub	a5,a5,s10
20003a50:	00f42423          	sw	a5,8(s0)
20003a54:	00042783          	lw	a5,0(s0)
20003a58:	01b787b3          	add	a5,a5,s11
20003a5c:	00f42023          	sw	a5,0(s0)
20003a60:	008aa783          	lw	a5,8(s5)
20003a64:	412787b3          	sub	a5,a5,s2
20003a68:	00faa423          	sw	a5,8(s5)
20003a6c:	ce0786e3          	beqz	a5,20003758 <__sfvwrite_r+0x10>
20003a70:	012b0b33          	add	s6,s6,s2
20003a74:	412484b3          	sub	s1,s1,s2
20003a78:	eddff06f          	j	20003954 <__sfvwrite_r+0x20c>
20003a7c:	00098513          	mv	a0,s3
20003a80:	2c1000ef          	jal	20004540 <_realloc_r>
20003a84:	00050d13          	mv	s10,a0
20003a88:	f80516e3          	bnez	a0,20003a14 <__sfvwrite_r+0x2cc>
20003a8c:	01042583          	lw	a1,16(s0)
20003a90:	00098513          	mv	a0,s3
20003a94:	a1dfe0ef          	jal	200024b0 <_free_r>
20003a98:	00c45783          	lhu	a5,12(s0)
20003a9c:	f7f7f793          	andi	a5,a5,-129
20003aa0:	00f41623          	sh	a5,12(s0)
20003aa4:	f21ff06f          	j	200039c4 <__sfvwrite_r+0x27c>
20003aa8:	00048d13          	mv	s10,s1
20003aac:	f85ff06f          	j	20003a30 <__sfvwrite_r+0x2e8>
20003ab0:	00048913          	mv	s2,s1
20003ab4:	f85ff06f          	j	20003a38 <__sfvwrite_r+0x2f0>
20003ab8:	01042783          	lw	a5,16(s0)
20003abc:	00a7e663          	bltu	a5,a0,20003ac8 <__sfvwrite_r+0x380>
20003ac0:	01442683          	lw	a3,20(s0)
20003ac4:	04d4f663          	bgeu	s1,a3,20003b10 <__sfvwrite_r+0x3c8>
20003ac8:	000d0913          	mv	s2,s10
20003acc:	01a4f463          	bgeu	s1,s10,20003ad4 <__sfvwrite_r+0x38c>
20003ad0:	00048913          	mv	s2,s1
20003ad4:	00090613          	mv	a2,s2
20003ad8:	000b0593          	mv	a1,s6
20003adc:	1e9000ef          	jal	200044c4 <memmove>
20003ae0:	00842783          	lw	a5,8(s0)
20003ae4:	00042703          	lw	a4,0(s0)
20003ae8:	412787b3          	sub	a5,a5,s2
20003aec:	01270733          	add	a4,a4,s2
20003af0:	00f42423          	sw	a5,8(s0)
20003af4:	00e42023          	sw	a4,0(s0)
20003af8:	f60794e3          	bnez	a5,20003a60 <__sfvwrite_r+0x318>
20003afc:	00040593          	mv	a1,s0
20003b00:	00098513          	mv	a0,s3
20003b04:	8c1ff0ef          	jal	200033c4 <_fflush_r>
20003b08:	f4050ce3          	beqz	a0,20003a60 <__sfvwrite_r+0x318>
20003b0c:	ec1ff06f          	j	200039cc <__sfvwrite_r+0x284>
20003b10:	00048793          	mv	a5,s1
20003b14:	009bf463          	bgeu	s7,s1,20003b1c <__sfvwrite_r+0x3d4>
20003b18:	000b8793          	mv	a5,s7
20003b1c:	02d7c7b3          	div	a5,a5,a3
20003b20:	02842703          	lw	a4,40(s0)
20003b24:	02042583          	lw	a1,32(s0)
20003b28:	000b0613          	mv	a2,s6
20003b2c:	00098513          	mv	a0,s3
20003b30:	02d786b3          	mul	a3,a5,a3
20003b34:	000700e7          	jalr	a4
20003b38:	00050913          	mv	s2,a0
20003b3c:	f2a042e3          	bgtz	a0,20003a60 <__sfvwrite_r+0x318>
20003b40:	e8dff06f          	j	200039cc <__sfvwrite_r+0x284>
20003b44:	000a2b03          	lw	s6,0(s4)
20003b48:	004a2903          	lw	s2,4(s4)
20003b4c:	00000513          	li	a0,0
20003b50:	008a0a13          	addi	s4,s4,8
20003b54:	cc5ff06f          	j	20003818 <__sfvwrite_r+0xd0>
20003b58:	02dc4263          	blt	s8,a3,20003b7c <__sfvwrite_r+0x434>
20003b5c:	02842783          	lw	a5,40(s0)
20003b60:	02042583          	lw	a1,32(s0)
20003b64:	000b0613          	mv	a2,s6
20003b68:	00098513          	mv	a0,s3
20003b6c:	000780e7          	jalr	a5
20003b70:	00050493          	mv	s1,a0
20003b74:	d0a04ee3          	bgtz	a0,20003890 <__sfvwrite_r+0x148>
20003b78:	e55ff06f          	j	200039cc <__sfvwrite_r+0x284>
20003b7c:	000c0613          	mv	a2,s8
20003b80:	000b0593          	mv	a1,s6
20003b84:	141000ef          	jal	200044c4 <memmove>
20003b88:	00842783          	lw	a5,8(s0)
20003b8c:	000c0493          	mv	s1,s8
20003b90:	418787b3          	sub	a5,a5,s8
20003b94:	00f42423          	sw	a5,8(s0)
20003b98:	00042783          	lw	a5,0(s0)
20003b9c:	018787b3          	add	a5,a5,s8
20003ba0:	00f42023          	sw	a5,0(s0)
20003ba4:	cedff06f          	j	20003890 <__sfvwrite_r+0x148>

20003ba8 <_fwalk_sglue>:
20003ba8:	fd010113          	addi	sp,sp,-48
20003bac:	02812423          	sw	s0,40(sp)
20003bb0:	03212023          	sw	s2,32(sp)
20003bb4:	01312e23          	sw	s3,28(sp)
20003bb8:	01412c23          	sw	s4,24(sp)
20003bbc:	01512a23          	sw	s5,20(sp)
20003bc0:	02112623          	sw	ra,44(sp)
20003bc4:	02912223          	sw	s1,36(sp)
20003bc8:	00050a13          	mv	s4,a0
20003bcc:	00058a93          	mv	s5,a1
20003bd0:	00000413          	li	s0,0
20003bd4:	00100913          	li	s2,1
20003bd8:	fff00993          	li	s3,-1
20003bdc:	00862583          	lw	a1,8(a2)
20003be0:	00462483          	lw	s1,4(a2)
20003be4:	fff48493          	addi	s1,s1,-1
20003be8:	0204da63          	bgez	s1,20003c1c <_fwalk_sglue+0x74>
20003bec:	00062603          	lw	a2,0(a2)
20003bf0:	fe0616e3          	bnez	a2,20003bdc <_fwalk_sglue+0x34>
20003bf4:	02c12083          	lw	ra,44(sp)
20003bf8:	00040513          	mv	a0,s0
20003bfc:	02812403          	lw	s0,40(sp)
20003c00:	02412483          	lw	s1,36(sp)
20003c04:	02012903          	lw	s2,32(sp)
20003c08:	01c12983          	lw	s3,28(sp)
20003c0c:	01812a03          	lw	s4,24(sp)
20003c10:	01412a83          	lw	s5,20(sp)
20003c14:	03010113          	addi	sp,sp,48
20003c18:	00008067          	ret
20003c1c:	00c5d783          	lhu	a5,12(a1)
20003c20:	02f97463          	bgeu	s2,a5,20003c48 <_fwalk_sglue+0xa0>
20003c24:	00e59783          	lh	a5,14(a1)
20003c28:	03378063          	beq	a5,s3,20003c48 <_fwalk_sglue+0xa0>
20003c2c:	000a0513          	mv	a0,s4
20003c30:	00c12623          	sw	a2,12(sp)
20003c34:	00b12423          	sw	a1,8(sp)
20003c38:	000a80e7          	jalr	s5
20003c3c:	00c12603          	lw	a2,12(sp)
20003c40:	00812583          	lw	a1,8(sp)
20003c44:	00a46433          	or	s0,s0,a0
20003c48:	06858593          	addi	a1,a1,104
20003c4c:	f99ff06f          	j	20003be4 <_fwalk_sglue+0x3c>

20003c50 <__swhatbuf_r>:
20003c50:	f8010113          	addi	sp,sp,-128
20003c54:	06812c23          	sw	s0,120(sp)
20003c58:	00058413          	mv	s0,a1
20003c5c:	00e59583          	lh	a1,14(a1)
20003c60:	06912a23          	sw	s1,116(sp)
20003c64:	06112e23          	sw	ra,124(sp)
20003c68:	00060493          	mv	s1,a2
20003c6c:	0205da63          	bgez	a1,20003ca0 <__swhatbuf_r+0x50>
20003c70:	00c45783          	lhu	a5,12(s0)
20003c74:	0807f793          	andi	a5,a5,128
20003c78:	04079c63          	bnez	a5,20003cd0 <__swhatbuf_r+0x80>
20003c7c:	40000713          	li	a4,1024
20003c80:	07c12083          	lw	ra,124(sp)
20003c84:	07812403          	lw	s0,120(sp)
20003c88:	00f6a023          	sw	a5,0(a3)
20003c8c:	00e4a023          	sw	a4,0(s1)
20003c90:	00000513          	li	a0,0
20003c94:	07412483          	lw	s1,116(sp)
20003c98:	08010113          	addi	sp,sp,128
20003c9c:	00008067          	ret
20003ca0:	01810613          	addi	a2,sp,24
20003ca4:	00d12623          	sw	a3,12(sp)
20003ca8:	650000ef          	jal	200042f8 <_fstat_r>
20003cac:	00c12683          	lw	a3,12(sp)
20003cb0:	fc0540e3          	bltz	a0,20003c70 <__swhatbuf_r+0x20>
20003cb4:	01c12783          	lw	a5,28(sp)
20003cb8:	0000f737          	lui	a4,0xf
20003cbc:	00e7f7b3          	and	a5,a5,a4
20003cc0:	ffffe737          	lui	a4,0xffffe
20003cc4:	00e787b3          	add	a5,a5,a4
20003cc8:	0017b793          	seqz	a5,a5
20003ccc:	fb1ff06f          	j	20003c7c <__swhatbuf_r+0x2c>
20003cd0:	00000793          	li	a5,0
20003cd4:	04000713          	li	a4,64
20003cd8:	fa9ff06f          	j	20003c80 <__swhatbuf_r+0x30>

20003cdc <__smakebuf_r>:
20003cdc:	00c5d703          	lhu	a4,12(a1)
20003ce0:	fd010113          	addi	sp,sp,-48
20003ce4:	02812423          	sw	s0,40(sp)
20003ce8:	02112623          	sw	ra,44(sp)
20003cec:	02912223          	sw	s1,36(sp)
20003cf0:	00277713          	andi	a4,a4,2
20003cf4:	00058413          	mv	s0,a1
20003cf8:	02070663          	beqz	a4,20003d24 <__smakebuf_r+0x48>
20003cfc:	04740793          	addi	a5,s0,71
20003d00:	00f42023          	sw	a5,0(s0)
20003d04:	00f42823          	sw	a5,16(s0)
20003d08:	00100793          	li	a5,1
20003d0c:	00f42a23          	sw	a5,20(s0)
20003d10:	02c12083          	lw	ra,44(sp)
20003d14:	02812403          	lw	s0,40(sp)
20003d18:	02412483          	lw	s1,36(sp)
20003d1c:	03010113          	addi	sp,sp,48
20003d20:	00008067          	ret
20003d24:	01c10693          	addi	a3,sp,28
20003d28:	01810613          	addi	a2,sp,24
20003d2c:	00050493          	mv	s1,a0
20003d30:	f21ff0ef          	jal	20003c50 <__swhatbuf_r>
20003d34:	01812583          	lw	a1,24(sp)
20003d38:	00048513          	mv	a0,s1
20003d3c:	00b12623          	sw	a1,12(sp)
20003d40:	91dfe0ef          	jal	2000265c <_malloc_r>
20003d44:	00c41783          	lh	a5,12(s0)
20003d48:	00c12583          	lw	a1,12(sp)
20003d4c:	00051e63          	bnez	a0,20003d68 <__smakebuf_r+0x8c>
20003d50:	2007f713          	andi	a4,a5,512
20003d54:	fa071ee3          	bnez	a4,20003d10 <__smakebuf_r+0x34>
20003d58:	ffc7f793          	andi	a5,a5,-4
20003d5c:	0027e793          	ori	a5,a5,2
20003d60:	00f41623          	sh	a5,12(s0)
20003d64:	f99ff06f          	j	20003cfc <__smakebuf_r+0x20>
20003d68:	0807e793          	ori	a5,a5,128
20003d6c:	00f41623          	sh	a5,12(s0)
20003d70:	01c12783          	lw	a5,28(sp)
20003d74:	00a42023          	sw	a0,0(s0)
20003d78:	00a42823          	sw	a0,16(s0)
20003d7c:	00b42a23          	sw	a1,20(s0)
20003d80:	f80788e3          	beqz	a5,20003d10 <__smakebuf_r+0x34>
20003d84:	00e41583          	lh	a1,14(s0)
20003d88:	00048513          	mv	a0,s1
20003d8c:	5b8000ef          	jal	20004344 <_isatty_r>
20003d90:	f80500e3          	beqz	a0,20003d10 <__smakebuf_r+0x34>
20003d94:	00c45783          	lhu	a5,12(s0)
20003d98:	ffc7f793          	andi	a5,a5,-4
20003d9c:	0017e793          	ori	a5,a5,1
20003da0:	00f41623          	sh	a5,12(s0)
20003da4:	f6dff06f          	j	20003d10 <__smakebuf_r+0x34>

20003da8 <__sread>:
20003da8:	ff010113          	addi	sp,sp,-16
20003dac:	00812423          	sw	s0,8(sp)
20003db0:	00058413          	mv	s0,a1
20003db4:	00e59583          	lh	a1,14(a1)
20003db8:	00112623          	sw	ra,12(sp)
20003dbc:	620000ef          	jal	200043dc <_read_r>
20003dc0:	02054063          	bltz	a0,20003de0 <__sread+0x38>
20003dc4:	05442783          	lw	a5,84(s0)
20003dc8:	00a787b3          	add	a5,a5,a0
20003dcc:	04f42a23          	sw	a5,84(s0)
20003dd0:	00c12083          	lw	ra,12(sp)
20003dd4:	00812403          	lw	s0,8(sp)
20003dd8:	01010113          	addi	sp,sp,16
20003ddc:	00008067          	ret
20003de0:	00c45783          	lhu	a5,12(s0)
20003de4:	fffff737          	lui	a4,0xfffff
20003de8:	fff70713          	addi	a4,a4,-1 # ffffefff <__stack_top+0xdfff94c3>
20003dec:	00e7f7b3          	and	a5,a5,a4
20003df0:	00f41623          	sh	a5,12(s0)
20003df4:	fddff06f          	j	20003dd0 <__sread+0x28>

20003df8 <__seofread>:
20003df8:	00000513          	li	a0,0
20003dfc:	00008067          	ret

20003e00 <__swrite>:
20003e00:	00c5d783          	lhu	a5,12(a1)
20003e04:	fe010113          	addi	sp,sp,-32
20003e08:	00812c23          	sw	s0,24(sp)
20003e0c:	00912a23          	sw	s1,20(sp)
20003e10:	01212823          	sw	s2,16(sp)
20003e14:	01312623          	sw	s3,12(sp)
20003e18:	00112e23          	sw	ra,28(sp)
20003e1c:	1007f793          	andi	a5,a5,256
20003e20:	00050493          	mv	s1,a0
20003e24:	00058413          	mv	s0,a1
20003e28:	00060913          	mv	s2,a2
20003e2c:	00068993          	mv	s3,a3
20003e30:	00078a63          	beqz	a5,20003e44 <__swrite+0x44>
20003e34:	00e59583          	lh	a1,14(a1)
20003e38:	00200693          	li	a3,2
20003e3c:	00000613          	li	a2,0
20003e40:	54c000ef          	jal	2000438c <_lseek_r>
20003e44:	00c45783          	lhu	a5,12(s0)
20003e48:	fffff737          	lui	a4,0xfffff
20003e4c:	fff70713          	addi	a4,a4,-1 # ffffefff <__stack_top+0xdfff94c3>
20003e50:	00e7f7b3          	and	a5,a5,a4
20003e54:	00e41583          	lh	a1,14(s0)
20003e58:	00f41623          	sh	a5,12(s0)
20003e5c:	01812403          	lw	s0,24(sp)
20003e60:	01c12083          	lw	ra,28(sp)
20003e64:	00098693          	mv	a3,s3
20003e68:	00090613          	mv	a2,s2
20003e6c:	00c12983          	lw	s3,12(sp)
20003e70:	01012903          	lw	s2,16(sp)
20003e74:	00048513          	mv	a0,s1
20003e78:	01412483          	lw	s1,20(sp)
20003e7c:	02010113          	addi	sp,sp,32
20003e80:	5f40006f          	j	20004474 <_write_r>

20003e84 <__sseek>:
20003e84:	ff010113          	addi	sp,sp,-16
20003e88:	00812423          	sw	s0,8(sp)
20003e8c:	00058413          	mv	s0,a1
20003e90:	00e59583          	lh	a1,14(a1)
20003e94:	00112623          	sw	ra,12(sp)
20003e98:	4f4000ef          	jal	2000438c <_lseek_r>
20003e9c:	fff00713          	li	a4,-1
20003ea0:	00c41783          	lh	a5,12(s0)
20003ea4:	02e51263          	bne	a0,a4,20003ec8 <__sseek+0x44>
20003ea8:	80050713          	addi	a4,a0,-2048
20003eac:	80070713          	addi	a4,a4,-2048
20003eb0:	00e7f7b3          	and	a5,a5,a4
20003eb4:	00f41623          	sh	a5,12(s0)
20003eb8:	00c12083          	lw	ra,12(sp)
20003ebc:	00812403          	lw	s0,8(sp)
20003ec0:	01010113          	addi	sp,sp,16
20003ec4:	00008067          	ret
20003ec8:	00001737          	lui	a4,0x1
20003ecc:	00e7e7b3          	or	a5,a5,a4
20003ed0:	00f41623          	sh	a5,12(s0)
20003ed4:	04a42a23          	sw	a0,84(s0)
20003ed8:	fe1ff06f          	j	20003eb8 <__sseek+0x34>

20003edc <__sclose>:
20003edc:	00e59583          	lh	a1,14(a1)
20003ee0:	2540006f          	j	20004134 <_close_r>

20003ee4 <__swbuf_r>:
20003ee4:	fe010113          	addi	sp,sp,-32
20003ee8:	00812c23          	sw	s0,24(sp)
20003eec:	00912a23          	sw	s1,20(sp)
20003ef0:	01312623          	sw	s3,12(sp)
20003ef4:	00112e23          	sw	ra,28(sp)
20003ef8:	01212823          	sw	s2,16(sp)
20003efc:	00050493          	mv	s1,a0
20003f00:	00058993          	mv	s3,a1
20003f04:	00060413          	mv	s0,a2
20003f08:	00050863          	beqz	a0,20003f18 <__swbuf_r+0x34>
20003f0c:	02052783          	lw	a5,32(a0)
20003f10:	00079463          	bnez	a5,20003f18 <__swbuf_r+0x34>
20003f14:	fd4ff0ef          	jal	200036e8 <__sinit>
20003f18:	01842783          	lw	a5,24(s0)
20003f1c:	00f42423          	sw	a5,8(s0)
20003f20:	00c45783          	lhu	a5,12(s0)
20003f24:	0087f793          	andi	a5,a5,8
20003f28:	00078663          	beqz	a5,20003f34 <__swbuf_r+0x50>
20003f2c:	01042783          	lw	a5,16(s0)
20003f30:	02079c63          	bnez	a5,20003f68 <__swbuf_r+0x84>
20003f34:	00040593          	mv	a1,s0
20003f38:	00048513          	mv	a0,s1
20003f3c:	0b8000ef          	jal	20003ff4 <__swsetup_r>
20003f40:	02050463          	beqz	a0,20003f68 <__swbuf_r+0x84>
20003f44:	fff00913          	li	s2,-1
20003f48:	01c12083          	lw	ra,28(sp)
20003f4c:	01812403          	lw	s0,24(sp)
20003f50:	01412483          	lw	s1,20(sp)
20003f54:	00c12983          	lw	s3,12(sp)
20003f58:	00090513          	mv	a0,s2
20003f5c:	01012903          	lw	s2,16(sp)
20003f60:	02010113          	addi	sp,sp,32
20003f64:	00008067          	ret
20003f68:	01042783          	lw	a5,16(s0)
20003f6c:	00042503          	lw	a0,0(s0)
20003f70:	40f50533          	sub	a0,a0,a5
20003f74:	01442783          	lw	a5,20(s0)
20003f78:	00f54a63          	blt	a0,a5,20003f8c <__swbuf_r+0xa8>
20003f7c:	00040593          	mv	a1,s0
20003f80:	00048513          	mv	a0,s1
20003f84:	c40ff0ef          	jal	200033c4 <_fflush_r>
20003f88:	fa051ee3          	bnez	a0,20003f44 <__swbuf_r+0x60>
20003f8c:	00842783          	lw	a5,8(s0)
20003f90:	00150513          	addi	a0,a0,1
20003f94:	0ff9f913          	zext.b	s2,s3
20003f98:	fff78793          	addi	a5,a5,-1
20003f9c:	00f42423          	sw	a5,8(s0)
20003fa0:	00042783          	lw	a5,0(s0)
20003fa4:	00178713          	addi	a4,a5,1
20003fa8:	00e42023          	sw	a4,0(s0)
20003fac:	01378023          	sb	s3,0(a5)
20003fb0:	01442783          	lw	a5,20(s0)
20003fb4:	00a78c63          	beq	a5,a0,20003fcc <__swbuf_r+0xe8>
20003fb8:	00c45783          	lhu	a5,12(s0)
20003fbc:	0017f793          	andi	a5,a5,1
20003fc0:	f80784e3          	beqz	a5,20003f48 <__swbuf_r+0x64>
20003fc4:	ff690793          	addi	a5,s2,-10
20003fc8:	f80790e3          	bnez	a5,20003f48 <__swbuf_r+0x64>
20003fcc:	00040593          	mv	a1,s0
20003fd0:	00048513          	mv	a0,s1
20003fd4:	bf0ff0ef          	jal	200033c4 <_fflush_r>
20003fd8:	f60508e3          	beqz	a0,20003f48 <__swbuf_r+0x64>
20003fdc:	f69ff06f          	j	20003f44 <__swbuf_r+0x60>

20003fe0 <__swbuf>:
20003fe0:	00058613          	mv	a2,a1
20003fe4:	00050593          	mv	a1,a0
20003fe8:	00001517          	auipc	a0,0x1
20003fec:	df852503          	lw	a0,-520(a0) # 20004de0 <_impure_ptr>
20003ff0:	ef5ff06f          	j	20003ee4 <__swbuf_r>

20003ff4 <__swsetup_r>:
20003ff4:	ff010113          	addi	sp,sp,-16
20003ff8:	00912223          	sw	s1,4(sp)
20003ffc:	00050493          	mv	s1,a0
20004000:	00001517          	auipc	a0,0x1
20004004:	de052503          	lw	a0,-544(a0) # 20004de0 <_impure_ptr>
20004008:	00812423          	sw	s0,8(sp)
2000400c:	00112623          	sw	ra,12(sp)
20004010:	00058413          	mv	s0,a1
20004014:	00050863          	beqz	a0,20004024 <__swsetup_r+0x30>
20004018:	02052783          	lw	a5,32(a0)
2000401c:	00079463          	bnez	a5,20004024 <__swsetup_r+0x30>
20004020:	ec8ff0ef          	jal	200036e8 <__sinit>
20004024:	00c41783          	lh	a5,12(s0)
20004028:	0087f713          	andi	a4,a5,8
2000402c:	06071263          	bnez	a4,20004090 <__swsetup_r+0x9c>
20004030:	0107f713          	andi	a4,a5,16
20004034:	00071e63          	bnez	a4,20004050 <__swsetup_r+0x5c>
20004038:	00900713          	li	a4,9
2000403c:	00e4a023          	sw	a4,0(s1)
20004040:	0407e793          	ori	a5,a5,64
20004044:	00f41623          	sh	a5,12(s0)
20004048:	fff00513          	li	a0,-1
2000404c:	0980006f          	j	200040e4 <__swsetup_r+0xf0>
20004050:	0047f713          	andi	a4,a5,4
20004054:	02070a63          	beqz	a4,20004088 <__swsetup_r+0x94>
20004058:	03442583          	lw	a1,52(s0)
2000405c:	00058c63          	beqz	a1,20004074 <__swsetup_r+0x80>
20004060:	04440793          	addi	a5,s0,68
20004064:	00f58663          	beq	a1,a5,20004070 <__swsetup_r+0x7c>
20004068:	00048513          	mv	a0,s1
2000406c:	c44fe0ef          	jal	200024b0 <_free_r>
20004070:	02042a23          	sw	zero,52(s0)
20004074:	00c45783          	lhu	a5,12(s0)
20004078:	01042703          	lw	a4,16(s0)
2000407c:	00042223          	sw	zero,4(s0)
20004080:	fdb7f793          	andi	a5,a5,-37
20004084:	00e42023          	sw	a4,0(s0)
20004088:	0087e793          	ori	a5,a5,8
2000408c:	00f41623          	sh	a5,12(s0)
20004090:	01042783          	lw	a5,16(s0)
20004094:	02079063          	bnez	a5,200040b4 <__swsetup_r+0xc0>
20004098:	00c42783          	lw	a5,12(s0)
2000409c:	20000713          	li	a4,512
200040a0:	2807f793          	andi	a5,a5,640
200040a4:	00e78863          	beq	a5,a4,200040b4 <__swsetup_r+0xc0>
200040a8:	00040593          	mv	a1,s0
200040ac:	00048513          	mv	a0,s1
200040b0:	c2dff0ef          	jal	20003cdc <__smakebuf_r>
200040b4:	00c41783          	lh	a5,12(s0)
200040b8:	0017f713          	andi	a4,a5,1
200040bc:	02070e63          	beqz	a4,200040f8 <__swsetup_r+0x104>
200040c0:	01442703          	lw	a4,20(s0)
200040c4:	00042423          	sw	zero,8(s0)
200040c8:	40e00733          	neg	a4,a4
200040cc:	00e42c23          	sw	a4,24(s0)
200040d0:	01042703          	lw	a4,16(s0)
200040d4:	00000513          	li	a0,0
200040d8:	00071663          	bnez	a4,200040e4 <__swsetup_r+0xf0>
200040dc:	0807f713          	andi	a4,a5,128
200040e0:	f60710e3          	bnez	a4,20004040 <__swsetup_r+0x4c>
200040e4:	00c12083          	lw	ra,12(sp)
200040e8:	00812403          	lw	s0,8(sp)
200040ec:	00412483          	lw	s1,4(sp)
200040f0:	01010113          	addi	sp,sp,16
200040f4:	00008067          	ret
200040f8:	0027f713          	andi	a4,a5,2
200040fc:	00000693          	li	a3,0
20004100:	00071463          	bnez	a4,20004108 <__swsetup_r+0x114>
20004104:	01442683          	lw	a3,20(s0)
20004108:	00d42423          	sw	a3,8(s0)
2000410c:	fc5ff06f          	j	200040d0 <__swsetup_r+0xdc>

20004110 <memchr>:
20004110:	0ff5f593          	zext.b	a1,a1
20004114:	00c50633          	add	a2,a0,a2
20004118:	00c51663          	bne	a0,a2,20004124 <memchr+0x14>
2000411c:	00000513          	li	a0,0
20004120:	00008067          	ret
20004124:	00054783          	lbu	a5,0(a0)
20004128:	feb78ce3          	beq	a5,a1,20004120 <memchr+0x10>
2000412c:	00150513          	addi	a0,a0,1
20004130:	fe9ff06f          	j	20004118 <memchr+0x8>

20004134 <_close_r>:
20004134:	ff010113          	addi	sp,sp,-16
20004138:	00812423          	sw	s0,8(sp)
2000413c:	00050413          	mv	s0,a0
20004140:	00058513          	mv	a0,a1
20004144:	00001797          	auipc	a5,0x1
20004148:	de07aa23          	sw	zero,-524(a5) # 20004f38 <errno>
2000414c:	00112623          	sw	ra,12(sp)
20004150:	d90fd0ef          	jal	200016e0 <_close>
20004154:	fff00793          	li	a5,-1
20004158:	00f51a63          	bne	a0,a5,2000416c <_close_r+0x38>
2000415c:	00001797          	auipc	a5,0x1
20004160:	ddc7a783          	lw	a5,-548(a5) # 20004f38 <errno>
20004164:	00078463          	beqz	a5,2000416c <_close_r+0x38>
20004168:	00f42023          	sw	a5,0(s0)
2000416c:	00c12083          	lw	ra,12(sp)
20004170:	00812403          	lw	s0,8(sp)
20004174:	01010113          	addi	sp,sp,16
20004178:	00008067          	ret

2000417c <_reclaim_reent>:
2000417c:	00001797          	auipc	a5,0x1
20004180:	c647a783          	lw	a5,-924(a5) # 20004de0 <_impure_ptr>
20004184:	16a78863          	beq	a5,a0,200042f4 <_reclaim_reent+0x178>
20004188:	01c52783          	lw	a5,28(a0)
2000418c:	fe010113          	addi	sp,sp,-32
20004190:	00812c23          	sw	s0,24(sp)
20004194:	00112e23          	sw	ra,28(sp)
20004198:	00912a23          	sw	s1,20(sp)
2000419c:	01212823          	sw	s2,16(sp)
200041a0:	01312623          	sw	s3,12(sp)
200041a4:	00050413          	mv	s0,a0
200041a8:	08078463          	beqz	a5,20004230 <_reclaim_reent+0xb4>
200041ac:	00c7a783          	lw	a5,12(a5)
200041b0:	02078c63          	beqz	a5,200041e8 <_reclaim_reent+0x6c>
200041b4:	00000493          	li	s1,0
200041b8:	08000913          	li	s2,128
200041bc:	01c42783          	lw	a5,28(s0)
200041c0:	00c7a783          	lw	a5,12(a5)
200041c4:	009787b3          	add	a5,a5,s1
200041c8:	0007a583          	lw	a1,0(a5)
200041cc:	04059863          	bnez	a1,2000421c <_reclaim_reent+0xa0>
200041d0:	00448493          	addi	s1,s1,4
200041d4:	ff2494e3          	bne	s1,s2,200041bc <_reclaim_reent+0x40>
200041d8:	01c42783          	lw	a5,28(s0)
200041dc:	00040513          	mv	a0,s0
200041e0:	00c7a583          	lw	a1,12(a5)
200041e4:	accfe0ef          	jal	200024b0 <_free_r>
200041e8:	01c42783          	lw	a5,28(s0)
200041ec:	0007a583          	lw	a1,0(a5)
200041f0:	00058663          	beqz	a1,200041fc <_reclaim_reent+0x80>
200041f4:	00040513          	mv	a0,s0
200041f8:	ab8fe0ef          	jal	200024b0 <_free_r>
200041fc:	01c42783          	lw	a5,28(s0)
20004200:	0087a483          	lw	s1,8(a5)
20004204:	02048663          	beqz	s1,20004230 <_reclaim_reent+0xb4>
20004208:	00048593          	mv	a1,s1
2000420c:	00040513          	mv	a0,s0
20004210:	0004a483          	lw	s1,0(s1)
20004214:	a9cfe0ef          	jal	200024b0 <_free_r>
20004218:	fedff06f          	j	20004204 <_reclaim_reent+0x88>
2000421c:	0005a983          	lw	s3,0(a1)
20004220:	00040513          	mv	a0,s0
20004224:	a8cfe0ef          	jal	200024b0 <_free_r>
20004228:	00098593          	mv	a1,s3
2000422c:	fa1ff06f          	j	200041cc <_reclaim_reent+0x50>
20004230:	01442583          	lw	a1,20(s0)
20004234:	00058663          	beqz	a1,20004240 <_reclaim_reent+0xc4>
20004238:	00040513          	mv	a0,s0
2000423c:	a74fe0ef          	jal	200024b0 <_free_r>
20004240:	01c42583          	lw	a1,28(s0)
20004244:	00058663          	beqz	a1,20004250 <_reclaim_reent+0xd4>
20004248:	00040513          	mv	a0,s0
2000424c:	a64fe0ef          	jal	200024b0 <_free_r>
20004250:	03042583          	lw	a1,48(s0)
20004254:	00058663          	beqz	a1,20004260 <_reclaim_reent+0xe4>
20004258:	00040513          	mv	a0,s0
2000425c:	a54fe0ef          	jal	200024b0 <_free_r>
20004260:	03442583          	lw	a1,52(s0)
20004264:	00058663          	beqz	a1,20004270 <_reclaim_reent+0xf4>
20004268:	00040513          	mv	a0,s0
2000426c:	a44fe0ef          	jal	200024b0 <_free_r>
20004270:	03842583          	lw	a1,56(s0)
20004274:	00058663          	beqz	a1,20004280 <_reclaim_reent+0x104>
20004278:	00040513          	mv	a0,s0
2000427c:	a34fe0ef          	jal	200024b0 <_free_r>
20004280:	04842583          	lw	a1,72(s0)
20004284:	00058663          	beqz	a1,20004290 <_reclaim_reent+0x114>
20004288:	00040513          	mv	a0,s0
2000428c:	a24fe0ef          	jal	200024b0 <_free_r>
20004290:	04442583          	lw	a1,68(s0)
20004294:	00058663          	beqz	a1,200042a0 <_reclaim_reent+0x124>
20004298:	00040513          	mv	a0,s0
2000429c:	a14fe0ef          	jal	200024b0 <_free_r>
200042a0:	02c42583          	lw	a1,44(s0)
200042a4:	00058663          	beqz	a1,200042b0 <_reclaim_reent+0x134>
200042a8:	00040513          	mv	a0,s0
200042ac:	a04fe0ef          	jal	200024b0 <_free_r>
200042b0:	02042783          	lw	a5,32(s0)
200042b4:	02078263          	beqz	a5,200042d8 <_reclaim_reent+0x15c>
200042b8:	00040513          	mv	a0,s0
200042bc:	01812403          	lw	s0,24(sp)
200042c0:	01c12083          	lw	ra,28(sp)
200042c4:	01412483          	lw	s1,20(sp)
200042c8:	01012903          	lw	s2,16(sp)
200042cc:	00c12983          	lw	s3,12(sp)
200042d0:	02010113          	addi	sp,sp,32
200042d4:	00078067          	jr	a5
200042d8:	01c12083          	lw	ra,28(sp)
200042dc:	01812403          	lw	s0,24(sp)
200042e0:	01412483          	lw	s1,20(sp)
200042e4:	01012903          	lw	s2,16(sp)
200042e8:	00c12983          	lw	s3,12(sp)
200042ec:	02010113          	addi	sp,sp,32
200042f0:	00008067          	ret
200042f4:	00008067          	ret

200042f8 <_fstat_r>:
200042f8:	ff010113          	addi	sp,sp,-16
200042fc:	00812423          	sw	s0,8(sp)
20004300:	00050413          	mv	s0,a0
20004304:	00058513          	mv	a0,a1
20004308:	00060593          	mv	a1,a2
2000430c:	00001797          	auipc	a5,0x1
20004310:	c207a623          	sw	zero,-980(a5) # 20004f38 <errno>
20004314:	00112623          	sw	ra,12(sp)
20004318:	c28fd0ef          	jal	20001740 <_fstat>
2000431c:	fff00793          	li	a5,-1
20004320:	00f51a63          	bne	a0,a5,20004334 <_fstat_r+0x3c>
20004324:	00001797          	auipc	a5,0x1
20004328:	c147a783          	lw	a5,-1004(a5) # 20004f38 <errno>
2000432c:	00078463          	beqz	a5,20004334 <_fstat_r+0x3c>
20004330:	00f42023          	sw	a5,0(s0)
20004334:	00c12083          	lw	ra,12(sp)
20004338:	00812403          	lw	s0,8(sp)
2000433c:	01010113          	addi	sp,sp,16
20004340:	00008067          	ret

20004344 <_isatty_r>:
20004344:	ff010113          	addi	sp,sp,-16
20004348:	00812423          	sw	s0,8(sp)
2000434c:	00050413          	mv	s0,a0
20004350:	00058513          	mv	a0,a1
20004354:	00001797          	auipc	a5,0x1
20004358:	be07a223          	sw	zero,-1052(a5) # 20004f38 <errno>
2000435c:	00112623          	sw	ra,12(sp)
20004360:	c50fd0ef          	jal	200017b0 <_isatty>
20004364:	fff00793          	li	a5,-1
20004368:	00f51a63          	bne	a0,a5,2000437c <_isatty_r+0x38>
2000436c:	00001797          	auipc	a5,0x1
20004370:	bcc7a783          	lw	a5,-1076(a5) # 20004f38 <errno>
20004374:	00078463          	beqz	a5,2000437c <_isatty_r+0x38>
20004378:	00f42023          	sw	a5,0(s0)
2000437c:	00c12083          	lw	ra,12(sp)
20004380:	00812403          	lw	s0,8(sp)
20004384:	01010113          	addi	sp,sp,16
20004388:	00008067          	ret

2000438c <_lseek_r>:
2000438c:	ff010113          	addi	sp,sp,-16
20004390:	00812423          	sw	s0,8(sp)
20004394:	00050413          	mv	s0,a0
20004398:	00058513          	mv	a0,a1
2000439c:	00060593          	mv	a1,a2
200043a0:	00068613          	mv	a2,a3
200043a4:	00001797          	auipc	a5,0x1
200043a8:	b807aa23          	sw	zero,-1132(a5) # 20004f38 <errno>
200043ac:	00112623          	sw	ra,12(sp)
200043b0:	bccfd0ef          	jal	2000177c <_lseek>
200043b4:	fff00793          	li	a5,-1
200043b8:	00f51a63          	bne	a0,a5,200043cc <_lseek_r+0x40>
200043bc:	00001797          	auipc	a5,0x1
200043c0:	b7c7a783          	lw	a5,-1156(a5) # 20004f38 <errno>
200043c4:	00078463          	beqz	a5,200043cc <_lseek_r+0x40>
200043c8:	00f42023          	sw	a5,0(s0)
200043cc:	00c12083          	lw	ra,12(sp)
200043d0:	00812403          	lw	s0,8(sp)
200043d4:	01010113          	addi	sp,sp,16
200043d8:	00008067          	ret

200043dc <_read_r>:
200043dc:	ff010113          	addi	sp,sp,-16
200043e0:	00812423          	sw	s0,8(sp)
200043e4:	00050413          	mv	s0,a0
200043e8:	00058513          	mv	a0,a1
200043ec:	00060593          	mv	a1,a2
200043f0:	00068613          	mv	a2,a3
200043f4:	00001797          	auipc	a5,0x1
200043f8:	b407a223          	sw	zero,-1212(a5) # 20004f38 <errno>
200043fc:	00112623          	sw	ra,12(sp)
20004400:	c44fd0ef          	jal	20001844 <_read>
20004404:	fff00793          	li	a5,-1
20004408:	00f51a63          	bne	a0,a5,2000441c <_read_r+0x40>
2000440c:	00001797          	auipc	a5,0x1
20004410:	b2c7a783          	lw	a5,-1236(a5) # 20004f38 <errno>
20004414:	00078463          	beqz	a5,2000441c <_read_r+0x40>
20004418:	00f42023          	sw	a5,0(s0)
2000441c:	00c12083          	lw	ra,12(sp)
20004420:	00812403          	lw	s0,8(sp)
20004424:	01010113          	addi	sp,sp,16
20004428:	00008067          	ret

2000442c <_sbrk_r>:
2000442c:	ff010113          	addi	sp,sp,-16
20004430:	00812423          	sw	s0,8(sp)
20004434:	00050413          	mv	s0,a0
20004438:	00058513          	mv	a0,a1
2000443c:	00001797          	auipc	a5,0x1
20004440:	ae07ae23          	sw	zero,-1284(a5) # 20004f38 <errno>
20004444:	00112623          	sw	ra,12(sp)
20004448:	f49fc0ef          	jal	20001390 <_sbrk>
2000444c:	fff00793          	li	a5,-1
20004450:	00f51a63          	bne	a0,a5,20004464 <_sbrk_r+0x38>
20004454:	00001797          	auipc	a5,0x1
20004458:	ae47a783          	lw	a5,-1308(a5) # 20004f38 <errno>
2000445c:	00078463          	beqz	a5,20004464 <_sbrk_r+0x38>
20004460:	00f42023          	sw	a5,0(s0)
20004464:	00c12083          	lw	ra,12(sp)
20004468:	00812403          	lw	s0,8(sp)
2000446c:	01010113          	addi	sp,sp,16
20004470:	00008067          	ret

20004474 <_write_r>:
20004474:	ff010113          	addi	sp,sp,-16
20004478:	00812423          	sw	s0,8(sp)
2000447c:	00050413          	mv	s0,a0
20004480:	00058513          	mv	a0,a1
20004484:	00060593          	mv	a1,a2
20004488:	00068613          	mv	a2,a3
2000448c:	00001797          	auipc	a5,0x1
20004490:	aa07a623          	sw	zero,-1364(a5) # 20004f38 <errno>
20004494:	00112623          	sw	ra,12(sp)
20004498:	b44fd0ef          	jal	200017dc <_write>
2000449c:	fff00793          	li	a5,-1
200044a0:	00f51a63          	bne	a0,a5,200044b4 <_write_r+0x40>
200044a4:	00001797          	auipc	a5,0x1
200044a8:	a947a783          	lw	a5,-1388(a5) # 20004f38 <errno>
200044ac:	00078463          	beqz	a5,200044b4 <_write_r+0x40>
200044b0:	00f42023          	sw	a5,0(s0)
200044b4:	00c12083          	lw	ra,12(sp)
200044b8:	00812403          	lw	s0,8(sp)
200044bc:	01010113          	addi	sp,sp,16
200044c0:	00008067          	ret

200044c4 <memmove>:
200044c4:	02060c63          	beqz	a2,200044fc <memmove+0x38>
200044c8:	00050313          	mv	t1,a0
200044cc:	00100693          	li	a3,1
200044d0:	00b56a63          	bltu	a0,a1,200044e4 <memmove+0x20>
200044d4:	fff00693          	li	a3,-1
200044d8:	fff60713          	addi	a4,a2,-1
200044dc:	00e30333          	add	t1,t1,a4
200044e0:	00e585b3          	add	a1,a1,a4
200044e4:	00058383          	lb	t2,0(a1)
200044e8:	00730023          	sb	t2,0(t1)
200044ec:	fff60613          	addi	a2,a2,-1
200044f0:	00d30333          	add	t1,t1,a3
200044f4:	00d585b3          	add	a1,a1,a3
200044f8:	fe0616e3          	bnez	a2,200044e4 <memmove+0x20>
200044fc:	00008067          	ret

20004500 <memset>:
20004500:	00050313          	mv	t1,a0
20004504:	00060a63          	beqz	a2,20004518 <memset+0x18>
20004508:	00b30023          	sb	a1,0(t1)
2000450c:	fff60613          	addi	a2,a2,-1
20004510:	00130313          	addi	t1,t1,1
20004514:	fe061ae3          	bnez	a2,20004508 <memset+0x8>
20004518:	00008067          	ret

2000451c <memcpy>:
2000451c:	00050313          	mv	t1,a0
20004520:	00060e63          	beqz	a2,2000453c <memcpy+0x20>
20004524:	00058383          	lb	t2,0(a1)
20004528:	00730023          	sb	t2,0(t1)
2000452c:	fff60613          	addi	a2,a2,-1
20004530:	00130313          	addi	t1,t1,1
20004534:	00158593          	addi	a1,a1,1
20004538:	fe0616e3          	bnez	a2,20004524 <memcpy+0x8>
2000453c:	00008067          	ret

20004540 <_realloc_r>:
20004540:	00059663          	bnez	a1,2000454c <_realloc_r+0xc>
20004544:	00060593          	mv	a1,a2
20004548:	914fe06f          	j	2000265c <_malloc_r>
2000454c:	fe010113          	addi	sp,sp,-32
20004550:	00812c23          	sw	s0,24(sp)
20004554:	01412423          	sw	s4,8(sp)
20004558:	00112e23          	sw	ra,28(sp)
2000455c:	00912a23          	sw	s1,20(sp)
20004560:	01212823          	sw	s2,16(sp)
20004564:	01312623          	sw	s3,12(sp)
20004568:	00060413          	mv	s0,a2
2000456c:	00050a13          	mv	s4,a0
20004570:	02061863          	bnez	a2,200045a0 <_realloc_r+0x60>
20004574:	f3dfd0ef          	jal	200024b0 <_free_r>
20004578:	00000493          	li	s1,0
2000457c:	01c12083          	lw	ra,28(sp)
20004580:	01812403          	lw	s0,24(sp)
20004584:	01012903          	lw	s2,16(sp)
20004588:	00c12983          	lw	s3,12(sp)
2000458c:	00812a03          	lw	s4,8(sp)
20004590:	00048513          	mv	a0,s1
20004594:	01412483          	lw	s1,20(sp)
20004598:	02010113          	addi	sp,sp,32
2000459c:	00008067          	ret
200045a0:	00058493          	mv	s1,a1
200045a4:	058000ef          	jal	200045fc <_malloc_usable_size_r>
200045a8:	00050913          	mv	s2,a0
200045ac:	00856663          	bltu	a0,s0,200045b8 <_realloc_r+0x78>
200045b0:	00155793          	srli	a5,a0,0x1
200045b4:	fc87e4e3          	bltu	a5,s0,2000457c <_realloc_r+0x3c>
200045b8:	00040593          	mv	a1,s0
200045bc:	000a0513          	mv	a0,s4
200045c0:	89cfe0ef          	jal	2000265c <_malloc_r>
200045c4:	00050993          	mv	s3,a0
200045c8:	00051663          	bnez	a0,200045d4 <_realloc_r+0x94>
200045cc:	00098493          	mv	s1,s3
200045d0:	fadff06f          	j	2000457c <_realloc_r+0x3c>
200045d4:	00040613          	mv	a2,s0
200045d8:	00897463          	bgeu	s2,s0,200045e0 <_realloc_r+0xa0>
200045dc:	00090613          	mv	a2,s2
200045e0:	00048593          	mv	a1,s1
200045e4:	00098513          	mv	a0,s3
200045e8:	f35ff0ef          	jal	2000451c <memcpy>
200045ec:	00048593          	mv	a1,s1
200045f0:	000a0513          	mv	a0,s4
200045f4:	ebdfd0ef          	jal	200024b0 <_free_r>
200045f8:	fd5ff06f          	j	200045cc <_realloc_r+0x8c>

200045fc <_malloc_usable_size_r>:
200045fc:	ffc5a783          	lw	a5,-4(a1)
20004600:	ffc78513          	addi	a0,a5,-4
20004604:	0007d863          	bgez	a5,20004614 <_malloc_usable_size_r+0x18>
20004608:	00a585b3          	add	a1,a1,a0
2000460c:	0005a783          	lw	a5,0(a1)
20004610:	00f50533          	add	a0,a0,a5
20004614:	00008067          	ret
20004618:	500a                	.insn	2, 0x500a
2000461a:	6f72                	.insn	2, 0x6f72
2000461c:	6d617267          	.insn	4, 0x6d617267
20004620:	6520                	.insn	2, 0x6520
20004622:	6978                	.insn	2, 0x6978
20004624:	6574                	.insn	2, 0x6574
20004626:	2064                	.insn	2, 0x2064
20004628:	68746977          	.insn	4, 0x68746977
2000462c:	6320                	.insn	2, 0x6320
2000462e:	2065646f          	jal	s0,2005a834 <__stack_top+0x54cf8>
20004632:	6425                	.insn	2, 0x6425
20004634:	000a                	.insn	2, 0x000a
	...

20004638 <__clz_tab>:
20004638:	0100 0202 0303 0303 0404 0404 0404 0404     ................
20004648:	0505 0505 0505 0505 0505 0505 0505 0505     ................
20004658:	0606 0606 0606 0606 0606 0606 0606 0606     ................
20004668:	0606 0606 0606 0606 0606 0606 0606 0606     ................
20004678:	0707 0707 0707 0707 0707 0707 0707 0707     ................
20004688:	0707 0707 0707 0707 0707 0707 0707 0707     ................
20004698:	0707 0707 0707 0707 0707 0707 0707 0707     ................
200046a8:	0707 0707 0707 0707 0707 0707 0707 0707     ................
200046b8:	0808 0808 0808 0808 0808 0808 0808 0808     ................
200046c8:	0808 0808 0808 0808 0808 0808 0808 0808     ................
200046d8:	0808 0808 0808 0808 0808 0808 0808 0808     ................
200046e8:	0808 0808 0808 0808 0808 0808 0808 0808     ................
200046f8:	0808 0808 0808 0808 0808 0808 0808 0808     ................
20004708:	0808 0808 0808 0808 0808 0808 0808 0808     ................
20004718:	0808 0808 0808 0808 0808 0808 0808 0808     ................
20004728:	0808 0808 0808 0808 0808 0808 0808 0808     ................
20004738:	2d23 2b30 0020 0000 6c68 004c 6665 4567     #-0+ ...hlL.efgE
20004748:	4746 0000 3130 3332 3534 3736 3938 4241     FG..0123456789AB
20004758:	4443 4645 0000 0000 3130 3332 3534 3736     CDEF....01234567
20004768:	3938 6261 6463 6665 0000 0000 e784 ffff     89abcdef........
20004778:	e7a4 ffff e750 ffff e750 ffff e750 ffff     ....P...P...P...
20004788:	e750 ffff e7a4 ffff e750 ffff e750 ffff     P.......P...P...
20004798:	e750 ffff e750 ffff e98c ffff e7fc ffff     P...P...........
200047a8:	e908 ffff e750 ffff e750 ffff e9d4 ffff     ....P...P.......
200047b8:	e750 ffff e7fc ffff e750 ffff e750 ffff     P.......P...P...
200047c8:	e914 ffff                                   ....
